; ModuleID = 'pthread-vector-yes.cpp'
source_filename = "pthread-vector-yes.cpp"
target datalayout = "e-m:e-p270:32:32-p271:32:32-p272:64:64-i64:64-f80:128-n8:16:32:64-S128"
target triple = "x86_64-unknown-linux-gnu"

%"class.std::ios_base::Init" = type { i8 }
%"class.std::basic_ostream" = type { i32 (...)**, %"class.std::basic_ios" }
%"class.std::basic_ios" = type { %"class.std::ios_base", %"class.std::basic_ostream"*, i8, i8, %"class.std::basic_streambuf"*, %"class.std::ctype"*, %"class.std::num_put"*, %"class.std::num_get"* }
%"class.std::ios_base" = type { i32 (...)**, i64, i64, i32, i32, i32, %"struct.std::ios_base::_Callback_list"*, %"struct.std::ios_base::_Words", [8 x %"struct.std::ios_base::_Words"], i32, %"struct.std::ios_base::_Words"*, %"class.std::locale" }
%"struct.std::ios_base::_Callback_list" = type { %"struct.std::ios_base::_Callback_list"*, void (i32, %"class.std::ios_base"*, i32)*, i32, i32 }
%"struct.std::ios_base::_Words" = type { i8*, i64 }
%"class.std::locale" = type { %"class.std::locale::_Impl"* }
%"class.std::locale::_Impl" = type { i32, %"class.std::locale::facet"**, i64, %"class.std::locale::facet"**, i8** }
%"class.std::locale::facet" = type <{ i32 (...)**, i32, [4 x i8] }>
%"class.std::basic_streambuf" = type { i32 (...)**, i8*, i8*, i8*, i8*, i8*, i8*, %"class.std::locale" }
%"class.std::ctype" = type <{ %"class.std::locale::facet.base", [4 x i8], %struct.__locale_struct*, i8, [7 x i8], i32*, i32*, i16*, i8, [256 x i8], [256 x i8], i8, [6 x i8] }>
%"class.std::locale::facet.base" = type <{ i32 (...)**, i32 }>
%struct.__locale_struct = type { [13 x %struct.__locale_data*], i16*, i32*, i32*, [13 x i8*] }
%struct.__locale_data = type opaque
%"class.std::num_put" = type { %"class.std::locale::facet.base", [4 x i8] }
%"class.std::num_get" = type { %"class.std::locale::facet.base", [4 x i8] }
%"class.std::vector" = type { %"struct.std::_Vector_base" }
%"struct.std::_Vector_base" = type { %"struct.std::_Vector_base<unsigned long, std::allocator<unsigned long> >::_Vector_impl" }
%"struct.std::_Vector_base<unsigned long, std::allocator<unsigned long> >::_Vector_impl" = type { %"struct.std::_Vector_base<unsigned long, std::allocator<unsigned long> >::_Vector_impl_data" }
%"struct.std::_Vector_base<unsigned long, std::allocator<unsigned long> >::_Vector_impl_data" = type { i64*, i64*, i64* }
%"class.__gnu_cxx::__normal_iterator" = type { i64* }
%union.pthread_attr_t = type { i64, [48 x i8] }
%"class.std::allocator" = type { i8 }
%"class.__gnu_cxx::new_allocator" = type { i8 }
%"struct.std::integral_constant" = type { i8 }

$_ZNSt6vectorImSaImEEC2Ev = comdat any

$_ZNSt6vectorImSaImEE9push_backERKm = comdat any

$_ZNSt6vectorImSaImEE5beginEv = comdat any

$_ZNSt6vectorImSaImEE3endEv = comdat any

$_ZN9__gnu_cxxneIPmSt6vectorImSaImEEEEbRKNS_17__normal_iteratorIT_T0_EESA_ = comdat any

$_ZNK9__gnu_cxx17__normal_iteratorIPmSt6vectorImSaImEEEdeEv = comdat any

$_ZN9__gnu_cxx17__normal_iteratorIPmSt6vectorImSaImEEEppEv = comdat any

$_ZNSt6vectorImSaImEED2Ev = comdat any

$_ZNSt12_Vector_baseImSaImEEC2Ev = comdat any

$_ZNSt12_Vector_baseImSaImEE12_Vector_implC2Ev = comdat any

$_ZNSaImEC2Ev = comdat any

$_ZNSt12_Vector_baseImSaImEE17_Vector_impl_dataC2Ev = comdat any

$_ZN9__gnu_cxx13new_allocatorImEC2Ev = comdat any

$_ZSt8_DestroyIPmmEvT_S1_RSaIT0_E = comdat any

$_ZNSt12_Vector_baseImSaImEE19_M_get_Tp_allocatorEv = comdat any

$_ZNSt12_Vector_baseImSaImEED2Ev = comdat any

$__clang_call_terminate = comdat any

$_ZSt8_DestroyIPmEvT_S1_ = comdat any

$_ZNSt12_Destroy_auxILb1EE9__destroyIPmEEvT_S3_ = comdat any

$_ZNSt12_Vector_baseImSaImEE13_M_deallocateEPmm = comdat any

$_ZNSt12_Vector_baseImSaImEE12_Vector_implD2Ev = comdat any

$_ZNSt16allocator_traitsISaImEE10deallocateERS0_Pmm = comdat any

$_ZN9__gnu_cxx13new_allocatorImE10deallocateEPmm = comdat any

$_ZNSaImED2Ev = comdat any

$_ZN9__gnu_cxx13new_allocatorImED2Ev = comdat any

$_ZNSt16allocator_traitsISaImEE9constructImJRKmEEEvRS0_PT_DpOT0_ = comdat any

$_ZNSt6vectorImSaImEE17_M_realloc_insertIJRKmEEEvN9__gnu_cxx17__normal_iteratorIPmS1_EEDpOT_ = comdat any

$_ZN9__gnu_cxx13new_allocatorImE9constructImJRKmEEEvPT_DpOT0_ = comdat any

$_ZSt7forwardIRKmEOT_RNSt16remove_referenceIS2_E4typeE = comdat any

$_ZNKSt6vectorImSaImEE12_M_check_lenEmPKc = comdat any

$_ZN9__gnu_cxxmiIPmSt6vectorImSaImEEEENS_17__normal_iteratorIT_T0_E15difference_typeERKS8_SB_ = comdat any

$_ZNSt12_Vector_baseImSaImEE11_M_allocateEm = comdat any

$_ZNSt6vectorImSaImEE11_S_relocateEPmS2_S2_RS0_ = comdat any

$_ZNK9__gnu_cxx17__normal_iteratorIPmSt6vectorImSaImEEE4baseEv = comdat any

$_ZNKSt6vectorImSaImEE8max_sizeEv = comdat any

$_ZNKSt6vectorImSaImEE4sizeEv = comdat any

$_ZSt3maxImERKT_S2_S2_ = comdat any

$_ZNSt6vectorImSaImEE11_S_max_sizeERKS0_ = comdat any

$_ZNKSt12_Vector_baseImSaImEE19_M_get_Tp_allocatorEv = comdat any

$_ZNSt16allocator_traitsISaImEE8max_sizeERKS0_ = comdat any

$_ZSt3minImERKT_S2_S2_ = comdat any

$_ZNK9__gnu_cxx13new_allocatorImE8max_sizeEv = comdat any

$_ZNK9__gnu_cxx13new_allocatorImE11_M_max_sizeEv = comdat any

$_ZNSt16allocator_traitsISaImEE8allocateERS0_m = comdat any

$_ZN9__gnu_cxx13new_allocatorImE8allocateEmPKv = comdat any

$_ZNSt6vectorImSaImEE14_S_do_relocateEPmS2_S2_RS0_St17integral_constantIbLb1EE = comdat any

$_ZSt12__relocate_aIPmS0_SaImEET0_T_S3_S2_RT1_ = comdat any

$_ZSt14__relocate_a_1ImmENSt9enable_ifIXsr3std24__is_bitwise_relocatableIT_EE5valueEPS1_E4typeES2_S2_S2_RSaIT0_E = comdat any

$_ZSt12__niter_baseIPmET_S1_ = comdat any

$_ZN9__gnu_cxx17__normal_iteratorIPmSt6vectorImSaImEEEC2ERKS1_ = comdat any

@_ZStL8__ioinit = internal global %"class.std::ios_base::Init" zeroinitializer, align 1, !dbg !0
@__dso_handle = external hidden global i8
@accum = dso_local global i32 0, align 4, !dbg !28
@_ZSt4cout = external dso_local global %"class.std::basic_ostream", align 8
@.str = private unnamed_addr constant [9 x i8] c"accum = \00", align 1
@.str.1 = private unnamed_addr constant [26 x i8] c"vector::_M_realloc_insert\00", align 1
@llvm.global_ctors = appending global [1 x { i32, void ()*, i8* }] [{ i32, void ()*, i8* } { i32 65535, void ()* @_GLOBAL__sub_I_pthread_vector_yes.cpp, i8* null }]

; Function Attrs: noinline uwtable
define internal void @__cxx_global_var_init() #0 section ".text.startup" !dbg !1464 {
entry:
  call void @_ZNSt8ios_base4InitC1Ev(%"class.std::ios_base::Init"* @_ZStL8__ioinit), !dbg !1465
  %0 = call i32 @__cxa_atexit(void (i8*)* bitcast (void (%"class.std::ios_base::Init"*)* @_ZNSt8ios_base4InitD1Ev to void (i8*)*), i8* getelementptr inbounds (%"class.std::ios_base::Init", %"class.std::ios_base::Init"* @_ZStL8__ioinit, i32 0, i32 0), i8* @__dso_handle) #3, !dbg !1465
  ret void, !dbg !1465
}

declare dso_local void @_ZNSt8ios_base4InitC1Ev(%"class.std::ios_base::Init"*) unnamed_addr #1

; Function Attrs: nounwind
declare dso_local void @_ZNSt8ios_base4InitD1Ev(%"class.std::ios_base::Init"*) unnamed_addr #2

; Function Attrs: nounwind
declare dso_local i32 @__cxa_atexit(void (i8*)*, i8*, i8*) #3

; Function Attrs: noinline norecurse optnone uwtable
define dso_local i32 @main() #4 personality i8* bitcast (i32 (...)* @__gxx_personality_v0 to i8*) !dbg !1466 {
entry:
  %retval = alloca i32, align 4
  %ths = alloca %"class.std::vector", align 8
  %i = alloca i64, align 8
  %th = alloca i64, align 8
  %exn.slot = alloca i8*
  %ehselector.slot = alloca i32
  %__range1 = alloca %"class.std::vector"*, align 8
  %__begin1 = alloca %"class.__gnu_cxx::__normal_iterator", align 8
  %__end1 = alloca %"class.__gnu_cxx::__normal_iterator", align 8
  %th7 = alloca i64*, align 8
  store i32 0, i32* %retval, align 4
  call void @llvm.dbg.declare(metadata %"class.std::vector"* %ths, metadata !1467, metadata !DIExpression()), !dbg !1468
  call void @_ZNSt6vectorImSaImEEC2Ev(%"class.std::vector"* %ths) #3, !dbg !1468
  call void @llvm.dbg.declare(metadata i64* %i, metadata !1469, metadata !DIExpression()), !dbg !1471
  store i64 1, i64* %i, align 8, !dbg !1471
  br label %for.cond, !dbg !1472

for.cond:                                         ; preds = %for.inc, %entry
  %0 = load i64, i64* %i, align 8, !dbg !1473
  %cmp = icmp sle i64 %0, 20, !dbg !1475
  br i1 %cmp, label %for.body, label %for.end, !dbg !1476

for.body:                                         ; preds = %for.cond
  call void @llvm.dbg.declare(metadata i64* %th, metadata !1477, metadata !DIExpression()), !dbg !1481
  %1 = load i64, i64* %i, align 8, !dbg !1482
  %2 = inttoptr i64 %1 to i8*, !dbg !1483
  %call = call i32 @pthread_create(i64* %th, %union.pthread_attr_t* null, i8* (i8*)* @_ZL6squarePv, i8* %2) #3, !dbg !1484
  invoke void @_ZNSt6vectorImSaImEE9push_backERKm(%"class.std::vector"* %ths, i64* dereferenceable(8) %th)
          to label %invoke.cont unwind label %lpad, !dbg !1485

invoke.cont:                                      ; preds = %for.body
  br label %for.inc, !dbg !1486

for.inc:                                          ; preds = %invoke.cont
  %3 = load i64, i64* %i, align 8, !dbg !1487
  %inc = add nsw i64 %3, 1, !dbg !1487
  store i64 %inc, i64* %i, align 8, !dbg !1487
  br label %for.cond, !dbg !1488, !llvm.loop !1489

lpad:                                             ; preds = %invoke.cont16, %invoke.cont14, %for.end13, %for.body6, %for.body
  %4 = landingpad { i8*, i32 }
          cleanup, !dbg !1491
  %5 = extractvalue { i8*, i32 } %4, 0, !dbg !1491
  store i8* %5, i8** %exn.slot, align 8, !dbg !1491
  %6 = extractvalue { i8*, i32 } %4, 1, !dbg !1491
  store i32 %6, i32* %ehselector.slot, align 4, !dbg !1491
  call void @_ZNSt6vectorImSaImEED2Ev(%"class.std::vector"* %ths) #3, !dbg !1492
  br label %eh.resume, !dbg !1492

for.end:                                          ; preds = %for.cond
  call void @llvm.dbg.declare(metadata %"class.std::vector"** %__range1, metadata !1493, metadata !DIExpression()), !dbg !1495
  store %"class.std::vector"* %ths, %"class.std::vector"** %__range1, align 8, !dbg !1496
  call void @llvm.dbg.declare(metadata %"class.__gnu_cxx::__normal_iterator"* %__begin1, metadata !1497, metadata !DIExpression()), !dbg !1495
  %7 = load %"class.std::vector"*, %"class.std::vector"** %__range1, align 8, !dbg !1498
  %call1 = call i64* @_ZNSt6vectorImSaImEE5beginEv(%"class.std::vector"* %7) #3, !dbg !1498
  %coerce.dive = getelementptr inbounds %"class.__gnu_cxx::__normal_iterator", %"class.__gnu_cxx::__normal_iterator"* %__begin1, i32 0, i32 0, !dbg !1498
  store i64* %call1, i64** %coerce.dive, align 8, !dbg !1498
  call void @llvm.dbg.declare(metadata %"class.__gnu_cxx::__normal_iterator"* %__end1, metadata !1499, metadata !DIExpression()), !dbg !1495
  %8 = load %"class.std::vector"*, %"class.std::vector"** %__range1, align 8, !dbg !1498
  %call2 = call i64* @_ZNSt6vectorImSaImEE3endEv(%"class.std::vector"* %8) #3, !dbg !1498
  %coerce.dive3 = getelementptr inbounds %"class.__gnu_cxx::__normal_iterator", %"class.__gnu_cxx::__normal_iterator"* %__end1, i32 0, i32 0, !dbg !1498
  store i64* %call2, i64** %coerce.dive3, align 8, !dbg !1498
  br label %for.cond4, !dbg !1498

for.cond4:                                        ; preds = %for.inc11, %for.end
  %call5 = call zeroext i1 @_ZN9__gnu_cxxneIPmSt6vectorImSaImEEEEbRKNS_17__normal_iteratorIT_T0_EESA_(%"class.__gnu_cxx::__normal_iterator"* dereferenceable(8) %__begin1, %"class.__gnu_cxx::__normal_iterator"* dereferenceable(8) %__end1) #3, !dbg !1498
  br i1 %call5, label %for.body6, label %for.end13, !dbg !1498

for.body6:                                        ; preds = %for.cond4
  call void @llvm.dbg.declare(metadata i64** %th7, metadata !1500, metadata !DIExpression()), !dbg !1502
  %call8 = call dereferenceable(8) i64* @_ZNK9__gnu_cxx17__normal_iteratorIPmSt6vectorImSaImEEEdeEv(%"class.__gnu_cxx::__normal_iterator"* %__begin1) #3, !dbg !1503
  store i64* %call8, i64** %th7, align 8, !dbg !1502
  %9 = load i64*, i64** %th7, align 8, !dbg !1504
  %10 = load i64, i64* %9, align 8, !dbg !1504
  %call10 = invoke i32 @pthread_join(i64 %10, i8** null)
          to label %invoke.cont9 unwind label %lpad, !dbg !1506

invoke.cont9:                                     ; preds = %for.body6
  br label %for.inc11, !dbg !1507

for.inc11:                                        ; preds = %invoke.cont9
  %call12 = call dereferenceable(8) %"class.__gnu_cxx::__normal_iterator"* @_ZN9__gnu_cxx17__normal_iteratorIPmSt6vectorImSaImEEEppEv(%"class.__gnu_cxx::__normal_iterator"* %__begin1) #3, !dbg !1498
  br label %for.cond4, !dbg !1498, !llvm.loop !1508

for.end13:                                        ; preds = %for.cond4
  %call15 = invoke dereferenceable(272) %"class.std::basic_ostream"* @_ZStlsISt11char_traitsIcEERSt13basic_ostreamIcT_ES5_PKc(%"class.std::basic_ostream"* dereferenceable(272) @_ZSt4cout, i8* getelementptr inbounds ([9 x i8], [9 x i8]* @.str, i64 0, i64 0))
          to label %invoke.cont14 unwind label %lpad, !dbg !1510

invoke.cont14:                                    ; preds = %for.end13
  %11 = load i32, i32* @accum, align 4, !dbg !1511
  %call17 = invoke dereferenceable(272) %"class.std::basic_ostream"* @_ZNSolsEi(%"class.std::basic_ostream"* %call15, i32 %11)
          to label %invoke.cont16 unwind label %lpad, !dbg !1512

invoke.cont16:                                    ; preds = %invoke.cont14
  %call19 = invoke dereferenceable(272) %"class.std::basic_ostream"* @_ZNSolsEPFRSoS_E(%"class.std::basic_ostream"* %call17, %"class.std::basic_ostream"* (%"class.std::basic_ostream"*)* @_ZSt4endlIcSt11char_traitsIcEERSt13basic_ostreamIT_T0_ES6_)
          to label %invoke.cont18 unwind label %lpad, !dbg !1513

invoke.cont18:                                    ; preds = %invoke.cont16
  store i32 0, i32* %retval, align 4, !dbg !1514
  call void @_ZNSt6vectorImSaImEED2Ev(%"class.std::vector"* %ths) #3, !dbg !1492
  %12 = load i32, i32* %retval, align 4, !dbg !1492
  ret i32 %12, !dbg !1492

eh.resume:                                        ; preds = %lpad
  %exn = load i8*, i8** %exn.slot, align 8, !dbg !1492
  %sel = load i32, i32* %ehselector.slot, align 4, !dbg !1492
  %lpad.val = insertvalue { i8*, i32 } undef, i8* %exn, 0, !dbg !1492
  %lpad.val20 = insertvalue { i8*, i32 } %lpad.val, i32 %sel, 1, !dbg !1492
  resume { i8*, i32 } %lpad.val20, !dbg !1492
}

; Function Attrs: nounwind readnone speculatable willreturn
declare void @llvm.dbg.declare(metadata, metadata, metadata) #5

; Function Attrs: noinline nounwind optnone uwtable
define linkonce_odr dso_local void @_ZNSt6vectorImSaImEEC2Ev(%"class.std::vector"* %this) unnamed_addr #6 comdat align 2 !dbg !1515 {
entry:
  %this.addr = alloca %"class.std::vector"*, align 8
  store %"class.std::vector"* %this, %"class.std::vector"** %this.addr, align 8
  call void @llvm.dbg.declare(metadata %"class.std::vector"** %this.addr, metadata !1516, metadata !DIExpression()), !dbg !1518
  %this1 = load %"class.std::vector"*, %"class.std::vector"** %this.addr, align 8
  %0 = bitcast %"class.std::vector"* %this1 to %"struct.std::_Vector_base"*, !dbg !1519
  call void @_ZNSt12_Vector_baseImSaImEEC2Ev(%"struct.std::_Vector_base"* %0) #3, !dbg !1520
  ret void, !dbg !1519
}

; Function Attrs: nounwind
declare !callback !1521 dso_local i32 @pthread_create(i64*, %union.pthread_attr_t*, i8* (i8*)*, i8*) #2

; Function Attrs: noinline nounwind optnone uwtable
define internal i8* @_ZL6squarePv(i8* %x) #6 !dbg !1523 {
entry:
  %x.addr = alloca i8*, align 8
  %k = alloca i64, align 8
  store i8* %x, i8** %x.addr, align 8
  call void @llvm.dbg.declare(metadata i8** %x.addr, metadata !1526, metadata !DIExpression()), !dbg !1527
  call void @llvm.dbg.declare(metadata i64* %k, metadata !1528, metadata !DIExpression()), !dbg !1529
  %0 = load i8*, i8** %x.addr, align 8, !dbg !1530
  %1 = ptrtoint i8* %0 to i64, !dbg !1531
  store i64 %1, i64* %k, align 8, !dbg !1529
  %2 = load i64, i64* %k, align 8, !dbg !1532
  %3 = load i64, i64* %k, align 8, !dbg !1533
  %mul = mul nsw i64 %2, %3, !dbg !1534
  %4 = load i32, i32* @accum, align 4, !dbg !1535
  %conv = sext i32 %4 to i64, !dbg !1535
  %add = add nsw i64 %conv, %mul, !dbg !1535
  %conv1 = trunc i64 %add to i32, !dbg !1535
  store i32 %conv1, i32* @accum, align 4, !dbg !1535
  ret i8* null, !dbg !1536
}

; Function Attrs: noinline optnone uwtable
define linkonce_odr dso_local void @_ZNSt6vectorImSaImEE9push_backERKm(%"class.std::vector"* %this, i64* dereferenceable(8) %__x) #7 comdat align 2 !dbg !1537 {
entry:
  %this.addr = alloca %"class.std::vector"*, align 8
  %__x.addr = alloca i64*, align 8
  %agg.tmp = alloca %"class.__gnu_cxx::__normal_iterator", align 8
  store %"class.std::vector"* %this, %"class.std::vector"** %this.addr, align 8
  call void @llvm.dbg.declare(metadata %"class.std::vector"** %this.addr, metadata !1538, metadata !DIExpression()), !dbg !1539
  store i64* %__x, i64** %__x.addr, align 8
  call void @llvm.dbg.declare(metadata i64** %__x.addr, metadata !1540, metadata !DIExpression()), !dbg !1541
  %this1 = load %"class.std::vector"*, %"class.std::vector"** %this.addr, align 8
  %0 = bitcast %"class.std::vector"* %this1 to %"struct.std::_Vector_base"*, !dbg !1542
  %_M_impl = getelementptr inbounds %"struct.std::_Vector_base", %"struct.std::_Vector_base"* %0, i32 0, i32 0, !dbg !1542
  %1 = bitcast %"struct.std::_Vector_base<unsigned long, std::allocator<unsigned long> >::_Vector_impl"* %_M_impl to %"struct.std::_Vector_base<unsigned long, std::allocator<unsigned long> >::_Vector_impl_data"*, !dbg !1544
  %_M_finish = getelementptr inbounds %"struct.std::_Vector_base<unsigned long, std::allocator<unsigned long> >::_Vector_impl_data", %"struct.std::_Vector_base<unsigned long, std::allocator<unsigned long> >::_Vector_impl_data"* %1, i32 0, i32 1, !dbg !1545
  %2 = load i64*, i64** %_M_finish, align 8, !dbg !1545
  %3 = bitcast %"class.std::vector"* %this1 to %"struct.std::_Vector_base"*, !dbg !1546
  %_M_impl2 = getelementptr inbounds %"struct.std::_Vector_base", %"struct.std::_Vector_base"* %3, i32 0, i32 0, !dbg !1546
  %4 = bitcast %"struct.std::_Vector_base<unsigned long, std::allocator<unsigned long> >::_Vector_impl"* %_M_impl2 to %"struct.std::_Vector_base<unsigned long, std::allocator<unsigned long> >::_Vector_impl_data"*, !dbg !1547
  %_M_end_of_storage = getelementptr inbounds %"struct.std::_Vector_base<unsigned long, std::allocator<unsigned long> >::_Vector_impl_data", %"struct.std::_Vector_base<unsigned long, std::allocator<unsigned long> >::_Vector_impl_data"* %4, i32 0, i32 2, !dbg !1548
  %5 = load i64*, i64** %_M_end_of_storage, align 8, !dbg !1548
  %cmp = icmp ne i64* %2, %5, !dbg !1549
  br i1 %cmp, label %if.then, label %if.else, !dbg !1550

if.then:                                          ; preds = %entry
  %6 = bitcast %"class.std::vector"* %this1 to %"struct.std::_Vector_base"*, !dbg !1551
  %_M_impl3 = getelementptr inbounds %"struct.std::_Vector_base", %"struct.std::_Vector_base"* %6, i32 0, i32 0, !dbg !1551
  %7 = bitcast %"struct.std::_Vector_base<unsigned long, std::allocator<unsigned long> >::_Vector_impl"* %_M_impl3 to %"class.std::allocator"*, !dbg !1553
  %8 = bitcast %"class.std::vector"* %this1 to %"struct.std::_Vector_base"*, !dbg !1554
  %_M_impl4 = getelementptr inbounds %"struct.std::_Vector_base", %"struct.std::_Vector_base"* %8, i32 0, i32 0, !dbg !1554
  %9 = bitcast %"struct.std::_Vector_base<unsigned long, std::allocator<unsigned long> >::_Vector_impl"* %_M_impl4 to %"struct.std::_Vector_base<unsigned long, std::allocator<unsigned long> >::_Vector_impl_data"*, !dbg !1555
  %_M_finish5 = getelementptr inbounds %"struct.std::_Vector_base<unsigned long, std::allocator<unsigned long> >::_Vector_impl_data", %"struct.std::_Vector_base<unsigned long, std::allocator<unsigned long> >::_Vector_impl_data"* %9, i32 0, i32 1, !dbg !1556
  %10 = load i64*, i64** %_M_finish5, align 8, !dbg !1556
  %11 = load i64*, i64** %__x.addr, align 8, !dbg !1557
  call void @_ZNSt16allocator_traitsISaImEE9constructImJRKmEEEvRS0_PT_DpOT0_(%"class.std::allocator"* dereferenceable(1) %7, i64* %10, i64* dereferenceable(8) %11) #3, !dbg !1558
  %12 = bitcast %"class.std::vector"* %this1 to %"struct.std::_Vector_base"*, !dbg !1559
  %_M_impl6 = getelementptr inbounds %"struct.std::_Vector_base", %"struct.std::_Vector_base"* %12, i32 0, i32 0, !dbg !1559
  %13 = bitcast %"struct.std::_Vector_base<unsigned long, std::allocator<unsigned long> >::_Vector_impl"* %_M_impl6 to %"struct.std::_Vector_base<unsigned long, std::allocator<unsigned long> >::_Vector_impl_data"*, !dbg !1560
  %_M_finish7 = getelementptr inbounds %"struct.std::_Vector_base<unsigned long, std::allocator<unsigned long> >::_Vector_impl_data", %"struct.std::_Vector_base<unsigned long, std::allocator<unsigned long> >::_Vector_impl_data"* %13, i32 0, i32 1, !dbg !1561
  %14 = load i64*, i64** %_M_finish7, align 8, !dbg !1562
  %incdec.ptr = getelementptr inbounds i64, i64* %14, i32 1, !dbg !1562
  store i64* %incdec.ptr, i64** %_M_finish7, align 8, !dbg !1562
  br label %if.end, !dbg !1563

if.else:                                          ; preds = %entry
  %call = call i64* @_ZNSt6vectorImSaImEE3endEv(%"class.std::vector"* %this1) #3, !dbg !1564
  %coerce.dive = getelementptr inbounds %"class.__gnu_cxx::__normal_iterator", %"class.__gnu_cxx::__normal_iterator"* %agg.tmp, i32 0, i32 0, !dbg !1564
  store i64* %call, i64** %coerce.dive, align 8, !dbg !1564
  %15 = load i64*, i64** %__x.addr, align 8, !dbg !1565
  %coerce.dive8 = getelementptr inbounds %"class.__gnu_cxx::__normal_iterator", %"class.__gnu_cxx::__normal_iterator"* %agg.tmp, i32 0, i32 0, !dbg !1566
  %16 = load i64*, i64** %coerce.dive8, align 8, !dbg !1566
  call void @_ZNSt6vectorImSaImEE17_M_realloc_insertIJRKmEEEvN9__gnu_cxx17__normal_iteratorIPmS1_EEDpOT_(%"class.std::vector"* %this1, i64* %16, i64* dereferenceable(8) %15), !dbg !1566
  br label %if.end

if.end:                                           ; preds = %if.else, %if.then
  ret void, !dbg !1567
}

declare dso_local i32 @__gxx_personality_v0(...)

; Function Attrs: noinline nounwind optnone uwtable
define linkonce_odr dso_local i64* @_ZNSt6vectorImSaImEE5beginEv(%"class.std::vector"* %this) #6 comdat align 2 !dbg !1568 {
entry:
  %retval = alloca %"class.__gnu_cxx::__normal_iterator", align 8
  %this.addr = alloca %"class.std::vector"*, align 8
  store %"class.std::vector"* %this, %"class.std::vector"** %this.addr, align 8
  call void @llvm.dbg.declare(metadata %"class.std::vector"** %this.addr, metadata !1569, metadata !DIExpression()), !dbg !1570
  %this1 = load %"class.std::vector"*, %"class.std::vector"** %this.addr, align 8
  %0 = bitcast %"class.std::vector"* %this1 to %"struct.std::_Vector_base"*, !dbg !1571
  %_M_impl = getelementptr inbounds %"struct.std::_Vector_base", %"struct.std::_Vector_base"* %0, i32 0, i32 0, !dbg !1571
  %1 = bitcast %"struct.std::_Vector_base<unsigned long, std::allocator<unsigned long> >::_Vector_impl"* %_M_impl to %"struct.std::_Vector_base<unsigned long, std::allocator<unsigned long> >::_Vector_impl_data"*, !dbg !1572
  %_M_start = getelementptr inbounds %"struct.std::_Vector_base<unsigned long, std::allocator<unsigned long> >::_Vector_impl_data", %"struct.std::_Vector_base<unsigned long, std::allocator<unsigned long> >::_Vector_impl_data"* %1, i32 0, i32 0, !dbg !1573
  call void @_ZN9__gnu_cxx17__normal_iteratorIPmSt6vectorImSaImEEEC2ERKS1_(%"class.__gnu_cxx::__normal_iterator"* %retval, i64** dereferenceable(8) %_M_start) #3, !dbg !1574
  %coerce.dive = getelementptr inbounds %"class.__gnu_cxx::__normal_iterator", %"class.__gnu_cxx::__normal_iterator"* %retval, i32 0, i32 0, !dbg !1575
  %2 = load i64*, i64** %coerce.dive, align 8, !dbg !1575
  ret i64* %2, !dbg !1575
}

; Function Attrs: noinline nounwind optnone uwtable
define linkonce_odr dso_local i64* @_ZNSt6vectorImSaImEE3endEv(%"class.std::vector"* %this) #6 comdat align 2 !dbg !1576 {
entry:
  %retval = alloca %"class.__gnu_cxx::__normal_iterator", align 8
  %this.addr = alloca %"class.std::vector"*, align 8
  store %"class.std::vector"* %this, %"class.std::vector"** %this.addr, align 8
  call void @llvm.dbg.declare(metadata %"class.std::vector"** %this.addr, metadata !1577, metadata !DIExpression()), !dbg !1578
  %this1 = load %"class.std::vector"*, %"class.std::vector"** %this.addr, align 8
  %0 = bitcast %"class.std::vector"* %this1 to %"struct.std::_Vector_base"*, !dbg !1579
  %_M_impl = getelementptr inbounds %"struct.std::_Vector_base", %"struct.std::_Vector_base"* %0, i32 0, i32 0, !dbg !1579
  %1 = bitcast %"struct.std::_Vector_base<unsigned long, std::allocator<unsigned long> >::_Vector_impl"* %_M_impl to %"struct.std::_Vector_base<unsigned long, std::allocator<unsigned long> >::_Vector_impl_data"*, !dbg !1580
  %_M_finish = getelementptr inbounds %"struct.std::_Vector_base<unsigned long, std::allocator<unsigned long> >::_Vector_impl_data", %"struct.std::_Vector_base<unsigned long, std::allocator<unsigned long> >::_Vector_impl_data"* %1, i32 0, i32 1, !dbg !1581
  call void @_ZN9__gnu_cxx17__normal_iteratorIPmSt6vectorImSaImEEEC2ERKS1_(%"class.__gnu_cxx::__normal_iterator"* %retval, i64** dereferenceable(8) %_M_finish) #3, !dbg !1582
  %coerce.dive = getelementptr inbounds %"class.__gnu_cxx::__normal_iterator", %"class.__gnu_cxx::__normal_iterator"* %retval, i32 0, i32 0, !dbg !1583
  %2 = load i64*, i64** %coerce.dive, align 8, !dbg !1583
  ret i64* %2, !dbg !1583
}

; Function Attrs: noinline nounwind optnone uwtable
define linkonce_odr dso_local zeroext i1 @_ZN9__gnu_cxxneIPmSt6vectorImSaImEEEEbRKNS_17__normal_iteratorIT_T0_EESA_(%"class.__gnu_cxx::__normal_iterator"* dereferenceable(8) %__lhs, %"class.__gnu_cxx::__normal_iterator"* dereferenceable(8) %__rhs) #6 comdat !dbg !1584 {
entry:
  %__lhs.addr = alloca %"class.__gnu_cxx::__normal_iterator"*, align 8
  %__rhs.addr = alloca %"class.__gnu_cxx::__normal_iterator"*, align 8
  store %"class.__gnu_cxx::__normal_iterator"* %__lhs, %"class.__gnu_cxx::__normal_iterator"** %__lhs.addr, align 8
  call void @llvm.dbg.declare(metadata %"class.__gnu_cxx::__normal_iterator"** %__lhs.addr, metadata !1588, metadata !DIExpression()), !dbg !1589
  store %"class.__gnu_cxx::__normal_iterator"* %__rhs, %"class.__gnu_cxx::__normal_iterator"** %__rhs.addr, align 8
  call void @llvm.dbg.declare(metadata %"class.__gnu_cxx::__normal_iterator"** %__rhs.addr, metadata !1590, metadata !DIExpression()), !dbg !1591
  %0 = load %"class.__gnu_cxx::__normal_iterator"*, %"class.__gnu_cxx::__normal_iterator"** %__lhs.addr, align 8, !dbg !1592
  %call = call dereferenceable(8) i64** @_ZNK9__gnu_cxx17__normal_iteratorIPmSt6vectorImSaImEEE4baseEv(%"class.__gnu_cxx::__normal_iterator"* %0) #3, !dbg !1593
  %1 = load i64*, i64** %call, align 8, !dbg !1593
  %2 = load %"class.__gnu_cxx::__normal_iterator"*, %"class.__gnu_cxx::__normal_iterator"** %__rhs.addr, align 8, !dbg !1594
  %call1 = call dereferenceable(8) i64** @_ZNK9__gnu_cxx17__normal_iteratorIPmSt6vectorImSaImEEE4baseEv(%"class.__gnu_cxx::__normal_iterator"* %2) #3, !dbg !1595
  %3 = load i64*, i64** %call1, align 8, !dbg !1595
  %cmp = icmp ne i64* %1, %3, !dbg !1596
  ret i1 %cmp, !dbg !1597
}

; Function Attrs: noinline nounwind optnone uwtable
define linkonce_odr dso_local dereferenceable(8) i64* @_ZNK9__gnu_cxx17__normal_iteratorIPmSt6vectorImSaImEEEdeEv(%"class.__gnu_cxx::__normal_iterator"* %this) #6 comdat align 2 !dbg !1598 {
entry:
  %this.addr = alloca %"class.__gnu_cxx::__normal_iterator"*, align 8
  store %"class.__gnu_cxx::__normal_iterator"* %this, %"class.__gnu_cxx::__normal_iterator"** %this.addr, align 8
  call void @llvm.dbg.declare(metadata %"class.__gnu_cxx::__normal_iterator"** %this.addr, metadata !1599, metadata !DIExpression()), !dbg !1601
  %this1 = load %"class.__gnu_cxx::__normal_iterator"*, %"class.__gnu_cxx::__normal_iterator"** %this.addr, align 8
  %_M_current = getelementptr inbounds %"class.__gnu_cxx::__normal_iterator", %"class.__gnu_cxx::__normal_iterator"* %this1, i32 0, i32 0, !dbg !1602
  %0 = load i64*, i64** %_M_current, align 8, !dbg !1602
  ret i64* %0, !dbg !1603
}

declare dso_local i32 @pthread_join(i64, i8**) #1

; Function Attrs: noinline nounwind optnone uwtable
define linkonce_odr dso_local dereferenceable(8) %"class.__gnu_cxx::__normal_iterator"* @_ZN9__gnu_cxx17__normal_iteratorIPmSt6vectorImSaImEEEppEv(%"class.__gnu_cxx::__normal_iterator"* %this) #6 comdat align 2 !dbg !1604 {
entry:
  %this.addr = alloca %"class.__gnu_cxx::__normal_iterator"*, align 8
  store %"class.__gnu_cxx::__normal_iterator"* %this, %"class.__gnu_cxx::__normal_iterator"** %this.addr, align 8
  call void @llvm.dbg.declare(metadata %"class.__gnu_cxx::__normal_iterator"** %this.addr, metadata !1605, metadata !DIExpression()), !dbg !1607
  %this1 = load %"class.__gnu_cxx::__normal_iterator"*, %"class.__gnu_cxx::__normal_iterator"** %this.addr, align 8
  %_M_current = getelementptr inbounds %"class.__gnu_cxx::__normal_iterator", %"class.__gnu_cxx::__normal_iterator"* %this1, i32 0, i32 0, !dbg !1608
  %0 = load i64*, i64** %_M_current, align 8, !dbg !1609
  %incdec.ptr = getelementptr inbounds i64, i64* %0, i32 1, !dbg !1609
  store i64* %incdec.ptr, i64** %_M_current, align 8, !dbg !1609
  ret %"class.__gnu_cxx::__normal_iterator"* %this1, !dbg !1610
}

declare dso_local dereferenceable(272) %"class.std::basic_ostream"* @_ZStlsISt11char_traitsIcEERSt13basic_ostreamIcT_ES5_PKc(%"class.std::basic_ostream"* dereferenceable(272), i8*) #1

declare dso_local dereferenceable(272) %"class.std::basic_ostream"* @_ZNSolsEi(%"class.std::basic_ostream"*, i32) #1

declare dso_local dereferenceable(272) %"class.std::basic_ostream"* @_ZNSolsEPFRSoS_E(%"class.std::basic_ostream"*, %"class.std::basic_ostream"* (%"class.std::basic_ostream"*)*) #1

declare dso_local dereferenceable(272) %"class.std::basic_ostream"* @_ZSt4endlIcSt11char_traitsIcEERSt13basic_ostreamIT_T0_ES6_(%"class.std::basic_ostream"* dereferenceable(272)) #1

; Function Attrs: noinline nounwind optnone uwtable
define linkonce_odr dso_local void @_ZNSt6vectorImSaImEED2Ev(%"class.std::vector"* %this) unnamed_addr #6 comdat align 2 personality i8* bitcast (i32 (...)* @__gxx_personality_v0 to i8*) !dbg !1611 {
entry:
  %this.addr = alloca %"class.std::vector"*, align 8
  %exn.slot = alloca i8*
  %ehselector.slot = alloca i32
  store %"class.std::vector"* %this, %"class.std::vector"** %this.addr, align 8
  call void @llvm.dbg.declare(metadata %"class.std::vector"** %this.addr, metadata !1612, metadata !DIExpression()), !dbg !1613
  %this1 = load %"class.std::vector"*, %"class.std::vector"** %this.addr, align 8
  %0 = bitcast %"class.std::vector"* %this1 to %"struct.std::_Vector_base"*, !dbg !1614
  %_M_impl = getelementptr inbounds %"struct.std::_Vector_base", %"struct.std::_Vector_base"* %0, i32 0, i32 0, !dbg !1614
  %1 = bitcast %"struct.std::_Vector_base<unsigned long, std::allocator<unsigned long> >::_Vector_impl"* %_M_impl to %"struct.std::_Vector_base<unsigned long, std::allocator<unsigned long> >::_Vector_impl_data"*, !dbg !1616
  %_M_start = getelementptr inbounds %"struct.std::_Vector_base<unsigned long, std::allocator<unsigned long> >::_Vector_impl_data", %"struct.std::_Vector_base<unsigned long, std::allocator<unsigned long> >::_Vector_impl_data"* %1, i32 0, i32 0, !dbg !1617
  %2 = load i64*, i64** %_M_start, align 8, !dbg !1617
  %3 = bitcast %"class.std::vector"* %this1 to %"struct.std::_Vector_base"*, !dbg !1618
  %_M_impl2 = getelementptr inbounds %"struct.std::_Vector_base", %"struct.std::_Vector_base"* %3, i32 0, i32 0, !dbg !1618
  %4 = bitcast %"struct.std::_Vector_base<unsigned long, std::allocator<unsigned long> >::_Vector_impl"* %_M_impl2 to %"struct.std::_Vector_base<unsigned long, std::allocator<unsigned long> >::_Vector_impl_data"*, !dbg !1619
  %_M_finish = getelementptr inbounds %"struct.std::_Vector_base<unsigned long, std::allocator<unsigned long> >::_Vector_impl_data", %"struct.std::_Vector_base<unsigned long, std::allocator<unsigned long> >::_Vector_impl_data"* %4, i32 0, i32 1, !dbg !1620
  %5 = load i64*, i64** %_M_finish, align 8, !dbg !1620
  %6 = bitcast %"class.std::vector"* %this1 to %"struct.std::_Vector_base"*, !dbg !1621
  %call = call dereferenceable(1) %"class.std::allocator"* @_ZNSt12_Vector_baseImSaImEE19_M_get_Tp_allocatorEv(%"struct.std::_Vector_base"* %6) #3, !dbg !1621
  invoke void @_ZSt8_DestroyIPmmEvT_S1_RSaIT0_E(i64* %2, i64* %5, %"class.std::allocator"* dereferenceable(1) %call)
          to label %invoke.cont unwind label %lpad, !dbg !1622

invoke.cont:                                      ; preds = %entry
  %7 = bitcast %"class.std::vector"* %this1 to %"struct.std::_Vector_base"*, !dbg !1623
  call void @_ZNSt12_Vector_baseImSaImEED2Ev(%"struct.std::_Vector_base"* %7) #3, !dbg !1623
  ret void, !dbg !1624

lpad:                                             ; preds = %entry
  %8 = landingpad { i8*, i32 }
          catch i8* null, !dbg !1623
  %9 = extractvalue { i8*, i32 } %8, 0, !dbg !1623
  store i8* %9, i8** %exn.slot, align 8, !dbg !1623
  %10 = extractvalue { i8*, i32 } %8, 1, !dbg !1623
  store i32 %10, i32* %ehselector.slot, align 4, !dbg !1623
  %11 = bitcast %"class.std::vector"* %this1 to %"struct.std::_Vector_base"*, !dbg !1623
  call void @_ZNSt12_Vector_baseImSaImEED2Ev(%"struct.std::_Vector_base"* %11) #3, !dbg !1623
  br label %terminate.handler, !dbg !1623

terminate.handler:                                ; preds = %lpad
  %exn = load i8*, i8** %exn.slot, align 8, !dbg !1623
  call void @__clang_call_terminate(i8* %exn) #13, !dbg !1623
  unreachable, !dbg !1623
}

; Function Attrs: noinline nounwind optnone uwtable
define linkonce_odr dso_local void @_ZNSt12_Vector_baseImSaImEEC2Ev(%"struct.std::_Vector_base"* %this) unnamed_addr #6 comdat align 2 !dbg !1625 {
entry:
  %this.addr = alloca %"struct.std::_Vector_base"*, align 8
  store %"struct.std::_Vector_base"* %this, %"struct.std::_Vector_base"** %this.addr, align 8
  call void @llvm.dbg.declare(metadata %"struct.std::_Vector_base"** %this.addr, metadata !1626, metadata !DIExpression()), !dbg !1628
  %this1 = load %"struct.std::_Vector_base"*, %"struct.std::_Vector_base"** %this.addr, align 8
  %_M_impl = getelementptr inbounds %"struct.std::_Vector_base", %"struct.std::_Vector_base"* %this1, i32 0, i32 0, !dbg !1629
  call void @_ZNSt12_Vector_baseImSaImEE12_Vector_implC2Ev(%"struct.std::_Vector_base<unsigned long, std::allocator<unsigned long> >::_Vector_impl"* %_M_impl) #3, !dbg !1629
  ret void, !dbg !1630
}

; Function Attrs: noinline nounwind optnone uwtable
define linkonce_odr dso_local void @_ZNSt12_Vector_baseImSaImEE12_Vector_implC2Ev(%"struct.std::_Vector_base<unsigned long, std::allocator<unsigned long> >::_Vector_impl"* %this) unnamed_addr #6 comdat align 2 !dbg !1631 {
entry:
  %this.addr = alloca %"struct.std::_Vector_base<unsigned long, std::allocator<unsigned long> >::_Vector_impl"*, align 8
  store %"struct.std::_Vector_base<unsigned long, std::allocator<unsigned long> >::_Vector_impl"* %this, %"struct.std::_Vector_base<unsigned long, std::allocator<unsigned long> >::_Vector_impl"** %this.addr, align 8
  call void @llvm.dbg.declare(metadata %"struct.std::_Vector_base<unsigned long, std::allocator<unsigned long> >::_Vector_impl"** %this.addr, metadata !1632, metadata !DIExpression()), !dbg !1634
  %this1 = load %"struct.std::_Vector_base<unsigned long, std::allocator<unsigned long> >::_Vector_impl"*, %"struct.std::_Vector_base<unsigned long, std::allocator<unsigned long> >::_Vector_impl"** %this.addr, align 8
  %0 = bitcast %"struct.std::_Vector_base<unsigned long, std::allocator<unsigned long> >::_Vector_impl"* %this1 to %"class.std::allocator"*, !dbg !1635
  call void @_ZNSaImEC2Ev(%"class.std::allocator"* %0) #3, !dbg !1636
  %1 = bitcast %"struct.std::_Vector_base<unsigned long, std::allocator<unsigned long> >::_Vector_impl"* %this1 to %"struct.std::_Vector_base<unsigned long, std::allocator<unsigned long> >::_Vector_impl_data"*, !dbg !1635
  call void @_ZNSt12_Vector_baseImSaImEE17_Vector_impl_dataC2Ev(%"struct.std::_Vector_base<unsigned long, std::allocator<unsigned long> >::_Vector_impl_data"* %1) #3, !dbg !1637
  ret void, !dbg !1638
}

; Function Attrs: noinline nounwind optnone uwtable
define linkonce_odr dso_local void @_ZNSaImEC2Ev(%"class.std::allocator"* %this) unnamed_addr #6 comdat align 2 !dbg !1639 {
entry:
  %this.addr = alloca %"class.std::allocator"*, align 8
  store %"class.std::allocator"* %this, %"class.std::allocator"** %this.addr, align 8
  call void @llvm.dbg.declare(metadata %"class.std::allocator"** %this.addr, metadata !1640, metadata !DIExpression()), !dbg !1642
  %this1 = load %"class.std::allocator"*, %"class.std::allocator"** %this.addr, align 8
  %0 = bitcast %"class.std::allocator"* %this1 to %"class.__gnu_cxx::new_allocator"*, !dbg !1643
  call void @_ZN9__gnu_cxx13new_allocatorImEC2Ev(%"class.__gnu_cxx::new_allocator"* %0) #3, !dbg !1644
  ret void, !dbg !1645
}

; Function Attrs: noinline nounwind optnone uwtable
define linkonce_odr dso_local void @_ZNSt12_Vector_baseImSaImEE17_Vector_impl_dataC2Ev(%"struct.std::_Vector_base<unsigned long, std::allocator<unsigned long> >::_Vector_impl_data"* %this) unnamed_addr #6 comdat align 2 !dbg !1646 {
entry:
  %this.addr = alloca %"struct.std::_Vector_base<unsigned long, std::allocator<unsigned long> >::_Vector_impl_data"*, align 8
  store %"struct.std::_Vector_base<unsigned long, std::allocator<unsigned long> >::_Vector_impl_data"* %this, %"struct.std::_Vector_base<unsigned long, std::allocator<unsigned long> >::_Vector_impl_data"** %this.addr, align 8
  call void @llvm.dbg.declare(metadata %"struct.std::_Vector_base<unsigned long, std::allocator<unsigned long> >::_Vector_impl_data"** %this.addr, metadata !1647, metadata !DIExpression()), !dbg !1649
  %this1 = load %"struct.std::_Vector_base<unsigned long, std::allocator<unsigned long> >::_Vector_impl_data"*, %"struct.std::_Vector_base<unsigned long, std::allocator<unsigned long> >::_Vector_impl_data"** %this.addr, align 8
  %_M_start = getelementptr inbounds %"struct.std::_Vector_base<unsigned long, std::allocator<unsigned long> >::_Vector_impl_data", %"struct.std::_Vector_base<unsigned long, std::allocator<unsigned long> >::_Vector_impl_data"* %this1, i32 0, i32 0, !dbg !1650
  store i64* null, i64** %_M_start, align 8, !dbg !1650
  %_M_finish = getelementptr inbounds %"struct.std::_Vector_base<unsigned long, std::allocator<unsigned long> >::_Vector_impl_data", %"struct.std::_Vector_base<unsigned long, std::allocator<unsigned long> >::_Vector_impl_data"* %this1, i32 0, i32 1, !dbg !1651
  store i64* null, i64** %_M_finish, align 8, !dbg !1651
  %_M_end_of_storage = getelementptr inbounds %"struct.std::_Vector_base<unsigned long, std::allocator<unsigned long> >::_Vector_impl_data", %"struct.std::_Vector_base<unsigned long, std::allocator<unsigned long> >::_Vector_impl_data"* %this1, i32 0, i32 2, !dbg !1652
  store i64* null, i64** %_M_end_of_storage, align 8, !dbg !1652
  ret void, !dbg !1653
}

; Function Attrs: noinline nounwind optnone uwtable
define linkonce_odr dso_local void @_ZN9__gnu_cxx13new_allocatorImEC2Ev(%"class.__gnu_cxx::new_allocator"* %this) unnamed_addr #6 comdat align 2 !dbg !1654 {
entry:
  %this.addr = alloca %"class.__gnu_cxx::new_allocator"*, align 8
  store %"class.__gnu_cxx::new_allocator"* %this, %"class.__gnu_cxx::new_allocator"** %this.addr, align 8
  call void @llvm.dbg.declare(metadata %"class.__gnu_cxx::new_allocator"** %this.addr, metadata !1655, metadata !DIExpression()), !dbg !1657
  %this1 = load %"class.__gnu_cxx::new_allocator"*, %"class.__gnu_cxx::new_allocator"** %this.addr, align 8
  ret void, !dbg !1658
}

; Function Attrs: noinline optnone uwtable
define linkonce_odr dso_local void @_ZSt8_DestroyIPmmEvT_S1_RSaIT0_E(i64* %__first, i64* %__last, %"class.std::allocator"* dereferenceable(1) %0) #7 comdat !dbg !1659 {
entry:
  %__first.addr = alloca i64*, align 8
  %__last.addr = alloca i64*, align 8
  %.addr = alloca %"class.std::allocator"*, align 8
  store i64* %__first, i64** %__first.addr, align 8
  call void @llvm.dbg.declare(metadata i64** %__first.addr, metadata !1664, metadata !DIExpression()), !dbg !1665
  store i64* %__last, i64** %__last.addr, align 8
  call void @llvm.dbg.declare(metadata i64** %__last.addr, metadata !1666, metadata !DIExpression()), !dbg !1667
  store %"class.std::allocator"* %0, %"class.std::allocator"** %.addr, align 8
  call void @llvm.dbg.declare(metadata %"class.std::allocator"** %.addr, metadata !1668, metadata !DIExpression()), !dbg !1669
  %1 = load i64*, i64** %__first.addr, align 8, !dbg !1670
  %2 = load i64*, i64** %__last.addr, align 8, !dbg !1671
  call void @_ZSt8_DestroyIPmEvT_S1_(i64* %1, i64* %2), !dbg !1672
  ret void, !dbg !1673
}

; Function Attrs: noinline nounwind optnone uwtable
define linkonce_odr dso_local dereferenceable(1) %"class.std::allocator"* @_ZNSt12_Vector_baseImSaImEE19_M_get_Tp_allocatorEv(%"struct.std::_Vector_base"* %this) #6 comdat align 2 !dbg !1674 {
entry:
  %this.addr = alloca %"struct.std::_Vector_base"*, align 8
  store %"struct.std::_Vector_base"* %this, %"struct.std::_Vector_base"** %this.addr, align 8
  call void @llvm.dbg.declare(metadata %"struct.std::_Vector_base"** %this.addr, metadata !1675, metadata !DIExpression()), !dbg !1676
  %this1 = load %"struct.std::_Vector_base"*, %"struct.std::_Vector_base"** %this.addr, align 8
  %_M_impl = getelementptr inbounds %"struct.std::_Vector_base", %"struct.std::_Vector_base"* %this1, i32 0, i32 0, !dbg !1677
  %0 = bitcast %"struct.std::_Vector_base<unsigned long, std::allocator<unsigned long> >::_Vector_impl"* %_M_impl to %"class.std::allocator"*, !dbg !1678
  ret %"class.std::allocator"* %0, !dbg !1679
}

; Function Attrs: noinline nounwind optnone uwtable
define linkonce_odr dso_local void @_ZNSt12_Vector_baseImSaImEED2Ev(%"struct.std::_Vector_base"* %this) unnamed_addr #6 comdat align 2 personality i8* bitcast (i32 (...)* @__gxx_personality_v0 to i8*) !dbg !1680 {
entry:
  %this.addr = alloca %"struct.std::_Vector_base"*, align 8
  %exn.slot = alloca i8*
  %ehselector.slot = alloca i32
  store %"struct.std::_Vector_base"* %this, %"struct.std::_Vector_base"** %this.addr, align 8
  call void @llvm.dbg.declare(metadata %"struct.std::_Vector_base"** %this.addr, metadata !1681, metadata !DIExpression()), !dbg !1682
  %this1 = load %"struct.std::_Vector_base"*, %"struct.std::_Vector_base"** %this.addr, align 8
  %_M_impl = getelementptr inbounds %"struct.std::_Vector_base", %"struct.std::_Vector_base"* %this1, i32 0, i32 0, !dbg !1683
  %0 = bitcast %"struct.std::_Vector_base<unsigned long, std::allocator<unsigned long> >::_Vector_impl"* %_M_impl to %"struct.std::_Vector_base<unsigned long, std::allocator<unsigned long> >::_Vector_impl_data"*, !dbg !1683
  %_M_start = getelementptr inbounds %"struct.std::_Vector_base<unsigned long, std::allocator<unsigned long> >::_Vector_impl_data", %"struct.std::_Vector_base<unsigned long, std::allocator<unsigned long> >::_Vector_impl_data"* %0, i32 0, i32 0, !dbg !1685
  %1 = load i64*, i64** %_M_start, align 8, !dbg !1685
  %_M_impl2 = getelementptr inbounds %"struct.std::_Vector_base", %"struct.std::_Vector_base"* %this1, i32 0, i32 0, !dbg !1686
  %2 = bitcast %"struct.std::_Vector_base<unsigned long, std::allocator<unsigned long> >::_Vector_impl"* %_M_impl2 to %"struct.std::_Vector_base<unsigned long, std::allocator<unsigned long> >::_Vector_impl_data"*, !dbg !1686
  %_M_end_of_storage = getelementptr inbounds %"struct.std::_Vector_base<unsigned long, std::allocator<unsigned long> >::_Vector_impl_data", %"struct.std::_Vector_base<unsigned long, std::allocator<unsigned long> >::_Vector_impl_data"* %2, i32 0, i32 2, !dbg !1687
  %3 = load i64*, i64** %_M_end_of_storage, align 8, !dbg !1687
  %_M_impl3 = getelementptr inbounds %"struct.std::_Vector_base", %"struct.std::_Vector_base"* %this1, i32 0, i32 0, !dbg !1688
  %4 = bitcast %"struct.std::_Vector_base<unsigned long, std::allocator<unsigned long> >::_Vector_impl"* %_M_impl3 to %"struct.std::_Vector_base<unsigned long, std::allocator<unsigned long> >::_Vector_impl_data"*, !dbg !1688
  %_M_start4 = getelementptr inbounds %"struct.std::_Vector_base<unsigned long, std::allocator<unsigned long> >::_Vector_impl_data", %"struct.std::_Vector_base<unsigned long, std::allocator<unsigned long> >::_Vector_impl_data"* %4, i32 0, i32 0, !dbg !1689
  %5 = load i64*, i64** %_M_start4, align 8, !dbg !1689
  %sub.ptr.lhs.cast = ptrtoint i64* %3 to i64, !dbg !1690
  %sub.ptr.rhs.cast = ptrtoint i64* %5 to i64, !dbg !1690
  %sub.ptr.sub = sub i64 %sub.ptr.lhs.cast, %sub.ptr.rhs.cast, !dbg !1690
  %sub.ptr.div = sdiv exact i64 %sub.ptr.sub, 8, !dbg !1690
  invoke void @_ZNSt12_Vector_baseImSaImEE13_M_deallocateEPmm(%"struct.std::_Vector_base"* %this1, i64* %1, i64 %sub.ptr.div)
          to label %invoke.cont unwind label %lpad, !dbg !1691

invoke.cont:                                      ; preds = %entry
  %_M_impl5 = getelementptr inbounds %"struct.std::_Vector_base", %"struct.std::_Vector_base"* %this1, i32 0, i32 0, !dbg !1692
  call void @_ZNSt12_Vector_baseImSaImEE12_Vector_implD2Ev(%"struct.std::_Vector_base<unsigned long, std::allocator<unsigned long> >::_Vector_impl"* %_M_impl5) #3, !dbg !1692
  ret void, !dbg !1693

lpad:                                             ; preds = %entry
  %6 = landingpad { i8*, i32 }
          catch i8* null, !dbg !1692
  %7 = extractvalue { i8*, i32 } %6, 0, !dbg !1692
  store i8* %7, i8** %exn.slot, align 8, !dbg !1692
  %8 = extractvalue { i8*, i32 } %6, 1, !dbg !1692
  store i32 %8, i32* %ehselector.slot, align 4, !dbg !1692
  %_M_impl6 = getelementptr inbounds %"struct.std::_Vector_base", %"struct.std::_Vector_base"* %this1, i32 0, i32 0, !dbg !1692
  call void @_ZNSt12_Vector_baseImSaImEE12_Vector_implD2Ev(%"struct.std::_Vector_base<unsigned long, std::allocator<unsigned long> >::_Vector_impl"* %_M_impl6) #3, !dbg !1692
  br label %terminate.handler, !dbg !1692

terminate.handler:                                ; preds = %lpad
  %exn = load i8*, i8** %exn.slot, align 8, !dbg !1692
  call void @__clang_call_terminate(i8* %exn) #13, !dbg !1692
  unreachable, !dbg !1692
}

; Function Attrs: noinline noreturn nounwind
define linkonce_odr hidden void @__clang_call_terminate(i8* %0) #8 comdat {
  %2 = call i8* @__cxa_begin_catch(i8* %0) #3
  call void @_ZSt9terminatev() #13
  unreachable
}

declare dso_local i8* @__cxa_begin_catch(i8*)

declare dso_local void @_ZSt9terminatev()

; Function Attrs: noinline optnone uwtable
define linkonce_odr dso_local void @_ZSt8_DestroyIPmEvT_S1_(i64* %__first, i64* %__last) #7 comdat !dbg !1694 {
entry:
  %__first.addr = alloca i64*, align 8
  %__last.addr = alloca i64*, align 8
  store i64* %__first, i64** %__first.addr, align 8
  call void @llvm.dbg.declare(metadata i64** %__first.addr, metadata !1699, metadata !DIExpression()), !dbg !1700
  store i64* %__last, i64** %__last.addr, align 8
  call void @llvm.dbg.declare(metadata i64** %__last.addr, metadata !1701, metadata !DIExpression()), !dbg !1702
  %0 = load i64*, i64** %__first.addr, align 8, !dbg !1703
  %1 = load i64*, i64** %__last.addr, align 8, !dbg !1704
  call void @_ZNSt12_Destroy_auxILb1EE9__destroyIPmEEvT_S3_(i64* %0, i64* %1), !dbg !1705
  ret void, !dbg !1706
}

; Function Attrs: noinline nounwind optnone uwtable
define linkonce_odr dso_local void @_ZNSt12_Destroy_auxILb1EE9__destroyIPmEEvT_S3_(i64* %0, i64* %1) #6 comdat align 2 !dbg !1707 {
entry:
  %.addr = alloca i64*, align 8
  %.addr1 = alloca i64*, align 8
  store i64* %0, i64** %.addr, align 8
  call void @llvm.dbg.declare(metadata i64** %.addr, metadata !1712, metadata !DIExpression()), !dbg !1713
  store i64* %1, i64** %.addr1, align 8
  call void @llvm.dbg.declare(metadata i64** %.addr1, metadata !1714, metadata !DIExpression()), !dbg !1715
  ret void, !dbg !1716
}

; Function Attrs: noinline optnone uwtable
define linkonce_odr dso_local void @_ZNSt12_Vector_baseImSaImEE13_M_deallocateEPmm(%"struct.std::_Vector_base"* %this, i64* %__p, i64 %__n) #7 comdat align 2 !dbg !1717 {
entry:
  %this.addr = alloca %"struct.std::_Vector_base"*, align 8
  %__p.addr = alloca i64*, align 8
  %__n.addr = alloca i64, align 8
  store %"struct.std::_Vector_base"* %this, %"struct.std::_Vector_base"** %this.addr, align 8
  call void @llvm.dbg.declare(metadata %"struct.std::_Vector_base"** %this.addr, metadata !1718, metadata !DIExpression()), !dbg !1719
  store i64* %__p, i64** %__p.addr, align 8
  call void @llvm.dbg.declare(metadata i64** %__p.addr, metadata !1720, metadata !DIExpression()), !dbg !1721
  store i64 %__n, i64* %__n.addr, align 8
  call void @llvm.dbg.declare(metadata i64* %__n.addr, metadata !1722, metadata !DIExpression()), !dbg !1723
  %this1 = load %"struct.std::_Vector_base"*, %"struct.std::_Vector_base"** %this.addr, align 8
  %0 = load i64*, i64** %__p.addr, align 8, !dbg !1724
  %tobool = icmp ne i64* %0, null, !dbg !1724
  br i1 %tobool, label %if.then, label %if.end, !dbg !1726

if.then:                                          ; preds = %entry
  %_M_impl = getelementptr inbounds %"struct.std::_Vector_base", %"struct.std::_Vector_base"* %this1, i32 0, i32 0, !dbg !1727
  %1 = bitcast %"struct.std::_Vector_base<unsigned long, std::allocator<unsigned long> >::_Vector_impl"* %_M_impl to %"class.std::allocator"*, !dbg !1727
  %2 = load i64*, i64** %__p.addr, align 8, !dbg !1728
  %3 = load i64, i64* %__n.addr, align 8, !dbg !1729
  call void @_ZNSt16allocator_traitsISaImEE10deallocateERS0_Pmm(%"class.std::allocator"* dereferenceable(1) %1, i64* %2, i64 %3), !dbg !1730
  br label %if.end, !dbg !1730

if.end:                                           ; preds = %if.then, %entry
  ret void, !dbg !1731
}

; Function Attrs: noinline nounwind optnone uwtable
define linkonce_odr dso_local void @_ZNSt12_Vector_baseImSaImEE12_Vector_implD2Ev(%"struct.std::_Vector_base<unsigned long, std::allocator<unsigned long> >::_Vector_impl"* %this) unnamed_addr #6 comdat align 2 !dbg !1732 {
entry:
  %this.addr = alloca %"struct.std::_Vector_base<unsigned long, std::allocator<unsigned long> >::_Vector_impl"*, align 8
  store %"struct.std::_Vector_base<unsigned long, std::allocator<unsigned long> >::_Vector_impl"* %this, %"struct.std::_Vector_base<unsigned long, std::allocator<unsigned long> >::_Vector_impl"** %this.addr, align 8
  call void @llvm.dbg.declare(metadata %"struct.std::_Vector_base<unsigned long, std::allocator<unsigned long> >::_Vector_impl"** %this.addr, metadata !1734, metadata !DIExpression()), !dbg !1735
  %this1 = load %"struct.std::_Vector_base<unsigned long, std::allocator<unsigned long> >::_Vector_impl"*, %"struct.std::_Vector_base<unsigned long, std::allocator<unsigned long> >::_Vector_impl"** %this.addr, align 8
  %0 = bitcast %"struct.std::_Vector_base<unsigned long, std::allocator<unsigned long> >::_Vector_impl"* %this1 to %"class.std::allocator"*, !dbg !1736
  call void @_ZNSaImED2Ev(%"class.std::allocator"* %0) #3, !dbg !1736
  ret void, !dbg !1738
}

; Function Attrs: noinline optnone uwtable
define linkonce_odr dso_local void @_ZNSt16allocator_traitsISaImEE10deallocateERS0_Pmm(%"class.std::allocator"* dereferenceable(1) %__a, i64* %__p, i64 %__n) #7 comdat align 2 !dbg !1739 {
entry:
  %__a.addr = alloca %"class.std::allocator"*, align 8
  %__p.addr = alloca i64*, align 8
  %__n.addr = alloca i64, align 8
  store %"class.std::allocator"* %__a, %"class.std::allocator"** %__a.addr, align 8
  call void @llvm.dbg.declare(metadata %"class.std::allocator"** %__a.addr, metadata !1740, metadata !DIExpression()), !dbg !1741
  store i64* %__p, i64** %__p.addr, align 8
  call void @llvm.dbg.declare(metadata i64** %__p.addr, metadata !1742, metadata !DIExpression()), !dbg !1743
  store i64 %__n, i64* %__n.addr, align 8
  call void @llvm.dbg.declare(metadata i64* %__n.addr, metadata !1744, metadata !DIExpression()), !dbg !1745
  %0 = load %"class.std::allocator"*, %"class.std::allocator"** %__a.addr, align 8, !dbg !1746
  %1 = bitcast %"class.std::allocator"* %0 to %"class.__gnu_cxx::new_allocator"*, !dbg !1746
  %2 = load i64*, i64** %__p.addr, align 8, !dbg !1747
  %3 = load i64, i64* %__n.addr, align 8, !dbg !1748
  call void @_ZN9__gnu_cxx13new_allocatorImE10deallocateEPmm(%"class.__gnu_cxx::new_allocator"* %1, i64* %2, i64 %3), !dbg !1749
  ret void, !dbg !1750
}

; Function Attrs: noinline nounwind optnone uwtable
define linkonce_odr dso_local void @_ZN9__gnu_cxx13new_allocatorImE10deallocateEPmm(%"class.__gnu_cxx::new_allocator"* %this, i64* %__p, i64 %__t) #6 comdat align 2 !dbg !1751 {
entry:
  %this.addr = alloca %"class.__gnu_cxx::new_allocator"*, align 8
  %__p.addr = alloca i64*, align 8
  %__t.addr = alloca i64, align 8
  store %"class.__gnu_cxx::new_allocator"* %this, %"class.__gnu_cxx::new_allocator"** %this.addr, align 8
  call void @llvm.dbg.declare(metadata %"class.__gnu_cxx::new_allocator"** %this.addr, metadata !1752, metadata !DIExpression()), !dbg !1753
  store i64* %__p, i64** %__p.addr, align 8
  call void @llvm.dbg.declare(metadata i64** %__p.addr, metadata !1754, metadata !DIExpression()), !dbg !1755
  store i64 %__t, i64* %__t.addr, align 8
  call void @llvm.dbg.declare(metadata i64* %__t.addr, metadata !1756, metadata !DIExpression()), !dbg !1757
  %this1 = load %"class.__gnu_cxx::new_allocator"*, %"class.__gnu_cxx::new_allocator"** %this.addr, align 8
  %0 = load i64*, i64** %__p.addr, align 8, !dbg !1758
  %1 = bitcast i64* %0 to i8*, !dbg !1758
  call void @_ZdlPv(i8* %1) #3, !dbg !1759
  ret void, !dbg !1760
}

; Function Attrs: nobuiltin nounwind
declare dso_local void @_ZdlPv(i8*) #9

; Function Attrs: noinline nounwind optnone uwtable
define linkonce_odr dso_local void @_ZNSaImED2Ev(%"class.std::allocator"* %this) unnamed_addr #6 comdat align 2 !dbg !1761 {
entry:
  %this.addr = alloca %"class.std::allocator"*, align 8
  store %"class.std::allocator"* %this, %"class.std::allocator"** %this.addr, align 8
  call void @llvm.dbg.declare(metadata %"class.std::allocator"** %this.addr, metadata !1762, metadata !DIExpression()), !dbg !1763
  %this1 = load %"class.std::allocator"*, %"class.std::allocator"** %this.addr, align 8
  %0 = bitcast %"class.std::allocator"* %this1 to %"class.__gnu_cxx::new_allocator"*, !dbg !1764
  call void @_ZN9__gnu_cxx13new_allocatorImED2Ev(%"class.__gnu_cxx::new_allocator"* %0) #3, !dbg !1764
  ret void, !dbg !1766
}

; Function Attrs: noinline nounwind optnone uwtable
define linkonce_odr dso_local void @_ZN9__gnu_cxx13new_allocatorImED2Ev(%"class.__gnu_cxx::new_allocator"* %this) unnamed_addr #6 comdat align 2 !dbg !1767 {
entry:
  %this.addr = alloca %"class.__gnu_cxx::new_allocator"*, align 8
  store %"class.__gnu_cxx::new_allocator"* %this, %"class.__gnu_cxx::new_allocator"** %this.addr, align 8
  call void @llvm.dbg.declare(metadata %"class.__gnu_cxx::new_allocator"** %this.addr, metadata !1768, metadata !DIExpression()), !dbg !1769
  %this1 = load %"class.__gnu_cxx::new_allocator"*, %"class.__gnu_cxx::new_allocator"** %this.addr, align 8
  ret void, !dbg !1770
}

; Function Attrs: noinline nounwind optnone uwtable
define linkonce_odr dso_local void @_ZNSt16allocator_traitsISaImEE9constructImJRKmEEEvRS0_PT_DpOT0_(%"class.std::allocator"* dereferenceable(1) %__a, i64* %__p, i64* dereferenceable(8) %__args) #6 comdat align 2 !dbg !1771 {
entry:
  %__a.addr = alloca %"class.std::allocator"*, align 8
  %__p.addr = alloca i64*, align 8
  %__args.addr = alloca i64*, align 8
  store %"class.std::allocator"* %__a, %"class.std::allocator"** %__a.addr, align 8
  call void @llvm.dbg.declare(metadata %"class.std::allocator"** %__a.addr, metadata !1780, metadata !DIExpression()), !dbg !1781
  store i64* %__p, i64** %__p.addr, align 8
  call void @llvm.dbg.declare(metadata i64** %__p.addr, metadata !1782, metadata !DIExpression()), !dbg !1783
  store i64* %__args, i64** %__args.addr, align 8
  call void @llvm.dbg.declare(metadata i64** %__args.addr, metadata !1784, metadata !DIExpression()), !dbg !1785
  %0 = load %"class.std::allocator"*, %"class.std::allocator"** %__a.addr, align 8, !dbg !1786
  %1 = bitcast %"class.std::allocator"* %0 to %"class.__gnu_cxx::new_allocator"*, !dbg !1786
  %2 = load i64*, i64** %__p.addr, align 8, !dbg !1787
  %3 = load i64*, i64** %__args.addr, align 8, !dbg !1788
  %call = call dereferenceable(8) i64* @_ZSt7forwardIRKmEOT_RNSt16remove_referenceIS2_E4typeE(i64* dereferenceable(8) %3) #3, !dbg !1789
  call void @_ZN9__gnu_cxx13new_allocatorImE9constructImJRKmEEEvPT_DpOT0_(%"class.__gnu_cxx::new_allocator"* %1, i64* %2, i64* dereferenceable(8) %call) #3, !dbg !1790
  ret void, !dbg !1791
}

; Function Attrs: noinline optnone uwtable
define linkonce_odr dso_local void @_ZNSt6vectorImSaImEE17_M_realloc_insertIJRKmEEEvN9__gnu_cxx17__normal_iteratorIPmS1_EEDpOT_(%"class.std::vector"* %this, i64* %__position.coerce, i64* dereferenceable(8) %__args) #7 comdat align 2 !dbg !1792 {
entry:
  %__position = alloca %"class.__gnu_cxx::__normal_iterator", align 8
  %this.addr = alloca %"class.std::vector"*, align 8
  %__args.addr = alloca i64*, align 8
  %__len = alloca i64, align 8
  %__old_start = alloca i64*, align 8
  %__old_finish = alloca i64*, align 8
  %__elems_before = alloca i64, align 8
  %ref.tmp = alloca %"class.__gnu_cxx::__normal_iterator", align 8
  %__new_start = alloca i64*, align 8
  %__new_finish = alloca i64*, align 8
  %coerce.dive = getelementptr inbounds %"class.__gnu_cxx::__normal_iterator", %"class.__gnu_cxx::__normal_iterator"* %__position, i32 0, i32 0
  store i64* %__position.coerce, i64** %coerce.dive, align 8
  store %"class.std::vector"* %this, %"class.std::vector"** %this.addr, align 8
  call void @llvm.dbg.declare(metadata %"class.std::vector"** %this.addr, metadata !1798, metadata !DIExpression()), !dbg !1799
  call void @llvm.dbg.declare(metadata %"class.__gnu_cxx::__normal_iterator"* %__position, metadata !1800, metadata !DIExpression()), !dbg !1801
  store i64* %__args, i64** %__args.addr, align 8
  call void @llvm.dbg.declare(metadata i64** %__args.addr, metadata !1802, metadata !DIExpression()), !dbg !1803
  %this1 = load %"class.std::vector"*, %"class.std::vector"** %this.addr, align 8
  call void @llvm.dbg.declare(metadata i64* %__len, metadata !1804, metadata !DIExpression()), !dbg !1806
  %call = call i64 @_ZNKSt6vectorImSaImEE12_M_check_lenEmPKc(%"class.std::vector"* %this1, i64 1, i8* getelementptr inbounds ([26 x i8], [26 x i8]* @.str.1, i64 0, i64 0)), !dbg !1807
  store i64 %call, i64* %__len, align 8, !dbg !1806
  call void @llvm.dbg.declare(metadata i64** %__old_start, metadata !1808, metadata !DIExpression()), !dbg !1809
  %0 = bitcast %"class.std::vector"* %this1 to %"struct.std::_Vector_base"*, !dbg !1810
  %_M_impl = getelementptr inbounds %"struct.std::_Vector_base", %"struct.std::_Vector_base"* %0, i32 0, i32 0, !dbg !1810
  %1 = bitcast %"struct.std::_Vector_base<unsigned long, std::allocator<unsigned long> >::_Vector_impl"* %_M_impl to %"struct.std::_Vector_base<unsigned long, std::allocator<unsigned long> >::_Vector_impl_data"*, !dbg !1811
  %_M_start = getelementptr inbounds %"struct.std::_Vector_base<unsigned long, std::allocator<unsigned long> >::_Vector_impl_data", %"struct.std::_Vector_base<unsigned long, std::allocator<unsigned long> >::_Vector_impl_data"* %1, i32 0, i32 0, !dbg !1812
  %2 = load i64*, i64** %_M_start, align 8, !dbg !1812
  store i64* %2, i64** %__old_start, align 8, !dbg !1809
  call void @llvm.dbg.declare(metadata i64** %__old_finish, metadata !1813, metadata !DIExpression()), !dbg !1814
  %3 = bitcast %"class.std::vector"* %this1 to %"struct.std::_Vector_base"*, !dbg !1815
  %_M_impl2 = getelementptr inbounds %"struct.std::_Vector_base", %"struct.std::_Vector_base"* %3, i32 0, i32 0, !dbg !1815
  %4 = bitcast %"struct.std::_Vector_base<unsigned long, std::allocator<unsigned long> >::_Vector_impl"* %_M_impl2 to %"struct.std::_Vector_base<unsigned long, std::allocator<unsigned long> >::_Vector_impl_data"*, !dbg !1816
  %_M_finish = getelementptr inbounds %"struct.std::_Vector_base<unsigned long, std::allocator<unsigned long> >::_Vector_impl_data", %"struct.std::_Vector_base<unsigned long, std::allocator<unsigned long> >::_Vector_impl_data"* %4, i32 0, i32 1, !dbg !1817
  %5 = load i64*, i64** %_M_finish, align 8, !dbg !1817
  store i64* %5, i64** %__old_finish, align 8, !dbg !1814
  call void @llvm.dbg.declare(metadata i64* %__elems_before, metadata !1818, metadata !DIExpression()), !dbg !1819
  %call3 = call i64* @_ZNSt6vectorImSaImEE5beginEv(%"class.std::vector"* %this1) #3, !dbg !1820
  %coerce.dive4 = getelementptr inbounds %"class.__gnu_cxx::__normal_iterator", %"class.__gnu_cxx::__normal_iterator"* %ref.tmp, i32 0, i32 0, !dbg !1820
  store i64* %call3, i64** %coerce.dive4, align 8, !dbg !1820
  %call5 = call i64 @_ZN9__gnu_cxxmiIPmSt6vectorImSaImEEEENS_17__normal_iteratorIT_T0_E15difference_typeERKS8_SB_(%"class.__gnu_cxx::__normal_iterator"* dereferenceable(8) %__position, %"class.__gnu_cxx::__normal_iterator"* dereferenceable(8) %ref.tmp) #3, !dbg !1821
  store i64 %call5, i64* %__elems_before, align 8, !dbg !1819
  call void @llvm.dbg.declare(metadata i64** %__new_start, metadata !1822, metadata !DIExpression()), !dbg !1823
  %6 = bitcast %"class.std::vector"* %this1 to %"struct.std::_Vector_base"*, !dbg !1824
  %7 = load i64, i64* %__len, align 8, !dbg !1825
  %call6 = call i64* @_ZNSt12_Vector_baseImSaImEE11_M_allocateEm(%"struct.std::_Vector_base"* %6, i64 %7), !dbg !1824
  store i64* %call6, i64** %__new_start, align 8, !dbg !1823
  call void @llvm.dbg.declare(metadata i64** %__new_finish, metadata !1826, metadata !DIExpression()), !dbg !1827
  %8 = load i64*, i64** %__new_start, align 8, !dbg !1828
  store i64* %8, i64** %__new_finish, align 8, !dbg !1827
  %9 = bitcast %"class.std::vector"* %this1 to %"struct.std::_Vector_base"*, !dbg !1829
  %_M_impl7 = getelementptr inbounds %"struct.std::_Vector_base", %"struct.std::_Vector_base"* %9, i32 0, i32 0, !dbg !1829
  %10 = bitcast %"struct.std::_Vector_base<unsigned long, std::allocator<unsigned long> >::_Vector_impl"* %_M_impl7 to %"class.std::allocator"*, !dbg !1831
  %11 = load i64*, i64** %__new_start, align 8, !dbg !1832
  %12 = load i64, i64* %__elems_before, align 8, !dbg !1833
  %add.ptr = getelementptr inbounds i64, i64* %11, i64 %12, !dbg !1834
  %13 = load i64*, i64** %__args.addr, align 8, !dbg !1835
  %call8 = call dereferenceable(8) i64* @_ZSt7forwardIRKmEOT_RNSt16remove_referenceIS2_E4typeE(i64* dereferenceable(8) %13) #3, !dbg !1836
  call void @_ZNSt16allocator_traitsISaImEE9constructImJRKmEEEvRS0_PT_DpOT0_(%"class.std::allocator"* dereferenceable(1) %10, i64* %add.ptr, i64* dereferenceable(8) %call8) #3, !dbg !1837
  store i64* null, i64** %__new_finish, align 8, !dbg !1838
  %14 = load i64*, i64** %__old_start, align 8, !dbg !1839
  %call9 = call dereferenceable(8) i64** @_ZNK9__gnu_cxx17__normal_iteratorIPmSt6vectorImSaImEEE4baseEv(%"class.__gnu_cxx::__normal_iterator"* %__position) #3, !dbg !1842
  %15 = load i64*, i64** %call9, align 8, !dbg !1842
  %16 = load i64*, i64** %__new_start, align 8, !dbg !1843
  %17 = bitcast %"class.std::vector"* %this1 to %"struct.std::_Vector_base"*, !dbg !1844
  %call10 = call dereferenceable(1) %"class.std::allocator"* @_ZNSt12_Vector_baseImSaImEE19_M_get_Tp_allocatorEv(%"struct.std::_Vector_base"* %17) #3, !dbg !1844
  %call11 = call i64* @_ZNSt6vectorImSaImEE11_S_relocateEPmS2_S2_RS0_(i64* %14, i64* %15, i64* %16, %"class.std::allocator"* dereferenceable(1) %call10) #3, !dbg !1845
  store i64* %call11, i64** %__new_finish, align 8, !dbg !1846
  %18 = load i64*, i64** %__new_finish, align 8, !dbg !1847
  %incdec.ptr = getelementptr inbounds i64, i64* %18, i32 1, !dbg !1847
  store i64* %incdec.ptr, i64** %__new_finish, align 8, !dbg !1847
  %call12 = call dereferenceable(8) i64** @_ZNK9__gnu_cxx17__normal_iteratorIPmSt6vectorImSaImEEE4baseEv(%"class.__gnu_cxx::__normal_iterator"* %__position) #3, !dbg !1848
  %19 = load i64*, i64** %call12, align 8, !dbg !1848
  %20 = load i64*, i64** %__old_finish, align 8, !dbg !1849
  %21 = load i64*, i64** %__new_finish, align 8, !dbg !1850
  %22 = bitcast %"class.std::vector"* %this1 to %"struct.std::_Vector_base"*, !dbg !1851
  %call13 = call dereferenceable(1) %"class.std::allocator"* @_ZNSt12_Vector_baseImSaImEE19_M_get_Tp_allocatorEv(%"struct.std::_Vector_base"* %22) #3, !dbg !1851
  %call14 = call i64* @_ZNSt6vectorImSaImEE11_S_relocateEPmS2_S2_RS0_(i64* %19, i64* %20, i64* %21, %"class.std::allocator"* dereferenceable(1) %call13) #3, !dbg !1852
  store i64* %call14, i64** %__new_finish, align 8, !dbg !1853
  %23 = bitcast %"class.std::vector"* %this1 to %"struct.std::_Vector_base"*, !dbg !1854
  %24 = load i64*, i64** %__old_start, align 8, !dbg !1855
  %25 = bitcast %"class.std::vector"* %this1 to %"struct.std::_Vector_base"*, !dbg !1856
  %_M_impl15 = getelementptr inbounds %"struct.std::_Vector_base", %"struct.std::_Vector_base"* %25, i32 0, i32 0, !dbg !1856
  %26 = bitcast %"struct.std::_Vector_base<unsigned long, std::allocator<unsigned long> >::_Vector_impl"* %_M_impl15 to %"struct.std::_Vector_base<unsigned long, std::allocator<unsigned long> >::_Vector_impl_data"*, !dbg !1857
  %_M_end_of_storage = getelementptr inbounds %"struct.std::_Vector_base<unsigned long, std::allocator<unsigned long> >::_Vector_impl_data", %"struct.std::_Vector_base<unsigned long, std::allocator<unsigned long> >::_Vector_impl_data"* %26, i32 0, i32 2, !dbg !1858
  %27 = load i64*, i64** %_M_end_of_storage, align 8, !dbg !1858
  %28 = load i64*, i64** %__old_start, align 8, !dbg !1859
  %sub.ptr.lhs.cast = ptrtoint i64* %27 to i64, !dbg !1860
  %sub.ptr.rhs.cast = ptrtoint i64* %28 to i64, !dbg !1860
  %sub.ptr.sub = sub i64 %sub.ptr.lhs.cast, %sub.ptr.rhs.cast, !dbg !1860
  %sub.ptr.div = sdiv exact i64 %sub.ptr.sub, 8, !dbg !1860
  call void @_ZNSt12_Vector_baseImSaImEE13_M_deallocateEPmm(%"struct.std::_Vector_base"* %23, i64* %24, i64 %sub.ptr.div), !dbg !1854
  %29 = load i64*, i64** %__new_start, align 8, !dbg !1861
  %30 = bitcast %"class.std::vector"* %this1 to %"struct.std::_Vector_base"*, !dbg !1862
  %_M_impl16 = getelementptr inbounds %"struct.std::_Vector_base", %"struct.std::_Vector_base"* %30, i32 0, i32 0, !dbg !1862
  %31 = bitcast %"struct.std::_Vector_base<unsigned long, std::allocator<unsigned long> >::_Vector_impl"* %_M_impl16 to %"struct.std::_Vector_base<unsigned long, std::allocator<unsigned long> >::_Vector_impl_data"*, !dbg !1863
  %_M_start17 = getelementptr inbounds %"struct.std::_Vector_base<unsigned long, std::allocator<unsigned long> >::_Vector_impl_data", %"struct.std::_Vector_base<unsigned long, std::allocator<unsigned long> >::_Vector_impl_data"* %31, i32 0, i32 0, !dbg !1864
  store i64* %29, i64** %_M_start17, align 8, !dbg !1865
  %32 = load i64*, i64** %__new_finish, align 8, !dbg !1866
  %33 = bitcast %"class.std::vector"* %this1 to %"struct.std::_Vector_base"*, !dbg !1867
  %_M_impl18 = getelementptr inbounds %"struct.std::_Vector_base", %"struct.std::_Vector_base"* %33, i32 0, i32 0, !dbg !1867
  %34 = bitcast %"struct.std::_Vector_base<unsigned long, std::allocator<unsigned long> >::_Vector_impl"* %_M_impl18 to %"struct.std::_Vector_base<unsigned long, std::allocator<unsigned long> >::_Vector_impl_data"*, !dbg !1868
  %_M_finish19 = getelementptr inbounds %"struct.std::_Vector_base<unsigned long, std::allocator<unsigned long> >::_Vector_impl_data", %"struct.std::_Vector_base<unsigned long, std::allocator<unsigned long> >::_Vector_impl_data"* %34, i32 0, i32 1, !dbg !1869
  store i64* %32, i64** %_M_finish19, align 8, !dbg !1870
  %35 = load i64*, i64** %__new_start, align 8, !dbg !1871
  %36 = load i64, i64* %__len, align 8, !dbg !1872
  %add.ptr20 = getelementptr inbounds i64, i64* %35, i64 %36, !dbg !1873
  %37 = bitcast %"class.std::vector"* %this1 to %"struct.std::_Vector_base"*, !dbg !1874
  %_M_impl21 = getelementptr inbounds %"struct.std::_Vector_base", %"struct.std::_Vector_base"* %37, i32 0, i32 0, !dbg !1874
  %38 = bitcast %"struct.std::_Vector_base<unsigned long, std::allocator<unsigned long> >::_Vector_impl"* %_M_impl21 to %"struct.std::_Vector_base<unsigned long, std::allocator<unsigned long> >::_Vector_impl_data"*, !dbg !1875
  %_M_end_of_storage22 = getelementptr inbounds %"struct.std::_Vector_base<unsigned long, std::allocator<unsigned long> >::_Vector_impl_data", %"struct.std::_Vector_base<unsigned long, std::allocator<unsigned long> >::_Vector_impl_data"* %38, i32 0, i32 2, !dbg !1876
  store i64* %add.ptr20, i64** %_M_end_of_storage22, align 8, !dbg !1877
  ret void, !dbg !1878
}

; Function Attrs: noinline nounwind optnone uwtable
define linkonce_odr dso_local void @_ZN9__gnu_cxx13new_allocatorImE9constructImJRKmEEEvPT_DpOT0_(%"class.__gnu_cxx::new_allocator"* %this, i64* %__p, i64* dereferenceable(8) %__args) #6 comdat align 2 !dbg !1879 {
entry:
  %this.addr = alloca %"class.__gnu_cxx::new_allocator"*, align 8
  %__p.addr = alloca i64*, align 8
  %__args.addr = alloca i64*, align 8
  store %"class.__gnu_cxx::new_allocator"* %this, %"class.__gnu_cxx::new_allocator"** %this.addr, align 8
  call void @llvm.dbg.declare(metadata %"class.__gnu_cxx::new_allocator"** %this.addr, metadata !1883, metadata !DIExpression()), !dbg !1884
  store i64* %__p, i64** %__p.addr, align 8
  call void @llvm.dbg.declare(metadata i64** %__p.addr, metadata !1885, metadata !DIExpression()), !dbg !1886
  store i64* %__args, i64** %__args.addr, align 8
  call void @llvm.dbg.declare(metadata i64** %__args.addr, metadata !1887, metadata !DIExpression()), !dbg !1888
  %this1 = load %"class.__gnu_cxx::new_allocator"*, %"class.__gnu_cxx::new_allocator"** %this.addr, align 8
  %0 = load i64*, i64** %__p.addr, align 8, !dbg !1889
  %1 = bitcast i64* %0 to i8*, !dbg !1889
  %2 = bitcast i8* %1 to i64*, !dbg !1890
  %3 = load i64*, i64** %__args.addr, align 8, !dbg !1891
  %call = call dereferenceable(8) i64* @_ZSt7forwardIRKmEOT_RNSt16remove_referenceIS2_E4typeE(i64* dereferenceable(8) %3) #3, !dbg !1892
  %4 = load i64, i64* %call, align 8, !dbg !1892
  store i64 %4, i64* %2, align 8, !dbg !1890
  ret void, !dbg !1893
}

; Function Attrs: noinline nounwind optnone uwtable
define linkonce_odr dso_local dereferenceable(8) i64* @_ZSt7forwardIRKmEOT_RNSt16remove_referenceIS2_E4typeE(i64* dereferenceable(8) %__t) #6 comdat !dbg !1894 {
entry:
  %__t.addr = alloca i64*, align 8
  store i64* %__t, i64** %__t.addr, align 8
  call void @llvm.dbg.declare(metadata i64** %__t.addr, metadata !1903, metadata !DIExpression()), !dbg !1904
  %0 = load i64*, i64** %__t.addr, align 8, !dbg !1905
  ret i64* %0, !dbg !1906
}

; Function Attrs: noinline optnone uwtable
define linkonce_odr dso_local i64 @_ZNKSt6vectorImSaImEE12_M_check_lenEmPKc(%"class.std::vector"* %this, i64 %__n, i8* %__s) #7 comdat align 2 !dbg !1907 {
entry:
  %this.addr = alloca %"class.std::vector"*, align 8
  %__n.addr = alloca i64, align 8
  %__s.addr = alloca i8*, align 8
  %__len = alloca i64, align 8
  %ref.tmp = alloca i64, align 8
  store %"class.std::vector"* %this, %"class.std::vector"** %this.addr, align 8
  call void @llvm.dbg.declare(metadata %"class.std::vector"** %this.addr, metadata !1908, metadata !DIExpression()), !dbg !1910
  store i64 %__n, i64* %__n.addr, align 8
  call void @llvm.dbg.declare(metadata i64* %__n.addr, metadata !1911, metadata !DIExpression()), !dbg !1912
  store i8* %__s, i8** %__s.addr, align 8
  call void @llvm.dbg.declare(metadata i8** %__s.addr, metadata !1913, metadata !DIExpression()), !dbg !1914
  %this1 = load %"class.std::vector"*, %"class.std::vector"** %this.addr, align 8
  %call = call i64 @_ZNKSt6vectorImSaImEE8max_sizeEv(%"class.std::vector"* %this1) #3, !dbg !1915
  %call2 = call i64 @_ZNKSt6vectorImSaImEE4sizeEv(%"class.std::vector"* %this1) #3, !dbg !1917
  %sub = sub i64 %call, %call2, !dbg !1918
  %0 = load i64, i64* %__n.addr, align 8, !dbg !1919
  %cmp = icmp ult i64 %sub, %0, !dbg !1920
  br i1 %cmp, label %if.then, label %if.end, !dbg !1921

if.then:                                          ; preds = %entry
  %1 = load i8*, i8** %__s.addr, align 8, !dbg !1922
  call void @_ZSt20__throw_length_errorPKc(i8* %1) #14, !dbg !1923
  unreachable, !dbg !1923

if.end:                                           ; preds = %entry
  call void @llvm.dbg.declare(metadata i64* %__len, metadata !1924, metadata !DIExpression()), !dbg !1925
  %call3 = call i64 @_ZNKSt6vectorImSaImEE4sizeEv(%"class.std::vector"* %this1) #3, !dbg !1926
  %call4 = call i64 @_ZNKSt6vectorImSaImEE4sizeEv(%"class.std::vector"* %this1) #3, !dbg !1927
  store i64 %call4, i64* %ref.tmp, align 8, !dbg !1927
  %call5 = call dereferenceable(8) i64* @_ZSt3maxImERKT_S2_S2_(i64* dereferenceable(8) %ref.tmp, i64* dereferenceable(8) %__n.addr), !dbg !1928
  %2 = load i64, i64* %call5, align 8, !dbg !1928
  %add = add i64 %call3, %2, !dbg !1929
  store i64 %add, i64* %__len, align 8, !dbg !1925
  %3 = load i64, i64* %__len, align 8, !dbg !1930
  %call6 = call i64 @_ZNKSt6vectorImSaImEE4sizeEv(%"class.std::vector"* %this1) #3, !dbg !1931
  %cmp7 = icmp ult i64 %3, %call6, !dbg !1932
  br i1 %cmp7, label %cond.true, label %lor.lhs.false, !dbg !1933

lor.lhs.false:                                    ; preds = %if.end
  %4 = load i64, i64* %__len, align 8, !dbg !1934
  %call8 = call i64 @_ZNKSt6vectorImSaImEE8max_sizeEv(%"class.std::vector"* %this1) #3, !dbg !1935
  %cmp9 = icmp ugt i64 %4, %call8, !dbg !1936
  br i1 %cmp9, label %cond.true, label %cond.false, !dbg !1937

cond.true:                                        ; preds = %lor.lhs.false, %if.end
  %call10 = call i64 @_ZNKSt6vectorImSaImEE8max_sizeEv(%"class.std::vector"* %this1) #3, !dbg !1938
  br label %cond.end, !dbg !1937

cond.false:                                       ; preds = %lor.lhs.false
  %5 = load i64, i64* %__len, align 8, !dbg !1939
  br label %cond.end, !dbg !1937

cond.end:                                         ; preds = %cond.false, %cond.true
  %cond = phi i64 [ %call10, %cond.true ], [ %5, %cond.false ], !dbg !1937
  ret i64 %cond, !dbg !1940
}

; Function Attrs: noinline nounwind optnone uwtable
define linkonce_odr dso_local i64 @_ZN9__gnu_cxxmiIPmSt6vectorImSaImEEEENS_17__normal_iteratorIT_T0_E15difference_typeERKS8_SB_(%"class.__gnu_cxx::__normal_iterator"* dereferenceable(8) %__lhs, %"class.__gnu_cxx::__normal_iterator"* dereferenceable(8) %__rhs) #6 comdat !dbg !1941 {
entry:
  %__lhs.addr = alloca %"class.__gnu_cxx::__normal_iterator"*, align 8
  %__rhs.addr = alloca %"class.__gnu_cxx::__normal_iterator"*, align 8
  store %"class.__gnu_cxx::__normal_iterator"* %__lhs, %"class.__gnu_cxx::__normal_iterator"** %__lhs.addr, align 8
  call void @llvm.dbg.declare(metadata %"class.__gnu_cxx::__normal_iterator"** %__lhs.addr, metadata !1944, metadata !DIExpression()), !dbg !1945
  store %"class.__gnu_cxx::__normal_iterator"* %__rhs, %"class.__gnu_cxx::__normal_iterator"** %__rhs.addr, align 8
  call void @llvm.dbg.declare(metadata %"class.__gnu_cxx::__normal_iterator"** %__rhs.addr, metadata !1946, metadata !DIExpression()), !dbg !1947
  %0 = load %"class.__gnu_cxx::__normal_iterator"*, %"class.__gnu_cxx::__normal_iterator"** %__lhs.addr, align 8, !dbg !1948
  %call = call dereferenceable(8) i64** @_ZNK9__gnu_cxx17__normal_iteratorIPmSt6vectorImSaImEEE4baseEv(%"class.__gnu_cxx::__normal_iterator"* %0) #3, !dbg !1949
  %1 = load i64*, i64** %call, align 8, !dbg !1949
  %2 = load %"class.__gnu_cxx::__normal_iterator"*, %"class.__gnu_cxx::__normal_iterator"** %__rhs.addr, align 8, !dbg !1950
  %call1 = call dereferenceable(8) i64** @_ZNK9__gnu_cxx17__normal_iteratorIPmSt6vectorImSaImEEE4baseEv(%"class.__gnu_cxx::__normal_iterator"* %2) #3, !dbg !1951
  %3 = load i64*, i64** %call1, align 8, !dbg !1951
  %sub.ptr.lhs.cast = ptrtoint i64* %1 to i64, !dbg !1952
  %sub.ptr.rhs.cast = ptrtoint i64* %3 to i64, !dbg !1952
  %sub.ptr.sub = sub i64 %sub.ptr.lhs.cast, %sub.ptr.rhs.cast, !dbg !1952
  %sub.ptr.div = sdiv exact i64 %sub.ptr.sub, 8, !dbg !1952
  ret i64 %sub.ptr.div, !dbg !1953
}

; Function Attrs: noinline optnone uwtable
define linkonce_odr dso_local i64* @_ZNSt12_Vector_baseImSaImEE11_M_allocateEm(%"struct.std::_Vector_base"* %this, i64 %__n) #7 comdat align 2 !dbg !1954 {
entry:
  %this.addr = alloca %"struct.std::_Vector_base"*, align 8
  %__n.addr = alloca i64, align 8
  store %"struct.std::_Vector_base"* %this, %"struct.std::_Vector_base"** %this.addr, align 8
  call void @llvm.dbg.declare(metadata %"struct.std::_Vector_base"** %this.addr, metadata !1955, metadata !DIExpression()), !dbg !1956
  store i64 %__n, i64* %__n.addr, align 8
  call void @llvm.dbg.declare(metadata i64* %__n.addr, metadata !1957, metadata !DIExpression()), !dbg !1958
  %this1 = load %"struct.std::_Vector_base"*, %"struct.std::_Vector_base"** %this.addr, align 8
  %0 = load i64, i64* %__n.addr, align 8, !dbg !1959
  %cmp = icmp ne i64 %0, 0, !dbg !1960
  br i1 %cmp, label %cond.true, label %cond.false, !dbg !1959

cond.true:                                        ; preds = %entry
  %_M_impl = getelementptr inbounds %"struct.std::_Vector_base", %"struct.std::_Vector_base"* %this1, i32 0, i32 0, !dbg !1961
  %1 = bitcast %"struct.std::_Vector_base<unsigned long, std::allocator<unsigned long> >::_Vector_impl"* %_M_impl to %"class.std::allocator"*, !dbg !1961
  %2 = load i64, i64* %__n.addr, align 8, !dbg !1962
  %call = call i64* @_ZNSt16allocator_traitsISaImEE8allocateERS0_m(%"class.std::allocator"* dereferenceable(1) %1, i64 %2), !dbg !1963
  br label %cond.end, !dbg !1959

cond.false:                                       ; preds = %entry
  br label %cond.end, !dbg !1959

cond.end:                                         ; preds = %cond.false, %cond.true
  %cond = phi i64* [ %call, %cond.true ], [ null, %cond.false ], !dbg !1959
  ret i64* %cond, !dbg !1964
}

; Function Attrs: noinline nounwind optnone uwtable
define linkonce_odr dso_local i64* @_ZNSt6vectorImSaImEE11_S_relocateEPmS2_S2_RS0_(i64* %__first, i64* %__last, i64* %__result, %"class.std::allocator"* dereferenceable(1) %__alloc) #6 comdat align 2 !dbg !49 {
entry:
  %__first.addr = alloca i64*, align 8
  %__last.addr = alloca i64*, align 8
  %__result.addr = alloca i64*, align 8
  %__alloc.addr = alloca %"class.std::allocator"*, align 8
  %agg.tmp = alloca %"struct.std::integral_constant", align 1
  store i64* %__first, i64** %__first.addr, align 8
  call void @llvm.dbg.declare(metadata i64** %__first.addr, metadata !1965, metadata !DIExpression()), !dbg !1966
  store i64* %__last, i64** %__last.addr, align 8
  call void @llvm.dbg.declare(metadata i64** %__last.addr, metadata !1967, metadata !DIExpression()), !dbg !1968
  store i64* %__result, i64** %__result.addr, align 8
  call void @llvm.dbg.declare(metadata i64** %__result.addr, metadata !1969, metadata !DIExpression()), !dbg !1970
  store %"class.std::allocator"* %__alloc, %"class.std::allocator"** %__alloc.addr, align 8
  call void @llvm.dbg.declare(metadata %"class.std::allocator"** %__alloc.addr, metadata !1971, metadata !DIExpression()), !dbg !1972
  %0 = load i64*, i64** %__first.addr, align 8, !dbg !1973
  %1 = load i64*, i64** %__last.addr, align 8, !dbg !1974
  %2 = load i64*, i64** %__result.addr, align 8, !dbg !1975
  %3 = load %"class.std::allocator"*, %"class.std::allocator"** %__alloc.addr, align 8, !dbg !1976
  %call = call i64* @_ZNSt6vectorImSaImEE14_S_do_relocateEPmS2_S2_RS0_St17integral_constantIbLb1EE(i64* %0, i64* %1, i64* %2, %"class.std::allocator"* dereferenceable(1) %3) #3, !dbg !1977
  ret i64* %call, !dbg !1978
}

; Function Attrs: noinline nounwind optnone uwtable
define linkonce_odr dso_local dereferenceable(8) i64** @_ZNK9__gnu_cxx17__normal_iteratorIPmSt6vectorImSaImEEE4baseEv(%"class.__gnu_cxx::__normal_iterator"* %this) #6 comdat align 2 !dbg !1979 {
entry:
  %this.addr = alloca %"class.__gnu_cxx::__normal_iterator"*, align 8
  store %"class.__gnu_cxx::__normal_iterator"* %this, %"class.__gnu_cxx::__normal_iterator"** %this.addr, align 8
  call void @llvm.dbg.declare(metadata %"class.__gnu_cxx::__normal_iterator"** %this.addr, metadata !1980, metadata !DIExpression()), !dbg !1981
  %this1 = load %"class.__gnu_cxx::__normal_iterator"*, %"class.__gnu_cxx::__normal_iterator"** %this.addr, align 8
  %_M_current = getelementptr inbounds %"class.__gnu_cxx::__normal_iterator", %"class.__gnu_cxx::__normal_iterator"* %this1, i32 0, i32 0, !dbg !1982
  ret i64** %_M_current, !dbg !1983
}

; Function Attrs: noinline nounwind optnone uwtable
define linkonce_odr dso_local i64 @_ZNKSt6vectorImSaImEE8max_sizeEv(%"class.std::vector"* %this) #6 comdat align 2 !dbg !1984 {
entry:
  %this.addr = alloca %"class.std::vector"*, align 8
  store %"class.std::vector"* %this, %"class.std::vector"** %this.addr, align 8
  call void @llvm.dbg.declare(metadata %"class.std::vector"** %this.addr, metadata !1985, metadata !DIExpression()), !dbg !1986
  %this1 = load %"class.std::vector"*, %"class.std::vector"** %this.addr, align 8
  %0 = bitcast %"class.std::vector"* %this1 to %"struct.std::_Vector_base"*, !dbg !1987
  %call = call dereferenceable(1) %"class.std::allocator"* @_ZNKSt12_Vector_baseImSaImEE19_M_get_Tp_allocatorEv(%"struct.std::_Vector_base"* %0) #3, !dbg !1987
  %call2 = call i64 @_ZNSt6vectorImSaImEE11_S_max_sizeERKS0_(%"class.std::allocator"* dereferenceable(1) %call) #3, !dbg !1988
  ret i64 %call2, !dbg !1989
}

; Function Attrs: noinline nounwind optnone uwtable
define linkonce_odr dso_local i64 @_ZNKSt6vectorImSaImEE4sizeEv(%"class.std::vector"* %this) #6 comdat align 2 !dbg !1990 {
entry:
  %this.addr = alloca %"class.std::vector"*, align 8
  store %"class.std::vector"* %this, %"class.std::vector"** %this.addr, align 8
  call void @llvm.dbg.declare(metadata %"class.std::vector"** %this.addr, metadata !1991, metadata !DIExpression()), !dbg !1992
  %this1 = load %"class.std::vector"*, %"class.std::vector"** %this.addr, align 8
  %0 = bitcast %"class.std::vector"* %this1 to %"struct.std::_Vector_base"*, !dbg !1993
  %_M_impl = getelementptr inbounds %"struct.std::_Vector_base", %"struct.std::_Vector_base"* %0, i32 0, i32 0, !dbg !1993
  %1 = bitcast %"struct.std::_Vector_base<unsigned long, std::allocator<unsigned long> >::_Vector_impl"* %_M_impl to %"struct.std::_Vector_base<unsigned long, std::allocator<unsigned long> >::_Vector_impl_data"*, !dbg !1994
  %_M_finish = getelementptr inbounds %"struct.std::_Vector_base<unsigned long, std::allocator<unsigned long> >::_Vector_impl_data", %"struct.std::_Vector_base<unsigned long, std::allocator<unsigned long> >::_Vector_impl_data"* %1, i32 0, i32 1, !dbg !1995
  %2 = load i64*, i64** %_M_finish, align 8, !dbg !1995
  %3 = bitcast %"class.std::vector"* %this1 to %"struct.std::_Vector_base"*, !dbg !1996
  %_M_impl2 = getelementptr inbounds %"struct.std::_Vector_base", %"struct.std::_Vector_base"* %3, i32 0, i32 0, !dbg !1996
  %4 = bitcast %"struct.std::_Vector_base<unsigned long, std::allocator<unsigned long> >::_Vector_impl"* %_M_impl2 to %"struct.std::_Vector_base<unsigned long, std::allocator<unsigned long> >::_Vector_impl_data"*, !dbg !1997
  %_M_start = getelementptr inbounds %"struct.std::_Vector_base<unsigned long, std::allocator<unsigned long> >::_Vector_impl_data", %"struct.std::_Vector_base<unsigned long, std::allocator<unsigned long> >::_Vector_impl_data"* %4, i32 0, i32 0, !dbg !1998
  %5 = load i64*, i64** %_M_start, align 8, !dbg !1998
  %sub.ptr.lhs.cast = ptrtoint i64* %2 to i64, !dbg !1999
  %sub.ptr.rhs.cast = ptrtoint i64* %5 to i64, !dbg !1999
  %sub.ptr.sub = sub i64 %sub.ptr.lhs.cast, %sub.ptr.rhs.cast, !dbg !1999
  %sub.ptr.div = sdiv exact i64 %sub.ptr.sub, 8, !dbg !1999
  ret i64 %sub.ptr.div, !dbg !2000
}

; Function Attrs: noreturn
declare dso_local void @_ZSt20__throw_length_errorPKc(i8*) #10

; Function Attrs: noinline nounwind optnone uwtable
define linkonce_odr dso_local dereferenceable(8) i64* @_ZSt3maxImERKT_S2_S2_(i64* dereferenceable(8) %__a, i64* dereferenceable(8) %__b) #6 comdat !dbg !2001 {
entry:
  %retval = alloca i64*, align 8
  %__a.addr = alloca i64*, align 8
  %__b.addr = alloca i64*, align 8
  store i64* %__a, i64** %__a.addr, align 8
  call void @llvm.dbg.declare(metadata i64** %__a.addr, metadata !2005, metadata !DIExpression()), !dbg !2006
  store i64* %__b, i64** %__b.addr, align 8
  call void @llvm.dbg.declare(metadata i64** %__b.addr, metadata !2007, metadata !DIExpression()), !dbg !2008
  %0 = load i64*, i64** %__a.addr, align 8, !dbg !2009
  %1 = load i64, i64* %0, align 8, !dbg !2009
  %2 = load i64*, i64** %__b.addr, align 8, !dbg !2011
  %3 = load i64, i64* %2, align 8, !dbg !2011
  %cmp = icmp ult i64 %1, %3, !dbg !2012
  br i1 %cmp, label %if.then, label %if.end, !dbg !2013

if.then:                                          ; preds = %entry
  %4 = load i64*, i64** %__b.addr, align 8, !dbg !2014
  store i64* %4, i64** %retval, align 8, !dbg !2015
  br label %return, !dbg !2015

if.end:                                           ; preds = %entry
  %5 = load i64*, i64** %__a.addr, align 8, !dbg !2016
  store i64* %5, i64** %retval, align 8, !dbg !2017
  br label %return, !dbg !2017

return:                                           ; preds = %if.end, %if.then
  %6 = load i64*, i64** %retval, align 8, !dbg !2018
  ret i64* %6, !dbg !2018
}

; Function Attrs: noinline nounwind optnone uwtable
define linkonce_odr dso_local i64 @_ZNSt6vectorImSaImEE11_S_max_sizeERKS0_(%"class.std::allocator"* dereferenceable(1) %__a) #6 comdat align 2 personality i8* bitcast (i32 (...)* @__gxx_personality_v0 to i8*) !dbg !2019 {
entry:
  %__a.addr = alloca %"class.std::allocator"*, align 8
  %__diffmax = alloca i64, align 8
  %__allocmax = alloca i64, align 8
  store %"class.std::allocator"* %__a, %"class.std::allocator"** %__a.addr, align 8
  call void @llvm.dbg.declare(metadata %"class.std::allocator"** %__a.addr, metadata !2020, metadata !DIExpression()), !dbg !2021
  call void @llvm.dbg.declare(metadata i64* %__diffmax, metadata !2022, metadata !DIExpression()), !dbg !2024
  store i64 1152921504606846975, i64* %__diffmax, align 8, !dbg !2024
  call void @llvm.dbg.declare(metadata i64* %__allocmax, metadata !2025, metadata !DIExpression()), !dbg !2026
  %0 = load %"class.std::allocator"*, %"class.std::allocator"** %__a.addr, align 8, !dbg !2027
  %call = call i64 @_ZNSt16allocator_traitsISaImEE8max_sizeERKS0_(%"class.std::allocator"* dereferenceable(1) %0) #3, !dbg !2028
  store i64 %call, i64* %__allocmax, align 8, !dbg !2026
  %call1 = invoke dereferenceable(8) i64* @_ZSt3minImERKT_S2_S2_(i64* dereferenceable(8) %__diffmax, i64* dereferenceable(8) %__allocmax)
          to label %invoke.cont unwind label %terminate.lpad, !dbg !2029

invoke.cont:                                      ; preds = %entry
  %1 = load i64, i64* %call1, align 8, !dbg !2029
  ret i64 %1, !dbg !2030

terminate.lpad:                                   ; preds = %entry
  %2 = landingpad { i8*, i32 }
          catch i8* null, !dbg !2029
  %3 = extractvalue { i8*, i32 } %2, 0, !dbg !2029
  call void @__clang_call_terminate(i8* %3) #13, !dbg !2029
  unreachable, !dbg !2029
}

; Function Attrs: noinline nounwind optnone uwtable
define linkonce_odr dso_local dereferenceable(1) %"class.std::allocator"* @_ZNKSt12_Vector_baseImSaImEE19_M_get_Tp_allocatorEv(%"struct.std::_Vector_base"* %this) #6 comdat align 2 !dbg !2031 {
entry:
  %this.addr = alloca %"struct.std::_Vector_base"*, align 8
  store %"struct.std::_Vector_base"* %this, %"struct.std::_Vector_base"** %this.addr, align 8
  call void @llvm.dbg.declare(metadata %"struct.std::_Vector_base"** %this.addr, metadata !2032, metadata !DIExpression()), !dbg !2034
  %this1 = load %"struct.std::_Vector_base"*, %"struct.std::_Vector_base"** %this.addr, align 8
  %_M_impl = getelementptr inbounds %"struct.std::_Vector_base", %"struct.std::_Vector_base"* %this1, i32 0, i32 0, !dbg !2035
  %0 = bitcast %"struct.std::_Vector_base<unsigned long, std::allocator<unsigned long> >::_Vector_impl"* %_M_impl to %"class.std::allocator"*, !dbg !2036
  ret %"class.std::allocator"* %0, !dbg !2037
}

; Function Attrs: noinline nounwind optnone uwtable
define linkonce_odr dso_local i64 @_ZNSt16allocator_traitsISaImEE8max_sizeERKS0_(%"class.std::allocator"* dereferenceable(1) %__a) #6 comdat align 2 !dbg !2038 {
entry:
  %__a.addr = alloca %"class.std::allocator"*, align 8
  store %"class.std::allocator"* %__a, %"class.std::allocator"** %__a.addr, align 8
  call void @llvm.dbg.declare(metadata %"class.std::allocator"** %__a.addr, metadata !2039, metadata !DIExpression()), !dbg !2040
  %0 = load %"class.std::allocator"*, %"class.std::allocator"** %__a.addr, align 8, !dbg !2041
  %1 = bitcast %"class.std::allocator"* %0 to %"class.__gnu_cxx::new_allocator"*, !dbg !2041
  %call = call i64 @_ZNK9__gnu_cxx13new_allocatorImE8max_sizeEv(%"class.__gnu_cxx::new_allocator"* %1) #3, !dbg !2042
  ret i64 %call, !dbg !2043
}

; Function Attrs: noinline nounwind optnone uwtable
define linkonce_odr dso_local dereferenceable(8) i64* @_ZSt3minImERKT_S2_S2_(i64* dereferenceable(8) %__a, i64* dereferenceable(8) %__b) #6 comdat !dbg !2044 {
entry:
  %retval = alloca i64*, align 8
  %__a.addr = alloca i64*, align 8
  %__b.addr = alloca i64*, align 8
  store i64* %__a, i64** %__a.addr, align 8
  call void @llvm.dbg.declare(metadata i64** %__a.addr, metadata !2045, metadata !DIExpression()), !dbg !2046
  store i64* %__b, i64** %__b.addr, align 8
  call void @llvm.dbg.declare(metadata i64** %__b.addr, metadata !2047, metadata !DIExpression()), !dbg !2048
  %0 = load i64*, i64** %__b.addr, align 8, !dbg !2049
  %1 = load i64, i64* %0, align 8, !dbg !2049
  %2 = load i64*, i64** %__a.addr, align 8, !dbg !2051
  %3 = load i64, i64* %2, align 8, !dbg !2051
  %cmp = icmp ult i64 %1, %3, !dbg !2052
  br i1 %cmp, label %if.then, label %if.end, !dbg !2053

if.then:                                          ; preds = %entry
  %4 = load i64*, i64** %__b.addr, align 8, !dbg !2054
  store i64* %4, i64** %retval, align 8, !dbg !2055
  br label %return, !dbg !2055

if.end:                                           ; preds = %entry
  %5 = load i64*, i64** %__a.addr, align 8, !dbg !2056
  store i64* %5, i64** %retval, align 8, !dbg !2057
  br label %return, !dbg !2057

return:                                           ; preds = %if.end, %if.then
  %6 = load i64*, i64** %retval, align 8, !dbg !2058
  ret i64* %6, !dbg !2058
}

; Function Attrs: noinline nounwind optnone uwtable
define linkonce_odr dso_local i64 @_ZNK9__gnu_cxx13new_allocatorImE8max_sizeEv(%"class.__gnu_cxx::new_allocator"* %this) #6 comdat align 2 !dbg !2059 {
entry:
  %this.addr = alloca %"class.__gnu_cxx::new_allocator"*, align 8
  store %"class.__gnu_cxx::new_allocator"* %this, %"class.__gnu_cxx::new_allocator"** %this.addr, align 8
  call void @llvm.dbg.declare(metadata %"class.__gnu_cxx::new_allocator"** %this.addr, metadata !2060, metadata !DIExpression()), !dbg !2062
  %this1 = load %"class.__gnu_cxx::new_allocator"*, %"class.__gnu_cxx::new_allocator"** %this.addr, align 8
  %call = call i64 @_ZNK9__gnu_cxx13new_allocatorImE11_M_max_sizeEv(%"class.__gnu_cxx::new_allocator"* %this1) #3, !dbg !2063
  ret i64 %call, !dbg !2064
}

; Function Attrs: noinline nounwind optnone uwtable
define linkonce_odr dso_local i64 @_ZNK9__gnu_cxx13new_allocatorImE11_M_max_sizeEv(%"class.__gnu_cxx::new_allocator"* %this) #6 comdat align 2 !dbg !2065 {
entry:
  %this.addr = alloca %"class.__gnu_cxx::new_allocator"*, align 8
  store %"class.__gnu_cxx::new_allocator"* %this, %"class.__gnu_cxx::new_allocator"** %this.addr, align 8
  call void @llvm.dbg.declare(metadata %"class.__gnu_cxx::new_allocator"** %this.addr, metadata !2066, metadata !DIExpression()), !dbg !2067
  %this1 = load %"class.__gnu_cxx::new_allocator"*, %"class.__gnu_cxx::new_allocator"** %this.addr, align 8
  ret i64 1152921504606846975, !dbg !2068
}

; Function Attrs: noinline optnone uwtable
define linkonce_odr dso_local i64* @_ZNSt16allocator_traitsISaImEE8allocateERS0_m(%"class.std::allocator"* dereferenceable(1) %__a, i64 %__n) #7 comdat align 2 !dbg !2069 {
entry:
  %__a.addr = alloca %"class.std::allocator"*, align 8
  %__n.addr = alloca i64, align 8
  store %"class.std::allocator"* %__a, %"class.std::allocator"** %__a.addr, align 8
  call void @llvm.dbg.declare(metadata %"class.std::allocator"** %__a.addr, metadata !2070, metadata !DIExpression()), !dbg !2071
  store i64 %__n, i64* %__n.addr, align 8
  call void @llvm.dbg.declare(metadata i64* %__n.addr, metadata !2072, metadata !DIExpression()), !dbg !2073
  %0 = load %"class.std::allocator"*, %"class.std::allocator"** %__a.addr, align 8, !dbg !2074
  %1 = bitcast %"class.std::allocator"* %0 to %"class.__gnu_cxx::new_allocator"*, !dbg !2074
  %2 = load i64, i64* %__n.addr, align 8, !dbg !2075
  %call = call i64* @_ZN9__gnu_cxx13new_allocatorImE8allocateEmPKv(%"class.__gnu_cxx::new_allocator"* %1, i64 %2, i8* null), !dbg !2076
  ret i64* %call, !dbg !2077
}

; Function Attrs: noinline optnone uwtable
define linkonce_odr dso_local i64* @_ZN9__gnu_cxx13new_allocatorImE8allocateEmPKv(%"class.__gnu_cxx::new_allocator"* %this, i64 %__n, i8* %0) #7 comdat align 2 !dbg !2078 {
entry:
  %this.addr = alloca %"class.__gnu_cxx::new_allocator"*, align 8
  %__n.addr = alloca i64, align 8
  %.addr = alloca i8*, align 8
  store %"class.__gnu_cxx::new_allocator"* %this, %"class.__gnu_cxx::new_allocator"** %this.addr, align 8
  call void @llvm.dbg.declare(metadata %"class.__gnu_cxx::new_allocator"** %this.addr, metadata !2079, metadata !DIExpression()), !dbg !2080
  store i64 %__n, i64* %__n.addr, align 8
  call void @llvm.dbg.declare(metadata i64* %__n.addr, metadata !2081, metadata !DIExpression()), !dbg !2082
  store i8* %0, i8** %.addr, align 8
  call void @llvm.dbg.declare(metadata i8** %.addr, metadata !2083, metadata !DIExpression()), !dbg !2084
  %this1 = load %"class.__gnu_cxx::new_allocator"*, %"class.__gnu_cxx::new_allocator"** %this.addr, align 8
  %1 = load i64, i64* %__n.addr, align 8, !dbg !2085
  %call = call i64 @_ZNK9__gnu_cxx13new_allocatorImE11_M_max_sizeEv(%"class.__gnu_cxx::new_allocator"* %this1) #3, !dbg !2087
  %cmp = icmp ugt i64 %1, %call, !dbg !2088
  br i1 %cmp, label %if.then, label %if.end, !dbg !2089

if.then:                                          ; preds = %entry
  call void @_ZSt17__throw_bad_allocv() #14, !dbg !2090
  unreachable, !dbg !2090

if.end:                                           ; preds = %entry
  %2 = load i64, i64* %__n.addr, align 8, !dbg !2091
  %mul = mul i64 %2, 8, !dbg !2092
  %call2 = call i8* @_Znwm(i64 %mul), !dbg !2093
  %3 = bitcast i8* %call2 to i64*, !dbg !2094
  ret i64* %3, !dbg !2095
}

; Function Attrs: noreturn
declare dso_local void @_ZSt17__throw_bad_allocv() #10

; Function Attrs: nobuiltin
declare dso_local noalias i8* @_Znwm(i64) #11

; Function Attrs: noinline nounwind optnone uwtable
define linkonce_odr dso_local i64* @_ZNSt6vectorImSaImEE14_S_do_relocateEPmS2_S2_RS0_St17integral_constantIbLb1EE(i64* %__first, i64* %__last, i64* %__result, %"class.std::allocator"* dereferenceable(1) %__alloc) #6 comdat align 2 !dbg !2096 {
entry:
  %0 = alloca %"struct.std::integral_constant", align 1
  %__first.addr = alloca i64*, align 8
  %__last.addr = alloca i64*, align 8
  %__result.addr = alloca i64*, align 8
  %__alloc.addr = alloca %"class.std::allocator"*, align 8
  store i64* %__first, i64** %__first.addr, align 8
  call void @llvm.dbg.declare(metadata i64** %__first.addr, metadata !2097, metadata !DIExpression()), !dbg !2098
  store i64* %__last, i64** %__last.addr, align 8
  call void @llvm.dbg.declare(metadata i64** %__last.addr, metadata !2099, metadata !DIExpression()), !dbg !2100
  store i64* %__result, i64** %__result.addr, align 8
  call void @llvm.dbg.declare(metadata i64** %__result.addr, metadata !2101, metadata !DIExpression()), !dbg !2102
  store %"class.std::allocator"* %__alloc, %"class.std::allocator"** %__alloc.addr, align 8
  call void @llvm.dbg.declare(metadata %"class.std::allocator"** %__alloc.addr, metadata !2103, metadata !DIExpression()), !dbg !2104
  call void @llvm.dbg.declare(metadata %"struct.std::integral_constant"* %0, metadata !2105, metadata !DIExpression()), !dbg !2106
  %1 = load i64*, i64** %__first.addr, align 8, !dbg !2107
  %2 = load i64*, i64** %__last.addr, align 8, !dbg !2108
  %3 = load i64*, i64** %__result.addr, align 8, !dbg !2109
  %4 = load %"class.std::allocator"*, %"class.std::allocator"** %__alloc.addr, align 8, !dbg !2110
  %call = call i64* @_ZSt12__relocate_aIPmS0_SaImEET0_T_S3_S2_RT1_(i64* %1, i64* %2, i64* %3, %"class.std::allocator"* dereferenceable(1) %4) #3, !dbg !2111
  ret i64* %call, !dbg !2112
}

; Function Attrs: noinline nounwind optnone uwtable
define linkonce_odr dso_local i64* @_ZSt12__relocate_aIPmS0_SaImEET0_T_S3_S2_RT1_(i64* %__first, i64* %__last, i64* %__result, %"class.std::allocator"* dereferenceable(1) %__alloc) #6 comdat !dbg !2113 {
entry:
  %__first.addr = alloca i64*, align 8
  %__last.addr = alloca i64*, align 8
  %__result.addr = alloca i64*, align 8
  %__alloc.addr = alloca %"class.std::allocator"*, align 8
  store i64* %__first, i64** %__first.addr, align 8
  call void @llvm.dbg.declare(metadata i64** %__first.addr, metadata !2120, metadata !DIExpression()), !dbg !2121
  store i64* %__last, i64** %__last.addr, align 8
  call void @llvm.dbg.declare(metadata i64** %__last.addr, metadata !2122, metadata !DIExpression()), !dbg !2123
  store i64* %__result, i64** %__result.addr, align 8
  call void @llvm.dbg.declare(metadata i64** %__result.addr, metadata !2124, metadata !DIExpression()), !dbg !2125
  store %"class.std::allocator"* %__alloc, %"class.std::allocator"** %__alloc.addr, align 8
  call void @llvm.dbg.declare(metadata %"class.std::allocator"** %__alloc.addr, metadata !2126, metadata !DIExpression()), !dbg !2127
  %0 = load i64*, i64** %__first.addr, align 8, !dbg !2128
  %call = call i64* @_ZSt12__niter_baseIPmET_S1_(i64* %0) #3, !dbg !2129
  %1 = load i64*, i64** %__last.addr, align 8, !dbg !2130
  %call1 = call i64* @_ZSt12__niter_baseIPmET_S1_(i64* %1) #3, !dbg !2131
  %2 = load i64*, i64** %__result.addr, align 8, !dbg !2132
  %call2 = call i64* @_ZSt12__niter_baseIPmET_S1_(i64* %2) #3, !dbg !2133
  %3 = load %"class.std::allocator"*, %"class.std::allocator"** %__alloc.addr, align 8, !dbg !2134
  %call3 = call i64* @_ZSt14__relocate_a_1ImmENSt9enable_ifIXsr3std24__is_bitwise_relocatableIT_EE5valueEPS1_E4typeES2_S2_S2_RSaIT0_E(i64* %call, i64* %call1, i64* %call2, %"class.std::allocator"* dereferenceable(1) %3) #3, !dbg !2135
  ret i64* %call3, !dbg !2136
}

; Function Attrs: noinline nounwind optnone uwtable
define linkonce_odr dso_local i64* @_ZSt14__relocate_a_1ImmENSt9enable_ifIXsr3std24__is_bitwise_relocatableIT_EE5valueEPS1_E4typeES2_S2_S2_RSaIT0_E(i64* %__first, i64* %__last, i64* %__result, %"class.std::allocator"* dereferenceable(1) %0) #6 comdat !dbg !2137 {
entry:
  %__first.addr = alloca i64*, align 8
  %__last.addr = alloca i64*, align 8
  %__result.addr = alloca i64*, align 8
  %.addr = alloca %"class.std::allocator"*, align 8
  %__count = alloca i64, align 8
  store i64* %__first, i64** %__first.addr, align 8
  call void @llvm.dbg.declare(metadata i64** %__first.addr, metadata !2146, metadata !DIExpression()), !dbg !2147
  store i64* %__last, i64** %__last.addr, align 8
  call void @llvm.dbg.declare(metadata i64** %__last.addr, metadata !2148, metadata !DIExpression()), !dbg !2149
  store i64* %__result, i64** %__result.addr, align 8
  call void @llvm.dbg.declare(metadata i64** %__result.addr, metadata !2150, metadata !DIExpression()), !dbg !2151
  store %"class.std::allocator"* %0, %"class.std::allocator"** %.addr, align 8
  call void @llvm.dbg.declare(metadata %"class.std::allocator"** %.addr, metadata !2152, metadata !DIExpression()), !dbg !2153
  call void @llvm.dbg.declare(metadata i64* %__count, metadata !2154, metadata !DIExpression()), !dbg !2155
  %1 = load i64*, i64** %__last.addr, align 8, !dbg !2156
  %2 = load i64*, i64** %__first.addr, align 8, !dbg !2157
  %sub.ptr.lhs.cast = ptrtoint i64* %1 to i64, !dbg !2158
  %sub.ptr.rhs.cast = ptrtoint i64* %2 to i64, !dbg !2158
  %sub.ptr.sub = sub i64 %sub.ptr.lhs.cast, %sub.ptr.rhs.cast, !dbg !2158
  %sub.ptr.div = sdiv exact i64 %sub.ptr.sub, 8, !dbg !2158
  store i64 %sub.ptr.div, i64* %__count, align 8, !dbg !2155
  %3 = load i64, i64* %__count, align 8, !dbg !2159
  %cmp = icmp sgt i64 %3, 0, !dbg !2161
  br i1 %cmp, label %if.then, label %if.end, !dbg !2162

if.then:                                          ; preds = %entry
  %4 = load i64*, i64** %__result.addr, align 8, !dbg !2163
  %5 = bitcast i64* %4 to i8*, !dbg !2164
  %6 = load i64*, i64** %__first.addr, align 8, !dbg !2165
  %7 = bitcast i64* %6 to i8*, !dbg !2164
  %8 = load i64, i64* %__count, align 8, !dbg !2166
  %mul = mul i64 %8, 8, !dbg !2167
  call void @llvm.memmove.p0i8.p0i8.i64(i8* align 8 %5, i8* align 8 %7, i64 %mul, i1 false), !dbg !2164
  br label %if.end, !dbg !2164

if.end:                                           ; preds = %if.then, %entry
  %9 = load i64*, i64** %__result.addr, align 8, !dbg !2168
  %10 = load i64, i64* %__count, align 8, !dbg !2169
  %add.ptr = getelementptr inbounds i64, i64* %9, i64 %10, !dbg !2170
  ret i64* %add.ptr, !dbg !2171
}

; Function Attrs: noinline nounwind optnone uwtable
define linkonce_odr dso_local i64* @_ZSt12__niter_baseIPmET_S1_(i64* %__it) #6 comdat !dbg !2172 {
entry:
  %__it.addr = alloca i64*, align 8
  store i64* %__it, i64** %__it.addr, align 8
  call void @llvm.dbg.declare(metadata i64** %__it.addr, metadata !2175, metadata !DIExpression()), !dbg !2176
  %0 = load i64*, i64** %__it.addr, align 8, !dbg !2177
  ret i64* %0, !dbg !2178
}

; Function Attrs: argmemonly nounwind willreturn
declare void @llvm.memmove.p0i8.p0i8.i64(i8* nocapture, i8* nocapture readonly, i64, i1 immarg) #12

; Function Attrs: noinline nounwind optnone uwtable
define linkonce_odr dso_local void @_ZN9__gnu_cxx17__normal_iteratorIPmSt6vectorImSaImEEEC2ERKS1_(%"class.__gnu_cxx::__normal_iterator"* %this, i64** dereferenceable(8) %__i) unnamed_addr #6 comdat align 2 !dbg !2179 {
entry:
  %this.addr = alloca %"class.__gnu_cxx::__normal_iterator"*, align 8
  %__i.addr = alloca i64**, align 8
  store %"class.__gnu_cxx::__normal_iterator"* %this, %"class.__gnu_cxx::__normal_iterator"** %this.addr, align 8
  call void @llvm.dbg.declare(metadata %"class.__gnu_cxx::__normal_iterator"** %this.addr, metadata !2180, metadata !DIExpression()), !dbg !2181
  store i64** %__i, i64*** %__i.addr, align 8
  call void @llvm.dbg.declare(metadata i64*** %__i.addr, metadata !2182, metadata !DIExpression()), !dbg !2183
  %this1 = load %"class.__gnu_cxx::__normal_iterator"*, %"class.__gnu_cxx::__normal_iterator"** %this.addr, align 8
  %_M_current = getelementptr inbounds %"class.__gnu_cxx::__normal_iterator", %"class.__gnu_cxx::__normal_iterator"* %this1, i32 0, i32 0, !dbg !2184
  %0 = load i64**, i64*** %__i.addr, align 8, !dbg !2185
  %1 = load i64*, i64** %0, align 8, !dbg !2185
  store i64* %1, i64** %_M_current, align 8, !dbg !2184
  ret void, !dbg !2186
}

; Function Attrs: noinline uwtable
define internal void @_GLOBAL__sub_I_pthread_vector_yes.cpp() #0 section ".text.startup" !dbg !2187 {
entry:
  call void @__cxx_global_var_init(), !dbg !2189
  ret void
}

attributes #0 = { noinline uwtable "correctly-rounded-divide-sqrt-fp-math"="false" "disable-tail-calls"="false" "frame-pointer"="all" "less-precise-fpmad"="false" "min-legal-vector-width"="0" "no-infs-fp-math"="false" "no-jump-tables"="false" "no-nans-fp-math"="false" "no-signed-zeros-fp-math"="false" "no-trapping-math"="false" "stack-protector-buffer-size"="8" "target-cpu"="x86-64" "target-features"="+cx8,+fxsr,+mmx,+sse,+sse2,+x87" "unsafe-fp-math"="false" "use-soft-float"="false" }
attributes #1 = { "correctly-rounded-divide-sqrt-fp-math"="false" "disable-tail-calls"="false" "frame-pointer"="all" "less-precise-fpmad"="false" "no-infs-fp-math"="false" "no-nans-fp-math"="false" "no-signed-zeros-fp-math"="false" "no-trapping-math"="false" "stack-protector-buffer-size"="8" "target-cpu"="x86-64" "target-features"="+cx8,+fxsr,+mmx,+sse,+sse2,+x87" "unsafe-fp-math"="false" "use-soft-float"="false" }
attributes #2 = { nounwind "correctly-rounded-divide-sqrt-fp-math"="false" "disable-tail-calls"="false" "frame-pointer"="all" "less-precise-fpmad"="false" "no-infs-fp-math"="false" "no-nans-fp-math"="false" "no-signed-zeros-fp-math"="false" "no-trapping-math"="false" "stack-protector-buffer-size"="8" "target-cpu"="x86-64" "target-features"="+cx8,+fxsr,+mmx,+sse,+sse2,+x87" "unsafe-fp-math"="false" "use-soft-float"="false" }
attributes #3 = { nounwind }
attributes #4 = { noinline norecurse optnone uwtable "correctly-rounded-divide-sqrt-fp-math"="false" "disable-tail-calls"="false" "frame-pointer"="all" "less-precise-fpmad"="false" "min-legal-vector-width"="0" "no-infs-fp-math"="false" "no-jump-tables"="false" "no-nans-fp-math"="false" "no-signed-zeros-fp-math"="false" "no-trapping-math"="false" "stack-protector-buffer-size"="8" "target-cpu"="x86-64" "target-features"="+cx8,+fxsr,+mmx,+sse,+sse2,+x87" "unsafe-fp-math"="false" "use-soft-float"="false" }
attributes #5 = { nounwind readnone speculatable willreturn }
attributes #6 = { noinline nounwind optnone uwtable "correctly-rounded-divide-sqrt-fp-math"="false" "disable-tail-calls"="false" "frame-pointer"="all" "less-precise-fpmad"="false" "min-legal-vector-width"="0" "no-infs-fp-math"="false" "no-jump-tables"="false" "no-nans-fp-math"="false" "no-signed-zeros-fp-math"="false" "no-trapping-math"="false" "stack-protector-buffer-size"="8" "target-cpu"="x86-64" "target-features"="+cx8,+fxsr,+mmx,+sse,+sse2,+x87" "unsafe-fp-math"="false" "use-soft-float"="false" }
attributes #7 = { noinline optnone uwtable "correctly-rounded-divide-sqrt-fp-math"="false" "disable-tail-calls"="false" "frame-pointer"="all" "less-precise-fpmad"="false" "min-legal-vector-width"="0" "no-infs-fp-math"="false" "no-jump-tables"="false" "no-nans-fp-math"="false" "no-signed-zeros-fp-math"="false" "no-trapping-math"="false" "stack-protector-buffer-size"="8" "target-cpu"="x86-64" "target-features"="+cx8,+fxsr,+mmx,+sse,+sse2,+x87" "unsafe-fp-math"="false" "use-soft-float"="false" }
attributes #8 = { noinline noreturn nounwind }
attributes #9 = { nobuiltin nounwind "correctly-rounded-divide-sqrt-fp-math"="false" "disable-tail-calls"="false" "frame-pointer"="all" "less-precise-fpmad"="false" "no-infs-fp-math"="false" "no-nans-fp-math"="false" "no-signed-zeros-fp-math"="false" "no-trapping-math"="false" "stack-protector-buffer-size"="8" "target-cpu"="x86-64" "target-features"="+cx8,+fxsr,+mmx,+sse,+sse2,+x87" "unsafe-fp-math"="false" "use-soft-float"="false" }
attributes #10 = { noreturn "correctly-rounded-divide-sqrt-fp-math"="false" "disable-tail-calls"="false" "frame-pointer"="all" "less-precise-fpmad"="false" "no-infs-fp-math"="false" "no-nans-fp-math"="false" "no-signed-zeros-fp-math"="false" "no-trapping-math"="false" "stack-protector-buffer-size"="8" "target-cpu"="x86-64" "target-features"="+cx8,+fxsr,+mmx,+sse,+sse2,+x87" "unsafe-fp-math"="false" "use-soft-float"="false" }
attributes #11 = { nobuiltin "correctly-rounded-divide-sqrt-fp-math"="false" "disable-tail-calls"="false" "frame-pointer"="all" "less-precise-fpmad"="false" "no-infs-fp-math"="false" "no-nans-fp-math"="false" "no-signed-zeros-fp-math"="false" "no-trapping-math"="false" "stack-protector-buffer-size"="8" "target-cpu"="x86-64" "target-features"="+cx8,+fxsr,+mmx,+sse,+sse2,+x87" "unsafe-fp-math"="false" "use-soft-float"="false" }
attributes #12 = { argmemonly nounwind willreturn }
attributes #13 = { noreturn nounwind }
attributes #14 = { noreturn }

!llvm.dbg.cu = !{!30}
!llvm.module.flags = !{!1460, !1461, !1462}
!llvm.ident = !{!1463}

!0 = !DIGlobalVariableExpression(var: !1, expr: !DIExpression())
!1 = distinct !DIGlobalVariable(name: "__ioinit", linkageName: "_ZStL8__ioinit", scope: !2, file: !3, line: 74, type: !4, isLocal: true, isDefinition: true)
!2 = !DINamespace(name: "std", scope: null)
!3 = !DIFile(filename: "/usr/lib64/gcc/x86_64-pc-linux-gnu/10.2.0/../../../../include/c++/10.2.0/iostream", directory: "")
!4 = distinct !DICompositeType(tag: DW_TAG_class_type, name: "Init", scope: !6, file: !5, line: 603, size: 8, flags: DIFlagTypePassByReference | DIFlagNonTrivial, elements: !7, identifier: "_ZTSNSt8ios_base4InitE")
!5 = !DIFile(filename: "/usr/lib64/gcc/x86_64-pc-linux-gnu/10.2.0/../../../../include/c++/10.2.0/bits/ios_base.h", directory: "")
!6 = !DICompositeType(tag: DW_TAG_class_type, name: "ios_base", scope: !2, file: !5, line: 228, flags: DIFlagFwdDecl)
!7 = !{!8, !12, !14, !18, !19, !24}
!8 = !DIDerivedType(tag: DW_TAG_member, name: "_S_refcount", scope: !4, file: !5, line: 616, baseType: !9, flags: DIFlagStaticMember)
!9 = !DIDerivedType(tag: DW_TAG_typedef, name: "_Atomic_word", file: !10, line: 32, baseType: !11)
!10 = !DIFile(filename: "/usr/lib64/gcc/x86_64-pc-linux-gnu/10.2.0/../../../../include/c++/10.2.0/x86_64-pc-linux-gnu/bits/atomic_word.h", directory: "")
!11 = !DIBasicType(name: "int", size: 32, encoding: DW_ATE_signed)
!12 = !DIDerivedType(tag: DW_TAG_member, name: "_S_synced_with_stdio", scope: !4, file: !5, line: 617, baseType: !13, flags: DIFlagStaticMember)
!13 = !DIBasicType(name: "bool", size: 8, encoding: DW_ATE_boolean)
!14 = !DISubprogram(name: "Init", scope: !4, file: !5, line: 607, type: !15, scopeLine: 607, flags: DIFlagPublic | DIFlagPrototyped, spFlags: 0)
!15 = !DISubroutineType(types: !16)
!16 = !{null, !17}
!17 = !DIDerivedType(tag: DW_TAG_pointer_type, baseType: !4, size: 64, flags: DIFlagArtificial | DIFlagObjectPointer)
!18 = !DISubprogram(name: "~Init", scope: !4, file: !5, line: 608, type: !15, scopeLine: 608, flags: DIFlagPublic | DIFlagPrototyped, spFlags: 0)
!19 = !DISubprogram(name: "Init", scope: !4, file: !5, line: 611, type: !20, scopeLine: 611, flags: DIFlagPublic | DIFlagPrototyped, spFlags: 0)
!20 = !DISubroutineType(types: !21)
!21 = !{null, !17, !22}
!22 = !DIDerivedType(tag: DW_TAG_reference_type, baseType: !23, size: 64)
!23 = !DIDerivedType(tag: DW_TAG_const_type, baseType: !4)
!24 = !DISubprogram(name: "operator=", linkageName: "_ZNSt8ios_base4InitaSERKS0_", scope: !4, file: !5, line: 612, type: !25, scopeLine: 612, flags: DIFlagPublic | DIFlagPrototyped, spFlags: 0)
!25 = !DISubroutineType(types: !26)
!26 = !{!27, !17, !22}
!27 = !DIDerivedType(tag: DW_TAG_reference_type, baseType: !4, size: 64)
!28 = !DIGlobalVariableExpression(var: !29, expr: !DIExpression())
!29 = distinct !DIGlobalVariable(name: "accum", scope: !30, file: !31, line: 13, type: !11, isLocal: false, isDefinition: true)
!30 = distinct !DICompileUnit(language: DW_LANG_C_plus_plus_14, file: !31, producer: "clang version 10.0.1 ", isOptimized: false, runtimeVersion: 0, emissionKind: FullDebug, enums: !32, retainedTypes: !33, globals: !583, imports: !584, splitDebugInlining: false, nameTableKind: None)
!31 = !DIFile(filename: "pthread-vector-yes.cpp", directory: "/home/yanze/code/OpenRace/tests/data/integration/pthreadrace")
!32 = !{}
!33 = !{!34, !35, !40, !42, !45, !47, !48, !380}
!34 = !DIDerivedType(tag: DW_TAG_pointer_type, baseType: null, size: 64)
!35 = !DIDerivedType(tag: DW_TAG_typedef, name: "int64_t", file: !36, line: 27, baseType: !37)
!36 = !DIFile(filename: "/usr/include/bits/stdint-intn.h", directory: "")
!37 = !DIDerivedType(tag: DW_TAG_typedef, name: "__int64_t", file: !38, line: 44, baseType: !39)
!38 = !DIFile(filename: "/usr/include/bits/types.h", directory: "")
!39 = !DIBasicType(name: "long int", size: 64, encoding: DW_ATE_signed)
!40 = !DIDerivedType(tag: DW_TAG_typedef, name: "size_type", file: !41, line: 424, baseType: !42)
!41 = !DIFile(filename: "/usr/lib64/gcc/x86_64-pc-linux-gnu/10.2.0/../../../../include/c++/10.2.0/bits/stl_vector.h", directory: "")
!42 = !DIDerivedType(tag: DW_TAG_typedef, name: "size_t", scope: !2, file: !43, line: 260, baseType: !44)
!43 = !DIFile(filename: "/usr/lib64/gcc/x86_64-pc-linux-gnu/10.2.0/../../../../include/c++/10.2.0/x86_64-pc-linux-gnu/bits/c++config.h", directory: "")
!44 = !DIBasicType(name: "long unsigned int", size: 64, encoding: DW_ATE_unsigned)
!45 = !DIDerivedType(tag: DW_TAG_pointer_type, baseType: !46, size: 64)
!46 = !DIDerivedType(tag: DW_TAG_const_type, baseType: null)
!47 = !DIDerivedType(tag: DW_TAG_pointer_type, baseType: !44, size: 64)
!48 = !DIDerivedType(tag: DW_TAG_typedef, name: "__do_it", scope: !49, file: !41, line: 468, baseType: !582)
!49 = distinct !DISubprogram(name: "_S_relocate", linkageName: "_ZNSt6vectorImSaImEE11_S_relocateEPmS2_S2_RS0_", scope: !50, file: !41, line: 465, type: !313, scopeLine: 467, flags: DIFlagPrototyped, spFlags: DISPFlagDefinition, unit: !30, declaration: !312, retainedNodes: !32)
!50 = distinct !DICompositeType(tag: DW_TAG_class_type, name: "vector<unsigned long, std::allocator<unsigned long> >", scope: !2, file: !41, line: 389, size: 192, flags: DIFlagTypePassByReference | DIFlagNonTrivial, elements: !51, templateParams: !266, identifier: "_ZTSSt6vectorImSaImEE")
!51 = !{!52, !267, !286, !302, !303, !309, !312, !315, !319, !325, !328, !334, !339, !343, !346, !349, !352, !355, !360, !361, !365, !368, !371, !374, !377, !438, !444, !445, !446, !451, !456, !457, !458, !459, !460, !461, !462, !465, !466, !469, !470, !471, !472, !475, !476, !484, !491, !494, !495, !496, !499, !502, !503, !504, !507, !510, !513, !517, !518, !521, !524, !527, !530, !533, !536, !539, !540, !541, !542, !543, !546, !547, !550, !551, !552, !559, !562, !567, !570, !573, !576, !579}
!52 = !DIDerivedType(tag: DW_TAG_inheritance, scope: !50, baseType: !53, flags: DIFlagProtected, extraData: i32 0)
!53 = distinct !DICompositeType(tag: DW_TAG_structure_type, name: "_Vector_base<unsigned long, std::allocator<unsigned long> >", scope: !2, file: !41, line: 84, size: 192, flags: DIFlagTypePassByReference | DIFlagNonTrivial, elements: !54, templateParams: !266, identifier: "_ZTSSt12_Vector_baseImSaImEE")
!54 = !{!55, !217, !222, !227, !231, !234, !239, !242, !245, !249, !252, !255, !258, !259, !262, !265}
!55 = !DIDerivedType(tag: DW_TAG_member, name: "_M_impl", scope: !53, file: !41, line: 340, baseType: !56, size: 192)
!56 = distinct !DICompositeType(tag: DW_TAG_structure_type, name: "_Vector_impl", scope: !53, file: !41, line: 128, size: 192, flags: DIFlagTypePassByReference | DIFlagNonTrivial, elements: !57, identifier: "_ZTSNSt12_Vector_baseImSaImEE12_Vector_implE")
!57 = !{!58, !172, !197, !201, !206, !210, !214}
!58 = !DIDerivedType(tag: DW_TAG_inheritance, scope: !56, baseType: !59, extraData: i32 0)
!59 = !DIDerivedType(tag: DW_TAG_typedef, name: "_Tp_alloc_type", scope: !53, file: !41, line: 87, baseType: !60)
!60 = !DIDerivedType(tag: DW_TAG_typedef, name: "other", scope: !62, file: !61, line: 120, baseType: !171)
!61 = !DIFile(filename: "/usr/lib64/gcc/x86_64-pc-linux-gnu/10.2.0/../../../../include/c++/10.2.0/ext/alloc_traits.h", directory: "")
!62 = distinct !DICompositeType(tag: DW_TAG_structure_type, name: "rebind<unsigned long>", scope: !63, file: !61, line: 119, size: 8, flags: DIFlagTypePassByValue, elements: !32, templateParams: !121, identifier: "_ZTSN9__gnu_cxx14__alloc_traitsISaImEmE6rebindImEE")
!63 = distinct !DICompositeType(tag: DW_TAG_structure_type, name: "__alloc_traits<std::allocator<unsigned long>, unsigned long>", scope: !64, file: !61, line: 48, size: 8, flags: DIFlagTypePassByValue, elements: !65, templateParams: !169, identifier: "_ZTSN9__gnu_cxx14__alloc_traitsISaImEmEE")
!64 = !DINamespace(name: "__gnu_cxx", scope: null)
!65 = !{!66, !156, !159, !162, !165, !166, !167, !168}
!66 = !DIDerivedType(tag: DW_TAG_inheritance, scope: !63, baseType: !67, extraData: i32 0)
!67 = distinct !DICompositeType(tag: DW_TAG_structure_type, name: "allocator_traits<std::allocator<unsigned long> >", scope: !2, file: !68, line: 407, size: 8, flags: DIFlagTypePassByValue, elements: !69, templateParams: !154, identifier: "_ZTSSt16allocator_traitsISaImEE")
!68 = !DIFile(filename: "/usr/lib64/gcc/x86_64-pc-linux-gnu/10.2.0/../../../../include/c++/10.2.0/bits/alloc_traits.h", directory: "")
!69 = !{!70, !138, !142, !145, !151}
!70 = !DISubprogram(name: "allocate", linkageName: "_ZNSt16allocator_traitsISaImEE8allocateERS0_m", scope: !67, file: !68, line: 459, type: !71, scopeLine: 459, flags: DIFlagPrototyped | DIFlagStaticMember, spFlags: 0)
!71 = !DISubroutineType(types: !72)
!72 = !{!73, !74, !137}
!73 = !DIDerivedType(tag: DW_TAG_typedef, name: "pointer", scope: !67, file: !68, line: 416, baseType: !47)
!74 = !DIDerivedType(tag: DW_TAG_reference_type, baseType: !75, size: 64)
!75 = !DIDerivedType(tag: DW_TAG_typedef, name: "allocator_type", scope: !67, file: !68, line: 410, baseType: !76)
!76 = distinct !DICompositeType(tag: DW_TAG_class_type, name: "allocator<unsigned long>", scope: !2, file: !77, line: 116, size: 8, flags: DIFlagTypePassByReference | DIFlagNonTrivial, elements: !78, templateParams: !121, identifier: "_ZTSSaImE")
!77 = !DIFile(filename: "/usr/lib64/gcc/x86_64-pc-linux-gnu/10.2.0/../../../../include/c++/10.2.0/bits/allocator.h", directory: "")
!78 = !{!79, !123, !127, !132, !136}
!79 = !DIDerivedType(tag: DW_TAG_inheritance, scope: !76, baseType: !80, flags: DIFlagPublic, extraData: i32 0)
!80 = !DIDerivedType(tag: DW_TAG_typedef, name: "__allocator_base<unsigned long>", scope: !2, file: !81, line: 48, baseType: !82)
!81 = !DIFile(filename: "/usr/lib64/gcc/x86_64-pc-linux-gnu/10.2.0/../../../../include/c++/10.2.0/x86_64-pc-linux-gnu/bits/c++allocator.h", directory: "")
!82 = distinct !DICompositeType(tag: DW_TAG_class_type, name: "new_allocator<unsigned long>", scope: !64, file: !83, line: 55, size: 8, flags: DIFlagTypePassByReference | DIFlagNonTrivial, elements: !84, templateParams: !121, identifier: "_ZTSN9__gnu_cxx13new_allocatorImEE")
!83 = !DIFile(filename: "/usr/lib64/gcc/x86_64-pc-linux-gnu/10.2.0/../../../../include/c++/10.2.0/ext/new_allocator.h", directory: "")
!84 = !{!85, !89, !94, !95, !102, !110, !114, !117, !120}
!85 = !DISubprogram(name: "new_allocator", scope: !82, file: !83, line: 79, type: !86, scopeLine: 79, flags: DIFlagPublic | DIFlagPrototyped, spFlags: 0)
!86 = !DISubroutineType(types: !87)
!87 = !{null, !88}
!88 = !DIDerivedType(tag: DW_TAG_pointer_type, baseType: !82, size: 64, flags: DIFlagArtificial | DIFlagObjectPointer)
!89 = !DISubprogram(name: "new_allocator", scope: !82, file: !83, line: 82, type: !90, scopeLine: 82, flags: DIFlagPublic | DIFlagPrototyped, spFlags: 0)
!90 = !DISubroutineType(types: !91)
!91 = !{null, !88, !92}
!92 = !DIDerivedType(tag: DW_TAG_reference_type, baseType: !93, size: 64)
!93 = !DIDerivedType(tag: DW_TAG_const_type, baseType: !82)
!94 = !DISubprogram(name: "~new_allocator", scope: !82, file: !83, line: 89, type: !86, scopeLine: 89, flags: DIFlagPublic | DIFlagPrototyped, spFlags: 0)
!95 = !DISubprogram(name: "address", linkageName: "_ZNK9__gnu_cxx13new_allocatorImE7addressERm", scope: !82, file: !83, line: 92, type: !96, scopeLine: 92, flags: DIFlagPublic | DIFlagPrototyped, spFlags: 0)
!96 = !DISubroutineType(types: !97)
!97 = !{!98, !99, !100}
!98 = !DIDerivedType(tag: DW_TAG_typedef, name: "pointer", scope: !82, file: !83, line: 62, baseType: !47)
!99 = !DIDerivedType(tag: DW_TAG_pointer_type, baseType: !93, size: 64, flags: DIFlagArtificial | DIFlagObjectPointer)
!100 = !DIDerivedType(tag: DW_TAG_typedef, name: "reference", scope: !82, file: !83, line: 64, baseType: !101)
!101 = !DIDerivedType(tag: DW_TAG_reference_type, baseType: !44, size: 64)
!102 = !DISubprogram(name: "address", linkageName: "_ZNK9__gnu_cxx13new_allocatorImE7addressERKm", scope: !82, file: !83, line: 96, type: !103, scopeLine: 96, flags: DIFlagPublic | DIFlagPrototyped, spFlags: 0)
!103 = !DISubroutineType(types: !104)
!104 = !{!105, !99, !108}
!105 = !DIDerivedType(tag: DW_TAG_typedef, name: "const_pointer", scope: !82, file: !83, line: 63, baseType: !106)
!106 = !DIDerivedType(tag: DW_TAG_pointer_type, baseType: !107, size: 64)
!107 = !DIDerivedType(tag: DW_TAG_const_type, baseType: !44)
!108 = !DIDerivedType(tag: DW_TAG_typedef, name: "const_reference", scope: !82, file: !83, line: 65, baseType: !109)
!109 = !DIDerivedType(tag: DW_TAG_reference_type, baseType: !107, size: 64)
!110 = !DISubprogram(name: "allocate", linkageName: "_ZN9__gnu_cxx13new_allocatorImE8allocateEmPKv", scope: !82, file: !83, line: 103, type: !111, scopeLine: 103, flags: DIFlagPublic | DIFlagPrototyped, spFlags: 0)
!111 = !DISubroutineType(types: !112)
!112 = !{!47, !88, !113, !45}
!113 = !DIDerivedType(tag: DW_TAG_typedef, name: "size_type", file: !83, line: 59, baseType: !42)
!114 = !DISubprogram(name: "deallocate", linkageName: "_ZN9__gnu_cxx13new_allocatorImE10deallocateEPmm", scope: !82, file: !83, line: 120, type: !115, scopeLine: 120, flags: DIFlagPublic | DIFlagPrototyped, spFlags: 0)
!115 = !DISubroutineType(types: !116)
!116 = !{null, !88, !47, !113}
!117 = !DISubprogram(name: "max_size", linkageName: "_ZNK9__gnu_cxx13new_allocatorImE8max_sizeEv", scope: !82, file: !83, line: 142, type: !118, scopeLine: 142, flags: DIFlagPublic | DIFlagPrototyped, spFlags: 0)
!118 = !DISubroutineType(types: !119)
!119 = !{!113, !99}
!120 = !DISubprogram(name: "_M_max_size", linkageName: "_ZNK9__gnu_cxx13new_allocatorImE11_M_max_sizeEv", scope: !82, file: !83, line: 185, type: !118, scopeLine: 185, flags: DIFlagPrototyped, spFlags: 0)
!121 = !{!122}
!122 = !DITemplateTypeParameter(name: "_Tp", type: !44)
!123 = !DISubprogram(name: "allocator", scope: !76, file: !77, line: 144, type: !124, scopeLine: 144, flags: DIFlagPublic | DIFlagPrototyped, spFlags: 0)
!124 = !DISubroutineType(types: !125)
!125 = !{null, !126}
!126 = !DIDerivedType(tag: DW_TAG_pointer_type, baseType: !76, size: 64, flags: DIFlagArtificial | DIFlagObjectPointer)
!127 = !DISubprogram(name: "allocator", scope: !76, file: !77, line: 147, type: !128, scopeLine: 147, flags: DIFlagPublic | DIFlagPrototyped, spFlags: 0)
!128 = !DISubroutineType(types: !129)
!129 = !{null, !126, !130}
!130 = !DIDerivedType(tag: DW_TAG_reference_type, baseType: !131, size: 64)
!131 = !DIDerivedType(tag: DW_TAG_const_type, baseType: !76)
!132 = !DISubprogram(name: "operator=", linkageName: "_ZNSaImEaSERKS_", scope: !76, file: !77, line: 152, type: !133, scopeLine: 152, flags: DIFlagPublic | DIFlagPrototyped, spFlags: 0)
!133 = !DISubroutineType(types: !134)
!134 = !{!135, !126, !130}
!135 = !DIDerivedType(tag: DW_TAG_reference_type, baseType: !76, size: 64)
!136 = !DISubprogram(name: "~allocator", scope: !76, file: !77, line: 162, type: !124, scopeLine: 162, flags: DIFlagPublic | DIFlagPrototyped, spFlags: 0)
!137 = !DIDerivedType(tag: DW_TAG_typedef, name: "size_type", file: !68, line: 431, baseType: !42)
!138 = !DISubprogram(name: "allocate", linkageName: "_ZNSt16allocator_traitsISaImEE8allocateERS0_mPKv", scope: !67, file: !68, line: 473, type: !139, scopeLine: 473, flags: DIFlagPrototyped | DIFlagStaticMember, spFlags: 0)
!139 = !DISubroutineType(types: !140)
!140 = !{!73, !74, !137, !141}
!141 = !DIDerivedType(tag: DW_TAG_typedef, name: "const_void_pointer", file: !68, line: 425, baseType: !45)
!142 = !DISubprogram(name: "deallocate", linkageName: "_ZNSt16allocator_traitsISaImEE10deallocateERS0_Pmm", scope: !67, file: !68, line: 491, type: !143, scopeLine: 491, flags: DIFlagPrototyped | DIFlagStaticMember, spFlags: 0)
!143 = !DISubroutineType(types: !144)
!144 = !{null, !74, !73, !137}
!145 = !DISubprogram(name: "max_size", linkageName: "_ZNSt16allocator_traitsISaImEE8max_sizeERKS0_", scope: !67, file: !68, line: 543, type: !146, scopeLine: 543, flags: DIFlagPrototyped | DIFlagStaticMember, spFlags: 0)
!146 = !DISubroutineType(types: !147)
!147 = !{!148, !149}
!148 = !DIDerivedType(tag: DW_TAG_typedef, name: "size_type", scope: !67, file: !68, line: 431, baseType: !42)
!149 = !DIDerivedType(tag: DW_TAG_reference_type, baseType: !150, size: 64)
!150 = !DIDerivedType(tag: DW_TAG_const_type, baseType: !75)
!151 = !DISubprogram(name: "select_on_container_copy_construction", linkageName: "_ZNSt16allocator_traitsISaImEE37select_on_container_copy_constructionERKS0_", scope: !67, file: !68, line: 558, type: !152, scopeLine: 558, flags: DIFlagPrototyped | DIFlagStaticMember, spFlags: 0)
!152 = !DISubroutineType(types: !153)
!153 = !{!75, !149}
!154 = !{!155}
!155 = !DITemplateTypeParameter(name: "_Alloc", type: !76)
!156 = !DISubprogram(name: "_S_select_on_copy", linkageName: "_ZN9__gnu_cxx14__alloc_traitsISaImEmE17_S_select_on_copyERKS1_", scope: !63, file: !61, line: 97, type: !157, scopeLine: 97, flags: DIFlagPrototyped | DIFlagStaticMember, spFlags: 0)
!157 = !DISubroutineType(types: !158)
!158 = !{!76, !130}
!159 = !DISubprogram(name: "_S_on_swap", linkageName: "_ZN9__gnu_cxx14__alloc_traitsISaImEmE10_S_on_swapERS1_S3_", scope: !63, file: !61, line: 100, type: !160, scopeLine: 100, flags: DIFlagPrototyped | DIFlagStaticMember, spFlags: 0)
!160 = !DISubroutineType(types: !161)
!161 = !{null, !135, !135}
!162 = !DISubprogram(name: "_S_propagate_on_copy_assign", linkageName: "_ZN9__gnu_cxx14__alloc_traitsISaImEmE27_S_propagate_on_copy_assignEv", scope: !63, file: !61, line: 103, type: !163, scopeLine: 103, flags: DIFlagPrototyped | DIFlagStaticMember, spFlags: 0)
!163 = !DISubroutineType(types: !164)
!164 = !{!13}
!165 = !DISubprogram(name: "_S_propagate_on_move_assign", linkageName: "_ZN9__gnu_cxx14__alloc_traitsISaImEmE27_S_propagate_on_move_assignEv", scope: !63, file: !61, line: 106, type: !163, scopeLine: 106, flags: DIFlagPrototyped | DIFlagStaticMember, spFlags: 0)
!166 = !DISubprogram(name: "_S_propagate_on_swap", linkageName: "_ZN9__gnu_cxx14__alloc_traitsISaImEmE20_S_propagate_on_swapEv", scope: !63, file: !61, line: 109, type: !163, scopeLine: 109, flags: DIFlagPrototyped | DIFlagStaticMember, spFlags: 0)
!167 = !DISubprogram(name: "_S_always_equal", linkageName: "_ZN9__gnu_cxx14__alloc_traitsISaImEmE15_S_always_equalEv", scope: !63, file: !61, line: 112, type: !163, scopeLine: 112, flags: DIFlagPrototyped | DIFlagStaticMember, spFlags: 0)
!168 = !DISubprogram(name: "_S_nothrow_move", linkageName: "_ZN9__gnu_cxx14__alloc_traitsISaImEmE15_S_nothrow_moveEv", scope: !63, file: !61, line: 115, type: !163, scopeLine: 115, flags: DIFlagPrototyped | DIFlagStaticMember, spFlags: 0)
!169 = !{!155, !170}
!170 = !DITemplateTypeParameter(type: !44)
!171 = !DIDerivedType(tag: DW_TAG_typedef, name: "rebind_alloc<unsigned long>", scope: !67, file: !68, line: 446, baseType: !76)
!172 = !DIDerivedType(tag: DW_TAG_inheritance, scope: !56, baseType: !173, extraData: i32 0)
!173 = distinct !DICompositeType(tag: DW_TAG_structure_type, name: "_Vector_impl_data", scope: !53, file: !41, line: 91, size: 192, flags: DIFlagTypePassByReference | DIFlagNonTrivial, elements: !174, identifier: "_ZTSNSt12_Vector_baseImSaImEE17_Vector_impl_dataE")
!174 = !{!175, !178, !179, !180, !184, !188, !193}
!175 = !DIDerivedType(tag: DW_TAG_member, name: "_M_start", scope: !173, file: !41, line: 93, baseType: !176, size: 64)
!176 = !DIDerivedType(tag: DW_TAG_typedef, name: "pointer", scope: !53, file: !41, line: 89, baseType: !177)
!177 = !DIDerivedType(tag: DW_TAG_typedef, name: "pointer", scope: !63, file: !61, line: 57, baseType: !73)
!178 = !DIDerivedType(tag: DW_TAG_member, name: "_M_finish", scope: !173, file: !41, line: 94, baseType: !176, size: 64, offset: 64)
!179 = !DIDerivedType(tag: DW_TAG_member, name: "_M_end_of_storage", scope: !173, file: !41, line: 95, baseType: !176, size: 64, offset: 128)
!180 = !DISubprogram(name: "_Vector_impl_data", scope: !173, file: !41, line: 97, type: !181, scopeLine: 97, flags: DIFlagPrototyped, spFlags: 0)
!181 = !DISubroutineType(types: !182)
!182 = !{null, !183}
!183 = !DIDerivedType(tag: DW_TAG_pointer_type, baseType: !173, size: 64, flags: DIFlagArtificial | DIFlagObjectPointer)
!184 = !DISubprogram(name: "_Vector_impl_data", scope: !173, file: !41, line: 102, type: !185, scopeLine: 102, flags: DIFlagPrototyped, spFlags: 0)
!185 = !DISubroutineType(types: !186)
!186 = !{null, !183, !187}
!187 = !DIDerivedType(tag: DW_TAG_rvalue_reference_type, baseType: !173, size: 64)
!188 = !DISubprogram(name: "_M_copy_data", linkageName: "_ZNSt12_Vector_baseImSaImEE17_Vector_impl_data12_M_copy_dataERKS2_", scope: !173, file: !41, line: 109, type: !189, scopeLine: 109, flags: DIFlagPrototyped, spFlags: 0)
!189 = !DISubroutineType(types: !190)
!190 = !{null, !183, !191}
!191 = !DIDerivedType(tag: DW_TAG_reference_type, baseType: !192, size: 64)
!192 = !DIDerivedType(tag: DW_TAG_const_type, baseType: !173)
!193 = !DISubprogram(name: "_M_swap_data", linkageName: "_ZNSt12_Vector_baseImSaImEE17_Vector_impl_data12_M_swap_dataERS2_", scope: !173, file: !41, line: 117, type: !194, scopeLine: 117, flags: DIFlagPrototyped, spFlags: 0)
!194 = !DISubroutineType(types: !195)
!195 = !{null, !183, !196}
!196 = !DIDerivedType(tag: DW_TAG_reference_type, baseType: !173, size: 64)
!197 = !DISubprogram(name: "_Vector_impl", scope: !56, file: !41, line: 131, type: !198, scopeLine: 131, flags: DIFlagPrototyped, spFlags: 0)
!198 = !DISubroutineType(types: !199)
!199 = !{null, !200}
!200 = !DIDerivedType(tag: DW_TAG_pointer_type, baseType: !56, size: 64, flags: DIFlagArtificial | DIFlagObjectPointer)
!201 = !DISubprogram(name: "_Vector_impl", scope: !56, file: !41, line: 136, type: !202, scopeLine: 136, flags: DIFlagPrototyped, spFlags: 0)
!202 = !DISubroutineType(types: !203)
!203 = !{null, !200, !204}
!204 = !DIDerivedType(tag: DW_TAG_reference_type, baseType: !205, size: 64)
!205 = !DIDerivedType(tag: DW_TAG_const_type, baseType: !59)
!206 = !DISubprogram(name: "_Vector_impl", scope: !56, file: !41, line: 143, type: !207, scopeLine: 143, flags: DIFlagPrototyped, spFlags: 0)
!207 = !DISubroutineType(types: !208)
!208 = !{null, !200, !209}
!209 = !DIDerivedType(tag: DW_TAG_rvalue_reference_type, baseType: !56, size: 64)
!210 = !DISubprogram(name: "_Vector_impl", scope: !56, file: !41, line: 147, type: !211, scopeLine: 147, flags: DIFlagPrototyped, spFlags: 0)
!211 = !DISubroutineType(types: !212)
!212 = !{null, !200, !213}
!213 = !DIDerivedType(tag: DW_TAG_rvalue_reference_type, baseType: !59, size: 64)
!214 = !DISubprogram(name: "_Vector_impl", scope: !56, file: !41, line: 151, type: !215, scopeLine: 151, flags: DIFlagPrototyped, spFlags: 0)
!215 = !DISubroutineType(types: !216)
!216 = !{null, !200, !213, !209}
!217 = !DISubprogram(name: "_M_get_Tp_allocator", linkageName: "_ZNSt12_Vector_baseImSaImEE19_M_get_Tp_allocatorEv", scope: !53, file: !41, line: 276, type: !218, scopeLine: 276, flags: DIFlagPrototyped, spFlags: 0)
!218 = !DISubroutineType(types: !219)
!219 = !{!220, !221}
!220 = !DIDerivedType(tag: DW_TAG_reference_type, baseType: !59, size: 64)
!221 = !DIDerivedType(tag: DW_TAG_pointer_type, baseType: !53, size: 64, flags: DIFlagArtificial | DIFlagObjectPointer)
!222 = !DISubprogram(name: "_M_get_Tp_allocator", linkageName: "_ZNKSt12_Vector_baseImSaImEE19_M_get_Tp_allocatorEv", scope: !53, file: !41, line: 280, type: !223, scopeLine: 280, flags: DIFlagPrototyped, spFlags: 0)
!223 = !DISubroutineType(types: !224)
!224 = !{!204, !225}
!225 = !DIDerivedType(tag: DW_TAG_pointer_type, baseType: !226, size: 64, flags: DIFlagArtificial | DIFlagObjectPointer)
!226 = !DIDerivedType(tag: DW_TAG_const_type, baseType: !53)
!227 = !DISubprogram(name: "get_allocator", linkageName: "_ZNKSt12_Vector_baseImSaImEE13get_allocatorEv", scope: !53, file: !41, line: 284, type: !228, scopeLine: 284, flags: DIFlagPrototyped, spFlags: 0)
!228 = !DISubroutineType(types: !229)
!229 = !{!230, !225}
!230 = !DIDerivedType(tag: DW_TAG_typedef, name: "allocator_type", scope: !53, file: !41, line: 273, baseType: !76)
!231 = !DISubprogram(name: "_Vector_base", scope: !53, file: !41, line: 288, type: !232, scopeLine: 288, flags: DIFlagPrototyped, spFlags: 0)
!232 = !DISubroutineType(types: !233)
!233 = !{null, !221}
!234 = !DISubprogram(name: "_Vector_base", scope: !53, file: !41, line: 293, type: !235, scopeLine: 293, flags: DIFlagPrototyped, spFlags: 0)
!235 = !DISubroutineType(types: !236)
!236 = !{null, !221, !237}
!237 = !DIDerivedType(tag: DW_TAG_reference_type, baseType: !238, size: 64)
!238 = !DIDerivedType(tag: DW_TAG_const_type, baseType: !230)
!239 = !DISubprogram(name: "_Vector_base", scope: !53, file: !41, line: 298, type: !240, scopeLine: 298, flags: DIFlagPrototyped, spFlags: 0)
!240 = !DISubroutineType(types: !241)
!241 = !{null, !221, !42}
!242 = !DISubprogram(name: "_Vector_base", scope: !53, file: !41, line: 303, type: !243, scopeLine: 303, flags: DIFlagPrototyped, spFlags: 0)
!243 = !DISubroutineType(types: !244)
!244 = !{null, !221, !42, !237}
!245 = !DISubprogram(name: "_Vector_base", scope: !53, file: !41, line: 308, type: !246, scopeLine: 308, flags: DIFlagPrototyped, spFlags: 0)
!246 = !DISubroutineType(types: !247)
!247 = !{null, !221, !248}
!248 = !DIDerivedType(tag: DW_TAG_rvalue_reference_type, baseType: !53, size: 64)
!249 = !DISubprogram(name: "_Vector_base", scope: !53, file: !41, line: 312, type: !250, scopeLine: 312, flags: DIFlagPrototyped, spFlags: 0)
!250 = !DISubroutineType(types: !251)
!251 = !{null, !221, !213}
!252 = !DISubprogram(name: "_Vector_base", scope: !53, file: !41, line: 315, type: !253, scopeLine: 315, flags: DIFlagPrototyped, spFlags: 0)
!253 = !DISubroutineType(types: !254)
!254 = !{null, !221, !248, !237}
!255 = !DISubprogram(name: "_Vector_base", scope: !53, file: !41, line: 328, type: !256, scopeLine: 328, flags: DIFlagPrototyped, spFlags: 0)
!256 = !DISubroutineType(types: !257)
!257 = !{null, !221, !237, !248}
!258 = !DISubprogram(name: "~_Vector_base", scope: !53, file: !41, line: 333, type: !232, scopeLine: 333, flags: DIFlagPrototyped, spFlags: 0)
!259 = !DISubprogram(name: "_M_allocate", linkageName: "_ZNSt12_Vector_baseImSaImEE11_M_allocateEm", scope: !53, file: !41, line: 343, type: !260, scopeLine: 343, flags: DIFlagPrototyped, spFlags: 0)
!260 = !DISubroutineType(types: !261)
!261 = !{!176, !221, !42}
!262 = !DISubprogram(name: "_M_deallocate", linkageName: "_ZNSt12_Vector_baseImSaImEE13_M_deallocateEPmm", scope: !53, file: !41, line: 350, type: !263, scopeLine: 350, flags: DIFlagPrototyped, spFlags: 0)
!263 = !DISubroutineType(types: !264)
!264 = !{null, !221, !176, !42}
!265 = !DISubprogram(name: "_M_create_storage", linkageName: "_ZNSt12_Vector_baseImSaImEE17_M_create_storageEm", scope: !53, file: !41, line: 359, type: !240, scopeLine: 359, flags: DIFlagProtected | DIFlagPrototyped, spFlags: 0)
!266 = !{!122, !155}
!267 = !DISubprogram(name: "_S_nothrow_relocate", linkageName: "_ZNSt6vectorImSaImEE19_S_nothrow_relocateESt17integral_constantIbLb1EE", scope: !50, file: !41, line: 431, type: !268, scopeLine: 431, flags: DIFlagPrototyped | DIFlagStaticMember, spFlags: 0)
!268 = !DISubroutineType(types: !269)
!269 = !{!13, !270}
!270 = !DIDerivedType(tag: DW_TAG_typedef, name: "true_type", scope: !2, file: !271, line: 75, baseType: !272)
!271 = !DIFile(filename: "/usr/lib64/gcc/x86_64-pc-linux-gnu/10.2.0/../../../../include/c++/10.2.0/type_traits", directory: "")
!272 = distinct !DICompositeType(tag: DW_TAG_structure_type, name: "integral_constant<bool, true>", scope: !2, file: !271, line: 57, size: 8, flags: DIFlagTypePassByValue, elements: !273, templateParams: !283, identifier: "_ZTSSt17integral_constantIbLb1EE")
!273 = !{!274, !276, !282}
!274 = !DIDerivedType(tag: DW_TAG_member, name: "value", scope: !272, file: !271, line: 59, baseType: !275, flags: DIFlagStaticMember, extraData: i1 true)
!275 = !DIDerivedType(tag: DW_TAG_const_type, baseType: !13)
!276 = !DISubprogram(name: "operator bool", linkageName: "_ZNKSt17integral_constantIbLb1EEcvbEv", scope: !272, file: !271, line: 62, type: !277, scopeLine: 62, flags: DIFlagPrototyped, spFlags: 0)
!277 = !DISubroutineType(types: !278)
!278 = !{!279, !280}
!279 = !DIDerivedType(tag: DW_TAG_typedef, name: "value_type", scope: !272, file: !271, line: 60, baseType: !13)
!280 = !DIDerivedType(tag: DW_TAG_pointer_type, baseType: !281, size: 64, flags: DIFlagArtificial | DIFlagObjectPointer)
!281 = !DIDerivedType(tag: DW_TAG_const_type, baseType: !272)
!282 = !DISubprogram(name: "operator()", linkageName: "_ZNKSt17integral_constantIbLb1EEclEv", scope: !272, file: !271, line: 67, type: !277, scopeLine: 67, flags: DIFlagPrototyped, spFlags: 0)
!283 = !{!284, !285}
!284 = !DITemplateTypeParameter(name: "_Tp", type: !13)
!285 = !DITemplateValueParameter(name: "__v", type: !13, value: i8 1)
!286 = !DISubprogram(name: "_S_nothrow_relocate", linkageName: "_ZNSt6vectorImSaImEE19_S_nothrow_relocateESt17integral_constantIbLb0EE", scope: !50, file: !41, line: 440, type: !287, scopeLine: 440, flags: DIFlagPrototyped | DIFlagStaticMember, spFlags: 0)
!287 = !DISubroutineType(types: !288)
!288 = !{!13, !289}
!289 = !DIDerivedType(tag: DW_TAG_typedef, name: "false_type", scope: !2, file: !271, line: 78, baseType: !290)
!290 = distinct !DICompositeType(tag: DW_TAG_structure_type, name: "integral_constant<bool, false>", scope: !2, file: !271, line: 57, size: 8, flags: DIFlagTypePassByValue, elements: !291, templateParams: !300, identifier: "_ZTSSt17integral_constantIbLb0EE")
!291 = !{!292, !293, !299}
!292 = !DIDerivedType(tag: DW_TAG_member, name: "value", scope: !290, file: !271, line: 59, baseType: !275, flags: DIFlagStaticMember, extraData: i1 false)
!293 = !DISubprogram(name: "operator bool", linkageName: "_ZNKSt17integral_constantIbLb0EEcvbEv", scope: !290, file: !271, line: 62, type: !294, scopeLine: 62, flags: DIFlagPrototyped, spFlags: 0)
!294 = !DISubroutineType(types: !295)
!295 = !{!296, !297}
!296 = !DIDerivedType(tag: DW_TAG_typedef, name: "value_type", scope: !290, file: !271, line: 60, baseType: !13)
!297 = !DIDerivedType(tag: DW_TAG_pointer_type, baseType: !298, size: 64, flags: DIFlagArtificial | DIFlagObjectPointer)
!298 = !DIDerivedType(tag: DW_TAG_const_type, baseType: !290)
!299 = !DISubprogram(name: "operator()", linkageName: "_ZNKSt17integral_constantIbLb0EEclEv", scope: !290, file: !271, line: 67, type: !294, scopeLine: 67, flags: DIFlagPrototyped, spFlags: 0)
!300 = !{!284, !301}
!301 = !DITemplateValueParameter(name: "__v", type: !13, value: i8 0)
!302 = !DISubprogram(name: "_S_use_relocate", linkageName: "_ZNSt6vectorImSaImEE15_S_use_relocateEv", scope: !50, file: !41, line: 444, type: !163, scopeLine: 444, flags: DIFlagPrototyped | DIFlagStaticMember, spFlags: 0)
!303 = !DISubprogram(name: "_S_do_relocate", linkageName: "_ZNSt6vectorImSaImEE14_S_do_relocateEPmS2_S2_RS0_St17integral_constantIbLb1EE", scope: !50, file: !41, line: 453, type: !304, scopeLine: 453, flags: DIFlagPrototyped | DIFlagStaticMember, spFlags: 0)
!304 = !DISubroutineType(types: !305)
!305 = !{!306, !306, !306, !306, !307, !270}
!306 = !DIDerivedType(tag: DW_TAG_typedef, name: "pointer", scope: !50, file: !41, line: 415, baseType: !176)
!307 = !DIDerivedType(tag: DW_TAG_reference_type, baseType: !308, size: 64)
!308 = !DIDerivedType(tag: DW_TAG_typedef, name: "_Tp_alloc_type", scope: !50, file: !41, line: 410, baseType: !59)
!309 = !DISubprogram(name: "_S_do_relocate", linkageName: "_ZNSt6vectorImSaImEE14_S_do_relocateEPmS2_S2_RS0_St17integral_constantIbLb0EE", scope: !50, file: !41, line: 460, type: !310, scopeLine: 460, flags: DIFlagPrototyped | DIFlagStaticMember, spFlags: 0)
!310 = !DISubroutineType(types: !311)
!311 = !{!306, !306, !306, !306, !307, !289}
!312 = !DISubprogram(name: "_S_relocate", linkageName: "_ZNSt6vectorImSaImEE11_S_relocateEPmS2_S2_RS0_", scope: !50, file: !41, line: 465, type: !313, scopeLine: 465, flags: DIFlagPrototyped | DIFlagStaticMember, spFlags: 0)
!313 = !DISubroutineType(types: !314)
!314 = !{!306, !306, !306, !306, !307}
!315 = !DISubprogram(name: "vector", scope: !50, file: !41, line: 487, type: !316, scopeLine: 487, flags: DIFlagPublic | DIFlagPrototyped, spFlags: 0)
!316 = !DISubroutineType(types: !317)
!317 = !{null, !318}
!318 = !DIDerivedType(tag: DW_TAG_pointer_type, baseType: !50, size: 64, flags: DIFlagArtificial | DIFlagObjectPointer)
!319 = !DISubprogram(name: "vector", scope: !50, file: !41, line: 497, type: !320, scopeLine: 497, flags: DIFlagPublic | DIFlagExplicit | DIFlagPrototyped, spFlags: 0)
!320 = !DISubroutineType(types: !321)
!321 = !{null, !318, !322}
!322 = !DIDerivedType(tag: DW_TAG_reference_type, baseType: !323, size: 64)
!323 = !DIDerivedType(tag: DW_TAG_const_type, baseType: !324)
!324 = !DIDerivedType(tag: DW_TAG_typedef, name: "allocator_type", scope: !50, file: !41, line: 426, baseType: !76)
!325 = !DISubprogram(name: "vector", scope: !50, file: !41, line: 510, type: !326, scopeLine: 510, flags: DIFlagPublic | DIFlagExplicit | DIFlagPrototyped, spFlags: 0)
!326 = !DISubroutineType(types: !327)
!327 = !{null, !318, !40, !322}
!328 = !DISubprogram(name: "vector", scope: !50, file: !41, line: 522, type: !329, scopeLine: 522, flags: DIFlagPublic | DIFlagPrototyped, spFlags: 0)
!329 = !DISubroutineType(types: !330)
!330 = !{null, !318, !40, !331, !322}
!331 = !DIDerivedType(tag: DW_TAG_reference_type, baseType: !332, size: 64)
!332 = !DIDerivedType(tag: DW_TAG_const_type, baseType: !333)
!333 = !DIDerivedType(tag: DW_TAG_typedef, name: "value_type", scope: !50, file: !41, line: 414, baseType: !44)
!334 = !DISubprogram(name: "vector", scope: !50, file: !41, line: 553, type: !335, scopeLine: 553, flags: DIFlagPublic | DIFlagPrototyped, spFlags: 0)
!335 = !DISubroutineType(types: !336)
!336 = !{null, !318, !337}
!337 = !DIDerivedType(tag: DW_TAG_reference_type, baseType: !338, size: 64)
!338 = !DIDerivedType(tag: DW_TAG_const_type, baseType: !50)
!339 = !DISubprogram(name: "vector", scope: !50, file: !41, line: 572, type: !340, scopeLine: 572, flags: DIFlagPublic | DIFlagPrototyped, spFlags: 0)
!340 = !DISubroutineType(types: !341)
!341 = !{null, !318, !342}
!342 = !DIDerivedType(tag: DW_TAG_rvalue_reference_type, baseType: !50, size: 64)
!343 = !DISubprogram(name: "vector", scope: !50, file: !41, line: 575, type: !344, scopeLine: 575, flags: DIFlagPublic | DIFlagPrototyped, spFlags: 0)
!344 = !DISubroutineType(types: !345)
!345 = !{null, !318, !337, !322}
!346 = !DISubprogram(name: "vector", scope: !50, file: !41, line: 585, type: !347, scopeLine: 585, flags: DIFlagPrototyped, spFlags: 0)
!347 = !DISubroutineType(types: !348)
!348 = !{null, !318, !342, !322, !270}
!349 = !DISubprogram(name: "vector", scope: !50, file: !41, line: 589, type: !350, scopeLine: 589, flags: DIFlagPrototyped, spFlags: 0)
!350 = !DISubroutineType(types: !351)
!351 = !{null, !318, !342, !322, !289}
!352 = !DISubprogram(name: "vector", scope: !50, file: !41, line: 607, type: !353, scopeLine: 607, flags: DIFlagPublic | DIFlagPrototyped, spFlags: 0)
!353 = !DISubroutineType(types: !354)
!354 = !{null, !318, !342, !322}
!355 = !DISubprogram(name: "vector", scope: !50, file: !41, line: 625, type: !356, scopeLine: 625, flags: DIFlagPublic | DIFlagPrototyped, spFlags: 0)
!356 = !DISubroutineType(types: !357)
!357 = !{null, !318, !358, !322}
!358 = !DICompositeType(tag: DW_TAG_class_type, name: "initializer_list<unsigned long>", scope: !2, file: !359, line: 47, flags: DIFlagFwdDecl, identifier: "_ZTSSt16initializer_listImE")
!359 = !DIFile(filename: "/usr/lib64/gcc/x86_64-pc-linux-gnu/10.2.0/../../../../include/c++/10.2.0/initializer_list", directory: "")
!360 = !DISubprogram(name: "~vector", scope: !50, file: !41, line: 678, type: !316, scopeLine: 678, flags: DIFlagPublic | DIFlagPrototyped, spFlags: 0)
!361 = !DISubprogram(name: "operator=", linkageName: "_ZNSt6vectorImSaImEEaSERKS1_", scope: !50, file: !41, line: 695, type: !362, scopeLine: 695, flags: DIFlagPublic | DIFlagPrototyped, spFlags: 0)
!362 = !DISubroutineType(types: !363)
!363 = !{!364, !318, !337}
!364 = !DIDerivedType(tag: DW_TAG_reference_type, baseType: !50, size: 64)
!365 = !DISubprogram(name: "operator=", linkageName: "_ZNSt6vectorImSaImEEaSEOS1_", scope: !50, file: !41, line: 709, type: !366, scopeLine: 709, flags: DIFlagPublic | DIFlagPrototyped, spFlags: 0)
!366 = !DISubroutineType(types: !367)
!367 = !{!364, !318, !342}
!368 = !DISubprogram(name: "operator=", linkageName: "_ZNSt6vectorImSaImEEaSESt16initializer_listImE", scope: !50, file: !41, line: 730, type: !369, scopeLine: 730, flags: DIFlagPublic | DIFlagPrototyped, spFlags: 0)
!369 = !DISubroutineType(types: !370)
!370 = !{!364, !318, !358}
!371 = !DISubprogram(name: "assign", linkageName: "_ZNSt6vectorImSaImEE6assignEmRKm", scope: !50, file: !41, line: 749, type: !372, scopeLine: 749, flags: DIFlagPublic | DIFlagPrototyped, spFlags: 0)
!372 = !DISubroutineType(types: !373)
!373 = !{null, !318, !40, !331}
!374 = !DISubprogram(name: "assign", linkageName: "_ZNSt6vectorImSaImEE6assignESt16initializer_listImE", scope: !50, file: !41, line: 794, type: !375, scopeLine: 794, flags: DIFlagPublic | DIFlagPrototyped, spFlags: 0)
!375 = !DISubroutineType(types: !376)
!376 = !{null, !318, !358}
!377 = !DISubprogram(name: "begin", linkageName: "_ZNSt6vectorImSaImEE5beginEv", scope: !50, file: !41, line: 811, type: !378, scopeLine: 811, flags: DIFlagPublic | DIFlagPrototyped, spFlags: 0)
!378 = !DISubroutineType(types: !379)
!379 = !{!380, !318}
!380 = !DIDerivedType(tag: DW_TAG_typedef, name: "iterator", scope: !50, file: !41, line: 419, baseType: !381)
!381 = distinct !DICompositeType(tag: DW_TAG_class_type, name: "__normal_iterator<unsigned long *, std::vector<unsigned long, std::allocator<unsigned long> > >", scope: !64, file: !382, line: 930, size: 64, flags: DIFlagTypePassByValue | DIFlagNonTrivial, elements: !383, templateParams: !436, identifier: "_ZTSN9__gnu_cxx17__normal_iteratorIPmSt6vectorImSaImEEEE")
!382 = !DIFile(filename: "/usr/lib64/gcc/x86_64-pc-linux-gnu/10.2.0/../../../../include/c++/10.2.0/bits/stl_iterator.h", directory: "")
!383 = !{!384, !385, !389, !394, !405, !410, !414, !417, !418, !419, !425, !428, !431, !432, !433}
!384 = !DIDerivedType(tag: DW_TAG_member, name: "_M_current", scope: !381, file: !382, line: 933, baseType: !47, size: 64, flags: DIFlagProtected)
!385 = !DISubprogram(name: "__normal_iterator", scope: !381, file: !382, line: 949, type: !386, scopeLine: 949, flags: DIFlagPublic | DIFlagPrototyped, spFlags: 0)
!386 = !DISubroutineType(types: !387)
!387 = !{null, !388}
!388 = !DIDerivedType(tag: DW_TAG_pointer_type, baseType: !381, size: 64, flags: DIFlagArtificial | DIFlagObjectPointer)
!389 = !DISubprogram(name: "__normal_iterator", scope: !381, file: !382, line: 953, type: !390, scopeLine: 953, flags: DIFlagPublic | DIFlagExplicit | DIFlagPrototyped, spFlags: 0)
!390 = !DISubroutineType(types: !391)
!391 = !{null, !388, !392}
!392 = !DIDerivedType(tag: DW_TAG_reference_type, baseType: !393, size: 64)
!393 = !DIDerivedType(tag: DW_TAG_const_type, baseType: !47)
!394 = !DISubprogram(name: "operator*", linkageName: "_ZNK9__gnu_cxx17__normal_iteratorIPmSt6vectorImSaImEEEdeEv", scope: !381, file: !382, line: 968, type: !395, scopeLine: 968, flags: DIFlagPublic | DIFlagPrototyped, spFlags: 0)
!395 = !DISubroutineType(types: !396)
!396 = !{!397, !403}
!397 = !DIDerivedType(tag: DW_TAG_typedef, name: "reference", scope: !381, file: !382, line: 942, baseType: !398)
!398 = !DIDerivedType(tag: DW_TAG_typedef, name: "reference", scope: !400, file: !399, line: 216, baseType: !101)
!399 = !DIFile(filename: "/usr/lib64/gcc/x86_64-pc-linux-gnu/10.2.0/../../../../include/c++/10.2.0/bits/stl_iterator_base_types.h", directory: "")
!400 = distinct !DICompositeType(tag: DW_TAG_structure_type, name: "iterator_traits<unsigned long *>", scope: !2, file: !399, line: 210, size: 8, flags: DIFlagTypePassByValue, elements: !32, templateParams: !401, identifier: "_ZTSSt15iterator_traitsIPmE")
!401 = !{!402}
!402 = !DITemplateTypeParameter(name: "_Iterator", type: !47)
!403 = !DIDerivedType(tag: DW_TAG_pointer_type, baseType: !404, size: 64, flags: DIFlagArtificial | DIFlagObjectPointer)
!404 = !DIDerivedType(tag: DW_TAG_const_type, baseType: !381)
!405 = !DISubprogram(name: "operator->", linkageName: "_ZNK9__gnu_cxx17__normal_iteratorIPmSt6vectorImSaImEEEptEv", scope: !381, file: !382, line: 973, type: !406, scopeLine: 973, flags: DIFlagPublic | DIFlagPrototyped, spFlags: 0)
!406 = !DISubroutineType(types: !407)
!407 = !{!408, !403}
!408 = !DIDerivedType(tag: DW_TAG_typedef, name: "pointer", scope: !381, file: !382, line: 943, baseType: !409)
!409 = !DIDerivedType(tag: DW_TAG_typedef, name: "pointer", scope: !400, file: !399, line: 215, baseType: !47)
!410 = !DISubprogram(name: "operator++", linkageName: "_ZN9__gnu_cxx17__normal_iteratorIPmSt6vectorImSaImEEEppEv", scope: !381, file: !382, line: 978, type: !411, scopeLine: 978, flags: DIFlagPublic | DIFlagPrototyped, spFlags: 0)
!411 = !DISubroutineType(types: !412)
!412 = !{!413, !388}
!413 = !DIDerivedType(tag: DW_TAG_reference_type, baseType: !381, size: 64)
!414 = !DISubprogram(name: "operator++", linkageName: "_ZN9__gnu_cxx17__normal_iteratorIPmSt6vectorImSaImEEEppEi", scope: !381, file: !382, line: 986, type: !415, scopeLine: 986, flags: DIFlagPublic | DIFlagPrototyped, spFlags: 0)
!415 = !DISubroutineType(types: !416)
!416 = !{!381, !388, !11}
!417 = !DISubprogram(name: "operator--", linkageName: "_ZN9__gnu_cxx17__normal_iteratorIPmSt6vectorImSaImEEEmmEv", scope: !381, file: !382, line: 992, type: !411, scopeLine: 992, flags: DIFlagPublic | DIFlagPrototyped, spFlags: 0)
!418 = !DISubprogram(name: "operator--", linkageName: "_ZN9__gnu_cxx17__normal_iteratorIPmSt6vectorImSaImEEEmmEi", scope: !381, file: !382, line: 1000, type: !415, scopeLine: 1000, flags: DIFlagPublic | DIFlagPrototyped, spFlags: 0)
!419 = !DISubprogram(name: "operator[]", linkageName: "_ZNK9__gnu_cxx17__normal_iteratorIPmSt6vectorImSaImEEEixEl", scope: !381, file: !382, line: 1006, type: !420, scopeLine: 1006, flags: DIFlagPublic | DIFlagPrototyped, spFlags: 0)
!420 = !DISubroutineType(types: !421)
!421 = !{!397, !403, !422}
!422 = !DIDerivedType(tag: DW_TAG_typedef, name: "difference_type", scope: !381, file: !382, line: 941, baseType: !423)
!423 = !DIDerivedType(tag: DW_TAG_typedef, name: "difference_type", scope: !400, file: !399, line: 214, baseType: !424)
!424 = !DIDerivedType(tag: DW_TAG_typedef, name: "ptrdiff_t", scope: !2, file: !43, line: 261, baseType: !39)
!425 = !DISubprogram(name: "operator+=", linkageName: "_ZN9__gnu_cxx17__normal_iteratorIPmSt6vectorImSaImEEEpLEl", scope: !381, file: !382, line: 1011, type: !426, scopeLine: 1011, flags: DIFlagPublic | DIFlagPrototyped, spFlags: 0)
!426 = !DISubroutineType(types: !427)
!427 = !{!413, !388, !422}
!428 = !DISubprogram(name: "operator+", linkageName: "_ZNK9__gnu_cxx17__normal_iteratorIPmSt6vectorImSaImEEEplEl", scope: !381, file: !382, line: 1016, type: !429, scopeLine: 1016, flags: DIFlagPublic | DIFlagPrototyped, spFlags: 0)
!429 = !DISubroutineType(types: !430)
!430 = !{!381, !403, !422}
!431 = !DISubprogram(name: "operator-=", linkageName: "_ZN9__gnu_cxx17__normal_iteratorIPmSt6vectorImSaImEEEmIEl", scope: !381, file: !382, line: 1021, type: !426, scopeLine: 1021, flags: DIFlagPublic | DIFlagPrototyped, spFlags: 0)
!432 = !DISubprogram(name: "operator-", linkageName: "_ZNK9__gnu_cxx17__normal_iteratorIPmSt6vectorImSaImEEEmiEl", scope: !381, file: !382, line: 1026, type: !429, scopeLine: 1026, flags: DIFlagPublic | DIFlagPrototyped, spFlags: 0)
!433 = !DISubprogram(name: "base", linkageName: "_ZNK9__gnu_cxx17__normal_iteratorIPmSt6vectorImSaImEEE4baseEv", scope: !381, file: !382, line: 1031, type: !434, scopeLine: 1031, flags: DIFlagPublic | DIFlagPrototyped, spFlags: 0)
!434 = !DISubroutineType(types: !435)
!435 = !{!392, !403}
!436 = !{!402, !437}
!437 = !DITemplateTypeParameter(name: "_Container", type: !50)
!438 = !DISubprogram(name: "begin", linkageName: "_ZNKSt6vectorImSaImEE5beginEv", scope: !50, file: !41, line: 820, type: !439, scopeLine: 820, flags: DIFlagPublic | DIFlagPrototyped, spFlags: 0)
!439 = !DISubroutineType(types: !440)
!440 = !{!441, !443}
!441 = !DIDerivedType(tag: DW_TAG_typedef, name: "const_iterator", scope: !50, file: !41, line: 421, baseType: !442)
!442 = !DICompositeType(tag: DW_TAG_class_type, name: "__normal_iterator<const unsigned long *, std::vector<unsigned long, std::allocator<unsigned long> > >", scope: !64, file: !382, line: 930, flags: DIFlagFwdDecl, identifier: "_ZTSN9__gnu_cxx17__normal_iteratorIPKmSt6vectorImSaImEEEE")
!443 = !DIDerivedType(tag: DW_TAG_pointer_type, baseType: !338, size: 64, flags: DIFlagArtificial | DIFlagObjectPointer)
!444 = !DISubprogram(name: "end", linkageName: "_ZNSt6vectorImSaImEE3endEv", scope: !50, file: !41, line: 829, type: !378, scopeLine: 829, flags: DIFlagPublic | DIFlagPrototyped, spFlags: 0)
!445 = !DISubprogram(name: "end", linkageName: "_ZNKSt6vectorImSaImEE3endEv", scope: !50, file: !41, line: 838, type: !439, scopeLine: 838, flags: DIFlagPublic | DIFlagPrototyped, spFlags: 0)
!446 = !DISubprogram(name: "rbegin", linkageName: "_ZNSt6vectorImSaImEE6rbeginEv", scope: !50, file: !41, line: 847, type: !447, scopeLine: 847, flags: DIFlagPublic | DIFlagPrototyped, spFlags: 0)
!447 = !DISubroutineType(types: !448)
!448 = !{!449, !318}
!449 = !DIDerivedType(tag: DW_TAG_typedef, name: "reverse_iterator", scope: !50, file: !41, line: 423, baseType: !450)
!450 = !DICompositeType(tag: DW_TAG_class_type, name: "reverse_iterator<__gnu_cxx::__normal_iterator<unsigned long *, std::vector<unsigned long, std::allocator<unsigned long> > > >", scope: !2, file: !382, line: 125, flags: DIFlagFwdDecl, identifier: "_ZTSSt16reverse_iteratorIN9__gnu_cxx17__normal_iteratorIPmSt6vectorImSaImEEEEE")
!451 = !DISubprogram(name: "rbegin", linkageName: "_ZNKSt6vectorImSaImEE6rbeginEv", scope: !50, file: !41, line: 856, type: !452, scopeLine: 856, flags: DIFlagPublic | DIFlagPrototyped, spFlags: 0)
!452 = !DISubroutineType(types: !453)
!453 = !{!454, !443}
!454 = !DIDerivedType(tag: DW_TAG_typedef, name: "const_reverse_iterator", scope: !50, file: !41, line: 422, baseType: !455)
!455 = !DICompositeType(tag: DW_TAG_class_type, name: "reverse_iterator<__gnu_cxx::__normal_iterator<const unsigned long *, std::vector<unsigned long, std::allocator<unsigned long> > > >", scope: !2, file: !382, line: 125, flags: DIFlagFwdDecl, identifier: "_ZTSSt16reverse_iteratorIN9__gnu_cxx17__normal_iteratorIPKmSt6vectorImSaImEEEEE")
!456 = !DISubprogram(name: "rend", linkageName: "_ZNSt6vectorImSaImEE4rendEv", scope: !50, file: !41, line: 865, type: !447, scopeLine: 865, flags: DIFlagPublic | DIFlagPrototyped, spFlags: 0)
!457 = !DISubprogram(name: "rend", linkageName: "_ZNKSt6vectorImSaImEE4rendEv", scope: !50, file: !41, line: 874, type: !452, scopeLine: 874, flags: DIFlagPublic | DIFlagPrototyped, spFlags: 0)
!458 = !DISubprogram(name: "cbegin", linkageName: "_ZNKSt6vectorImSaImEE6cbeginEv", scope: !50, file: !41, line: 884, type: !439, scopeLine: 884, flags: DIFlagPublic | DIFlagPrototyped, spFlags: 0)
!459 = !DISubprogram(name: "cend", linkageName: "_ZNKSt6vectorImSaImEE4cendEv", scope: !50, file: !41, line: 893, type: !439, scopeLine: 893, flags: DIFlagPublic | DIFlagPrototyped, spFlags: 0)
!460 = !DISubprogram(name: "crbegin", linkageName: "_ZNKSt6vectorImSaImEE7crbeginEv", scope: !50, file: !41, line: 902, type: !452, scopeLine: 902, flags: DIFlagPublic | DIFlagPrototyped, spFlags: 0)
!461 = !DISubprogram(name: "crend", linkageName: "_ZNKSt6vectorImSaImEE5crendEv", scope: !50, file: !41, line: 911, type: !452, scopeLine: 911, flags: DIFlagPublic | DIFlagPrototyped, spFlags: 0)
!462 = !DISubprogram(name: "size", linkageName: "_ZNKSt6vectorImSaImEE4sizeEv", scope: !50, file: !41, line: 918, type: !463, scopeLine: 918, flags: DIFlagPublic | DIFlagPrototyped, spFlags: 0)
!463 = !DISubroutineType(types: !464)
!464 = !{!40, !443}
!465 = !DISubprogram(name: "max_size", linkageName: "_ZNKSt6vectorImSaImEE8max_sizeEv", scope: !50, file: !41, line: 923, type: !463, scopeLine: 923, flags: DIFlagPublic | DIFlagPrototyped, spFlags: 0)
!466 = !DISubprogram(name: "resize", linkageName: "_ZNSt6vectorImSaImEE6resizeEm", scope: !50, file: !41, line: 937, type: !467, scopeLine: 937, flags: DIFlagPublic | DIFlagPrototyped, spFlags: 0)
!467 = !DISubroutineType(types: !468)
!468 = !{null, !318, !40}
!469 = !DISubprogram(name: "resize", linkageName: "_ZNSt6vectorImSaImEE6resizeEmRKm", scope: !50, file: !41, line: 957, type: !372, scopeLine: 957, flags: DIFlagPublic | DIFlagPrototyped, spFlags: 0)
!470 = !DISubprogram(name: "shrink_to_fit", linkageName: "_ZNSt6vectorImSaImEE13shrink_to_fitEv", scope: !50, file: !41, line: 989, type: !316, scopeLine: 989, flags: DIFlagPublic | DIFlagPrototyped, spFlags: 0)
!471 = !DISubprogram(name: "capacity", linkageName: "_ZNKSt6vectorImSaImEE8capacityEv", scope: !50, file: !41, line: 998, type: !463, scopeLine: 998, flags: DIFlagPublic | DIFlagPrototyped, spFlags: 0)
!472 = !DISubprogram(name: "empty", linkageName: "_ZNKSt6vectorImSaImEE5emptyEv", scope: !50, file: !41, line: 1007, type: !473, scopeLine: 1007, flags: DIFlagPublic | DIFlagPrototyped, spFlags: 0)
!473 = !DISubroutineType(types: !474)
!474 = !{!13, !443}
!475 = !DISubprogram(name: "reserve", linkageName: "_ZNSt6vectorImSaImEE7reserveEm", scope: !50, file: !41, line: 1028, type: !467, scopeLine: 1028, flags: DIFlagPublic | DIFlagPrototyped, spFlags: 0)
!476 = !DISubprogram(name: "operator[]", linkageName: "_ZNSt6vectorImSaImEEixEm", scope: !50, file: !41, line: 1043, type: !477, scopeLine: 1043, flags: DIFlagPublic | DIFlagPrototyped, spFlags: 0)
!477 = !DISubroutineType(types: !478)
!478 = !{!479, !318, !40}
!479 = !DIDerivedType(tag: DW_TAG_typedef, name: "reference", scope: !50, file: !41, line: 417, baseType: !480)
!480 = !DIDerivedType(tag: DW_TAG_typedef, name: "reference", scope: !63, file: !61, line: 62, baseType: !481)
!481 = !DIDerivedType(tag: DW_TAG_reference_type, baseType: !482, size: 64)
!482 = !DIDerivedType(tag: DW_TAG_typedef, name: "value_type", scope: !63, file: !61, line: 56, baseType: !483)
!483 = !DIDerivedType(tag: DW_TAG_typedef, name: "value_type", scope: !67, file: !68, line: 413, baseType: !44)
!484 = !DISubprogram(name: "operator[]", linkageName: "_ZNKSt6vectorImSaImEEixEm", scope: !50, file: !41, line: 1061, type: !485, scopeLine: 1061, flags: DIFlagPublic | DIFlagPrototyped, spFlags: 0)
!485 = !DISubroutineType(types: !486)
!486 = !{!487, !443, !40}
!487 = !DIDerivedType(tag: DW_TAG_typedef, name: "const_reference", scope: !50, file: !41, line: 418, baseType: !488)
!488 = !DIDerivedType(tag: DW_TAG_typedef, name: "const_reference", scope: !63, file: !61, line: 63, baseType: !489)
!489 = !DIDerivedType(tag: DW_TAG_reference_type, baseType: !490, size: 64)
!490 = !DIDerivedType(tag: DW_TAG_const_type, baseType: !482)
!491 = !DISubprogram(name: "_M_range_check", linkageName: "_ZNKSt6vectorImSaImEE14_M_range_checkEm", scope: !50, file: !41, line: 1070, type: !492, scopeLine: 1070, flags: DIFlagProtected | DIFlagPrototyped, spFlags: 0)
!492 = !DISubroutineType(types: !493)
!493 = !{null, !443, !40}
!494 = !DISubprogram(name: "at", linkageName: "_ZNSt6vectorImSaImEE2atEm", scope: !50, file: !41, line: 1092, type: !477, scopeLine: 1092, flags: DIFlagPublic | DIFlagPrototyped, spFlags: 0)
!495 = !DISubprogram(name: "at", linkageName: "_ZNKSt6vectorImSaImEE2atEm", scope: !50, file: !41, line: 1110, type: !485, scopeLine: 1110, flags: DIFlagPublic | DIFlagPrototyped, spFlags: 0)
!496 = !DISubprogram(name: "front", linkageName: "_ZNSt6vectorImSaImEE5frontEv", scope: !50, file: !41, line: 1121, type: !497, scopeLine: 1121, flags: DIFlagPublic | DIFlagPrototyped, spFlags: 0)
!497 = !DISubroutineType(types: !498)
!498 = !{!479, !318}
!499 = !DISubprogram(name: "front", linkageName: "_ZNKSt6vectorImSaImEE5frontEv", scope: !50, file: !41, line: 1132, type: !500, scopeLine: 1132, flags: DIFlagPublic | DIFlagPrototyped, spFlags: 0)
!500 = !DISubroutineType(types: !501)
!501 = !{!487, !443}
!502 = !DISubprogram(name: "back", linkageName: "_ZNSt6vectorImSaImEE4backEv", scope: !50, file: !41, line: 1143, type: !497, scopeLine: 1143, flags: DIFlagPublic | DIFlagPrototyped, spFlags: 0)
!503 = !DISubprogram(name: "back", linkageName: "_ZNKSt6vectorImSaImEE4backEv", scope: !50, file: !41, line: 1154, type: !500, scopeLine: 1154, flags: DIFlagPublic | DIFlagPrototyped, spFlags: 0)
!504 = !DISubprogram(name: "data", linkageName: "_ZNSt6vectorImSaImEE4dataEv", scope: !50, file: !41, line: 1168, type: !505, scopeLine: 1168, flags: DIFlagPublic | DIFlagPrototyped, spFlags: 0)
!505 = !DISubroutineType(types: !506)
!506 = !{!47, !318}
!507 = !DISubprogram(name: "data", linkageName: "_ZNKSt6vectorImSaImEE4dataEv", scope: !50, file: !41, line: 1172, type: !508, scopeLine: 1172, flags: DIFlagPublic | DIFlagPrototyped, spFlags: 0)
!508 = !DISubroutineType(types: !509)
!509 = !{!106, !443}
!510 = !DISubprogram(name: "push_back", linkageName: "_ZNSt6vectorImSaImEE9push_backERKm", scope: !50, file: !41, line: 1187, type: !511, scopeLine: 1187, flags: DIFlagPublic | DIFlagPrototyped, spFlags: 0)
!511 = !DISubroutineType(types: !512)
!512 = !{null, !318, !331}
!513 = !DISubprogram(name: "push_back", linkageName: "_ZNSt6vectorImSaImEE9push_backEOm", scope: !50, file: !41, line: 1203, type: !514, scopeLine: 1203, flags: DIFlagPublic | DIFlagPrototyped, spFlags: 0)
!514 = !DISubroutineType(types: !515)
!515 = !{null, !318, !516}
!516 = !DIDerivedType(tag: DW_TAG_rvalue_reference_type, baseType: !333, size: 64)
!517 = !DISubprogram(name: "pop_back", linkageName: "_ZNSt6vectorImSaImEE8pop_backEv", scope: !50, file: !41, line: 1225, type: !316, scopeLine: 1225, flags: DIFlagPublic | DIFlagPrototyped, spFlags: 0)
!518 = !DISubprogram(name: "insert", linkageName: "_ZNSt6vectorImSaImEE6insertEN9__gnu_cxx17__normal_iteratorIPKmS1_EERS4_", scope: !50, file: !41, line: 1263, type: !519, scopeLine: 1263, flags: DIFlagPublic | DIFlagPrototyped, spFlags: 0)
!519 = !DISubroutineType(types: !520)
!520 = !{!380, !318, !441, !331}
!521 = !DISubprogram(name: "insert", linkageName: "_ZNSt6vectorImSaImEE6insertEN9__gnu_cxx17__normal_iteratorIPKmS1_EEOm", scope: !50, file: !41, line: 1293, type: !522, scopeLine: 1293, flags: DIFlagPublic | DIFlagPrototyped, spFlags: 0)
!522 = !DISubroutineType(types: !523)
!523 = !{!380, !318, !441, !516}
!524 = !DISubprogram(name: "insert", linkageName: "_ZNSt6vectorImSaImEE6insertEN9__gnu_cxx17__normal_iteratorIPKmS1_EESt16initializer_listImE", scope: !50, file: !41, line: 1310, type: !525, scopeLine: 1310, flags: DIFlagPublic | DIFlagPrototyped, spFlags: 0)
!525 = !DISubroutineType(types: !526)
!526 = !{!380, !318, !441, !358}
!527 = !DISubprogram(name: "insert", linkageName: "_ZNSt6vectorImSaImEE6insertEN9__gnu_cxx17__normal_iteratorIPKmS1_EEmRS4_", scope: !50, file: !41, line: 1335, type: !528, scopeLine: 1335, flags: DIFlagPublic | DIFlagPrototyped, spFlags: 0)
!528 = !DISubroutineType(types: !529)
!529 = !{!380, !318, !441, !40, !331}
!530 = !DISubprogram(name: "erase", linkageName: "_ZNSt6vectorImSaImEE5eraseEN9__gnu_cxx17__normal_iteratorIPKmS1_EE", scope: !50, file: !41, line: 1430, type: !531, scopeLine: 1430, flags: DIFlagPublic | DIFlagPrototyped, spFlags: 0)
!531 = !DISubroutineType(types: !532)
!532 = !{!380, !318, !441}
!533 = !DISubprogram(name: "erase", linkageName: "_ZNSt6vectorImSaImEE5eraseEN9__gnu_cxx17__normal_iteratorIPKmS1_EES6_", scope: !50, file: !41, line: 1457, type: !534, scopeLine: 1457, flags: DIFlagPublic | DIFlagPrototyped, spFlags: 0)
!534 = !DISubroutineType(types: !535)
!535 = !{!380, !318, !441, !441}
!536 = !DISubprogram(name: "swap", linkageName: "_ZNSt6vectorImSaImEE4swapERS1_", scope: !50, file: !41, line: 1480, type: !537, scopeLine: 1480, flags: DIFlagPublic | DIFlagPrototyped, spFlags: 0)
!537 = !DISubroutineType(types: !538)
!538 = !{null, !318, !364}
!539 = !DISubprogram(name: "clear", linkageName: "_ZNSt6vectorImSaImEE5clearEv", scope: !50, file: !41, line: 1498, type: !316, scopeLine: 1498, flags: DIFlagPublic | DIFlagPrototyped, spFlags: 0)
!540 = !DISubprogram(name: "_M_fill_initialize", linkageName: "_ZNSt6vectorImSaImEE18_M_fill_initializeEmRKm", scope: !50, file: !41, line: 1593, type: !372, scopeLine: 1593, flags: DIFlagProtected | DIFlagPrototyped, spFlags: 0)
!541 = !DISubprogram(name: "_M_default_initialize", linkageName: "_ZNSt6vectorImSaImEE21_M_default_initializeEm", scope: !50, file: !41, line: 1603, type: !467, scopeLine: 1603, flags: DIFlagProtected | DIFlagPrototyped, spFlags: 0)
!542 = !DISubprogram(name: "_M_fill_assign", linkageName: "_ZNSt6vectorImSaImEE14_M_fill_assignEmRKm", scope: !50, file: !41, line: 1645, type: !372, scopeLine: 1645, flags: DIFlagProtected | DIFlagPrototyped, spFlags: 0)
!543 = !DISubprogram(name: "_M_fill_insert", linkageName: "_ZNSt6vectorImSaImEE14_M_fill_insertEN9__gnu_cxx17__normal_iteratorIPmS1_EEmRKm", scope: !50, file: !41, line: 1684, type: !544, scopeLine: 1684, flags: DIFlagProtected | DIFlagPrototyped, spFlags: 0)
!544 = !DISubroutineType(types: !545)
!545 = !{null, !318, !380, !40, !331}
!546 = !DISubprogram(name: "_M_default_append", linkageName: "_ZNSt6vectorImSaImEE17_M_default_appendEm", scope: !50, file: !41, line: 1689, type: !467, scopeLine: 1689, flags: DIFlagProtected | DIFlagPrototyped, spFlags: 0)
!547 = !DISubprogram(name: "_M_shrink_to_fit", linkageName: "_ZNSt6vectorImSaImEE16_M_shrink_to_fitEv", scope: !50, file: !41, line: 1692, type: !548, scopeLine: 1692, flags: DIFlagProtected | DIFlagPrototyped, spFlags: 0)
!548 = !DISubroutineType(types: !549)
!549 = !{!13, !318}
!550 = !DISubprogram(name: "_M_insert_rval", linkageName: "_ZNSt6vectorImSaImEE14_M_insert_rvalEN9__gnu_cxx17__normal_iteratorIPKmS1_EEOm", scope: !50, file: !41, line: 1741, type: !522, scopeLine: 1741, flags: DIFlagProtected | DIFlagPrototyped, spFlags: 0)
!551 = !DISubprogram(name: "_M_emplace_aux", linkageName: "_ZNSt6vectorImSaImEE14_M_emplace_auxEN9__gnu_cxx17__normal_iteratorIPKmS1_EEOm", scope: !50, file: !41, line: 1750, type: !522, scopeLine: 1750, flags: DIFlagProtected | DIFlagPrototyped, spFlags: 0)
!552 = !DISubprogram(name: "_M_check_len", linkageName: "_ZNKSt6vectorImSaImEE12_M_check_lenEmPKc", scope: !50, file: !41, line: 1756, type: !553, scopeLine: 1756, flags: DIFlagProtected | DIFlagPrototyped, spFlags: 0)
!553 = !DISubroutineType(types: !554)
!554 = !{!555, !443, !40, !556}
!555 = !DIDerivedType(tag: DW_TAG_typedef, name: "size_type", scope: !50, file: !41, line: 424, baseType: !42)
!556 = !DIDerivedType(tag: DW_TAG_pointer_type, baseType: !557, size: 64)
!557 = !DIDerivedType(tag: DW_TAG_const_type, baseType: !558)
!558 = !DIBasicType(name: "char", size: 8, encoding: DW_ATE_signed_char)
!559 = !DISubprogram(name: "_S_check_init_len", linkageName: "_ZNSt6vectorImSaImEE17_S_check_init_lenEmRKS0_", scope: !50, file: !41, line: 1767, type: !560, scopeLine: 1767, flags: DIFlagProtected | DIFlagPrototyped | DIFlagStaticMember, spFlags: 0)
!560 = !DISubroutineType(types: !561)
!561 = !{!555, !40, !322}
!562 = !DISubprogram(name: "_S_max_size", linkageName: "_ZNSt6vectorImSaImEE11_S_max_sizeERKS0_", scope: !50, file: !41, line: 1776, type: !563, scopeLine: 1776, flags: DIFlagProtected | DIFlagPrototyped | DIFlagStaticMember, spFlags: 0)
!563 = !DISubroutineType(types: !564)
!564 = !{!555, !565}
!565 = !DIDerivedType(tag: DW_TAG_reference_type, baseType: !566, size: 64)
!566 = !DIDerivedType(tag: DW_TAG_const_type, baseType: !308)
!567 = !DISubprogram(name: "_M_erase_at_end", linkageName: "_ZNSt6vectorImSaImEE15_M_erase_at_endEPm", scope: !50, file: !41, line: 1792, type: !568, scopeLine: 1792, flags: DIFlagProtected | DIFlagPrototyped, spFlags: 0)
!568 = !DISubroutineType(types: !569)
!569 = !{null, !318, !306}
!570 = !DISubprogram(name: "_M_erase", linkageName: "_ZNSt6vectorImSaImEE8_M_eraseEN9__gnu_cxx17__normal_iteratorIPmS1_EE", scope: !50, file: !41, line: 1804, type: !571, scopeLine: 1804, flags: DIFlagProtected | DIFlagPrototyped, spFlags: 0)
!571 = !DISubroutineType(types: !572)
!572 = !{!380, !318, !380}
!573 = !DISubprogram(name: "_M_erase", linkageName: "_ZNSt6vectorImSaImEE8_M_eraseEN9__gnu_cxx17__normal_iteratorIPmS1_EES5_", scope: !50, file: !41, line: 1807, type: !574, scopeLine: 1807, flags: DIFlagProtected | DIFlagPrototyped, spFlags: 0)
!574 = !DISubroutineType(types: !575)
!575 = !{!380, !318, !380, !380}
!576 = !DISubprogram(name: "_M_move_assign", linkageName: "_ZNSt6vectorImSaImEE14_M_move_assignEOS1_St17integral_constantIbLb1EE", scope: !50, file: !41, line: 1815, type: !577, scopeLine: 1815, flags: DIFlagPrototyped, spFlags: 0)
!577 = !DISubroutineType(types: !578)
!578 = !{null, !318, !342, !270}
!579 = !DISubprogram(name: "_M_move_assign", linkageName: "_ZNSt6vectorImSaImEE14_M_move_assignEOS1_St17integral_constantIbLb0EE", scope: !50, file: !41, line: 1826, type: !580, scopeLine: 1826, flags: DIFlagPrototyped, spFlags: 0)
!580 = !DISubroutineType(types: !581)
!581 = !{null, !318, !342, !289}
!582 = !DIDerivedType(tag: DW_TAG_typedef, name: "__bool_constant<_S_use_relocate()>", scope: !2, file: !271, line: 81, baseType: !272)
!583 = !{!0, !28}
!584 = !{!585, !603, !606, !611, !619, !627, !631, !638, !642, !646, !648, !650, !654, !663, !667, !673, !679, !681, !685, !689, !693, !697, !708, !710, !714, !718, !722, !724, !730, !734, !738, !740, !742, !746, !755, !759, !763, !767, !769, !775, !777, !784, !789, !793, !797, !801, !805, !809, !811, !813, !817, !821, !825, !827, !831, !835, !837, !839, !843, !848, !853, !858, !859, !860, !861, !862, !863, !864, !865, !866, !867, !868, !922, !926, !930, !935, !939, !942, !943, !946, !948, !950, !952, !955, !958, !961, !964, !967, !969, !974, !978, !981, !984, !986, !988, !990, !992, !995, !998, !1001, !1004, !1007, !1009, !1013, !1017, !1022, !1028, !1030, !1032, !1034, !1036, !1038, !1040, !1042, !1044, !1046, !1048, !1050, !1052, !1054, !1058, !1062, !1068, !1072, !1077, !1079, !1083, !1087, !1091, !1099, !1103, !1107, !1111, !1115, !1119, !1123, !1127, !1131, !1135, !1139, !1143, !1147, !1149, !1153, !1157, !1161, !1167, !1171, !1175, !1177, !1181, !1185, !1191, !1193, !1197, !1201, !1205, !1209, !1213, !1217, !1221, !1222, !1223, !1224, !1226, !1227, !1228, !1229, !1230, !1231, !1232, !1236, !1242, !1247, !1251, !1253, !1255, !1257, !1259, !1266, !1270, !1274, !1278, !1282, !1286, !1291, !1295, !1297, !1301, !1307, !1311, !1316, !1318, !1320, !1324, !1328, !1330, !1332, !1334, !1336, !1340, !1342, !1344, !1348, !1352, !1356, !1360, !1364, !1368, !1370, !1374, !1378, !1382, !1386, !1388, !1390, !1394, !1398, !1399, !1400, !1401, !1402, !1403, !1409, !1412, !1413, !1415, !1417, !1419, !1421, !1425, !1427, !1429, !1431, !1433, !1435, !1437, !1439, !1441, !1445, !1449, !1451, !1455, !1459}
!585 = !DIImportedEntity(tag: DW_TAG_imported_declaration, scope: !2, entity: !586, file: !602, line: 64)
!586 = !DIDerivedType(tag: DW_TAG_typedef, name: "mbstate_t", file: !587, line: 6, baseType: !588)
!587 = !DIFile(filename: "/usr/include/bits/types/mbstate_t.h", directory: "")
!588 = !DIDerivedType(tag: DW_TAG_typedef, name: "__mbstate_t", file: !589, line: 21, baseType: !590)
!589 = !DIFile(filename: "/usr/include/bits/types/__mbstate_t.h", directory: "")
!590 = distinct !DICompositeType(tag: DW_TAG_structure_type, file: !589, line: 13, size: 64, flags: DIFlagTypePassByValue, elements: !591, identifier: "_ZTS11__mbstate_t")
!591 = !{!592, !593}
!592 = !DIDerivedType(tag: DW_TAG_member, name: "__count", scope: !590, file: !589, line: 15, baseType: !11, size: 32)
!593 = !DIDerivedType(tag: DW_TAG_member, name: "__value", scope: !590, file: !589, line: 20, baseType: !594, size: 32, offset: 32)
!594 = distinct !DICompositeType(tag: DW_TAG_union_type, scope: !590, file: !589, line: 16, size: 32, flags: DIFlagTypePassByValue, elements: !595, identifier: "_ZTSN11__mbstate_tUt_E")
!595 = !{!596, !598}
!596 = !DIDerivedType(tag: DW_TAG_member, name: "__wch", scope: !594, file: !589, line: 18, baseType: !597, size: 32)
!597 = !DIBasicType(name: "unsigned int", size: 32, encoding: DW_ATE_unsigned)
!598 = !DIDerivedType(tag: DW_TAG_member, name: "__wchb", scope: !594, file: !589, line: 19, baseType: !599, size: 32)
!599 = !DICompositeType(tag: DW_TAG_array_type, baseType: !558, size: 32, elements: !600)
!600 = !{!601}
!601 = !DISubrange(count: 4)
!602 = !DIFile(filename: "/usr/lib64/gcc/x86_64-pc-linux-gnu/10.2.0/../../../../include/c++/10.2.0/cwchar", directory: "")
!603 = !DIImportedEntity(tag: DW_TAG_imported_declaration, scope: !2, entity: !604, file: !602, line: 141)
!604 = !DIDerivedType(tag: DW_TAG_typedef, name: "wint_t", file: !605, line: 20, baseType: !597)
!605 = !DIFile(filename: "/usr/include/bits/types/wint_t.h", directory: "")
!606 = !DIImportedEntity(tag: DW_TAG_imported_declaration, scope: !2, entity: !607, file: !602, line: 143)
!607 = !DISubprogram(name: "btowc", scope: !608, file: !608, line: 284, type: !609, flags: DIFlagPrototyped, spFlags: 0)
!608 = !DIFile(filename: "/usr/include/wchar.h", directory: "")
!609 = !DISubroutineType(types: !610)
!610 = !{!604, !11}
!611 = !DIImportedEntity(tag: DW_TAG_imported_declaration, scope: !2, entity: !612, file: !602, line: 144)
!612 = !DISubprogram(name: "fgetwc", scope: !608, file: !608, line: 729, type: !613, flags: DIFlagPrototyped, spFlags: 0)
!613 = !DISubroutineType(types: !614)
!614 = !{!604, !615}
!615 = !DIDerivedType(tag: DW_TAG_pointer_type, baseType: !616, size: 64)
!616 = !DIDerivedType(tag: DW_TAG_typedef, name: "__FILE", file: !617, line: 5, baseType: !618)
!617 = !DIFile(filename: "/usr/include/bits/types/__FILE.h", directory: "")
!618 = !DICompositeType(tag: DW_TAG_structure_type, name: "_IO_FILE", file: !617, line: 4, flags: DIFlagFwdDecl, identifier: "_ZTS8_IO_FILE")
!619 = !DIImportedEntity(tag: DW_TAG_imported_declaration, scope: !2, entity: !620, file: !602, line: 145)
!620 = !DISubprogram(name: "fgetws", scope: !608, file: !608, line: 758, type: !621, flags: DIFlagPrototyped, spFlags: 0)
!621 = !DISubroutineType(types: !622)
!622 = !{!623, !625, !11, !626}
!623 = !DIDerivedType(tag: DW_TAG_pointer_type, baseType: !624, size: 64)
!624 = !DIBasicType(name: "wchar_t", size: 32, encoding: DW_ATE_signed)
!625 = !DIDerivedType(tag: DW_TAG_restrict_type, baseType: !623)
!626 = !DIDerivedType(tag: DW_TAG_restrict_type, baseType: !615)
!627 = !DIImportedEntity(tag: DW_TAG_imported_declaration, scope: !2, entity: !628, file: !602, line: 146)
!628 = !DISubprogram(name: "fputwc", scope: !608, file: !608, line: 743, type: !629, flags: DIFlagPrototyped, spFlags: 0)
!629 = !DISubroutineType(types: !630)
!630 = !{!604, !624, !615}
!631 = !DIImportedEntity(tag: DW_TAG_imported_declaration, scope: !2, entity: !632, file: !602, line: 147)
!632 = !DISubprogram(name: "fputws", scope: !608, file: !608, line: 765, type: !633, flags: DIFlagPrototyped, spFlags: 0)
!633 = !DISubroutineType(types: !634)
!634 = !{!11, !635, !626}
!635 = !DIDerivedType(tag: DW_TAG_restrict_type, baseType: !636)
!636 = !DIDerivedType(tag: DW_TAG_pointer_type, baseType: !637, size: 64)
!637 = !DIDerivedType(tag: DW_TAG_const_type, baseType: !624)
!638 = !DIImportedEntity(tag: DW_TAG_imported_declaration, scope: !2, entity: !639, file: !602, line: 148)
!639 = !DISubprogram(name: "fwide", scope: !608, file: !608, line: 573, type: !640, flags: DIFlagPrototyped, spFlags: 0)
!640 = !DISubroutineType(types: !641)
!641 = !{!11, !615, !11}
!642 = !DIImportedEntity(tag: DW_TAG_imported_declaration, scope: !2, entity: !643, file: !602, line: 149)
!643 = !DISubprogram(name: "fwprintf", scope: !608, file: !608, line: 580, type: !644, flags: DIFlagPrototyped, spFlags: 0)
!644 = !DISubroutineType(types: !645)
!645 = !{!11, !626, !635, null}
!646 = !DIImportedEntity(tag: DW_TAG_imported_declaration, scope: !2, entity: !647, file: !602, line: 150)
!647 = !DISubprogram(name: "fwscanf", linkageName: "__isoc99_fwscanf", scope: !608, file: !608, line: 642, type: !644, flags: DIFlagPrototyped, spFlags: 0)
!648 = !DIImportedEntity(tag: DW_TAG_imported_declaration, scope: !2, entity: !649, file: !602, line: 151)
!649 = !DISubprogram(name: "getwc", scope: !608, file: !608, line: 730, type: !613, flags: DIFlagPrototyped, spFlags: 0)
!650 = !DIImportedEntity(tag: DW_TAG_imported_declaration, scope: !2, entity: !651, file: !602, line: 152)
!651 = !DISubprogram(name: "getwchar", scope: !608, file: !608, line: 736, type: !652, flags: DIFlagPrototyped, spFlags: 0)
!652 = !DISubroutineType(types: !653)
!653 = !{!604}
!654 = !DIImportedEntity(tag: DW_TAG_imported_declaration, scope: !2, entity: !655, file: !602, line: 153)
!655 = !DISubprogram(name: "mbrlen", scope: !608, file: !608, line: 307, type: !656, flags: DIFlagPrototyped, spFlags: 0)
!656 = !DISubroutineType(types: !657)
!657 = !{!658, !660, !658, !661}
!658 = !DIDerivedType(tag: DW_TAG_typedef, name: "size_t", file: !659, line: 46, baseType: !44)
!659 = !DIFile(filename: "llvm-project/build/lib/clang/10.0.1/include/stddef.h", directory: "/home/yanze/code")
!660 = !DIDerivedType(tag: DW_TAG_restrict_type, baseType: !556)
!661 = !DIDerivedType(tag: DW_TAG_restrict_type, baseType: !662)
!662 = !DIDerivedType(tag: DW_TAG_pointer_type, baseType: !586, size: 64)
!663 = !DIImportedEntity(tag: DW_TAG_imported_declaration, scope: !2, entity: !664, file: !602, line: 154)
!664 = !DISubprogram(name: "mbrtowc", scope: !608, file: !608, line: 296, type: !665, flags: DIFlagPrototyped, spFlags: 0)
!665 = !DISubroutineType(types: !666)
!666 = !{!658, !625, !660, !658, !661}
!667 = !DIImportedEntity(tag: DW_TAG_imported_declaration, scope: !2, entity: !668, file: !602, line: 155)
!668 = !DISubprogram(name: "mbsinit", scope: !608, file: !608, line: 292, type: !669, flags: DIFlagPrototyped, spFlags: 0)
!669 = !DISubroutineType(types: !670)
!670 = !{!11, !671}
!671 = !DIDerivedType(tag: DW_TAG_pointer_type, baseType: !672, size: 64)
!672 = !DIDerivedType(tag: DW_TAG_const_type, baseType: !586)
!673 = !DIImportedEntity(tag: DW_TAG_imported_declaration, scope: !2, entity: !674, file: !602, line: 156)
!674 = !DISubprogram(name: "mbsrtowcs", scope: !608, file: !608, line: 337, type: !675, flags: DIFlagPrototyped, spFlags: 0)
!675 = !DISubroutineType(types: !676)
!676 = !{!658, !625, !677, !658, !661}
!677 = !DIDerivedType(tag: DW_TAG_restrict_type, baseType: !678)
!678 = !DIDerivedType(tag: DW_TAG_pointer_type, baseType: !556, size: 64)
!679 = !DIImportedEntity(tag: DW_TAG_imported_declaration, scope: !2, entity: !680, file: !602, line: 157)
!680 = !DISubprogram(name: "putwc", scope: !608, file: !608, line: 744, type: !629, flags: DIFlagPrototyped, spFlags: 0)
!681 = !DIImportedEntity(tag: DW_TAG_imported_declaration, scope: !2, entity: !682, file: !602, line: 158)
!682 = !DISubprogram(name: "putwchar", scope: !608, file: !608, line: 750, type: !683, flags: DIFlagPrototyped, spFlags: 0)
!683 = !DISubroutineType(types: !684)
!684 = !{!604, !624}
!685 = !DIImportedEntity(tag: DW_TAG_imported_declaration, scope: !2, entity: !686, file: !602, line: 160)
!686 = !DISubprogram(name: "swprintf", scope: !608, file: !608, line: 590, type: !687, flags: DIFlagPrototyped, spFlags: 0)
!687 = !DISubroutineType(types: !688)
!688 = !{!11, !625, !658, !635, null}
!689 = !DIImportedEntity(tag: DW_TAG_imported_declaration, scope: !2, entity: !690, file: !602, line: 162)
!690 = !DISubprogram(name: "swscanf", linkageName: "__isoc99_swscanf", scope: !608, file: !608, line: 649, type: !691, flags: DIFlagPrototyped, spFlags: 0)
!691 = !DISubroutineType(types: !692)
!692 = !{!11, !635, !635, null}
!693 = !DIImportedEntity(tag: DW_TAG_imported_declaration, scope: !2, entity: !694, file: !602, line: 163)
!694 = !DISubprogram(name: "ungetwc", scope: !608, file: !608, line: 773, type: !695, flags: DIFlagPrototyped, spFlags: 0)
!695 = !DISubroutineType(types: !696)
!696 = !{!604, !604, !615}
!697 = !DIImportedEntity(tag: DW_TAG_imported_declaration, scope: !2, entity: !698, file: !602, line: 164)
!698 = !DISubprogram(name: "vfwprintf", scope: !608, file: !608, line: 598, type: !699, flags: DIFlagPrototyped, spFlags: 0)
!699 = !DISubroutineType(types: !700)
!700 = !{!11, !626, !635, !701}
!701 = !DIDerivedType(tag: DW_TAG_pointer_type, baseType: !702, size: 64)
!702 = distinct !DICompositeType(tag: DW_TAG_structure_type, name: "__va_list_tag", file: !31, size: 192, flags: DIFlagTypePassByValue, elements: !703, identifier: "_ZTS13__va_list_tag")
!703 = !{!704, !705, !706, !707}
!704 = !DIDerivedType(tag: DW_TAG_member, name: "gp_offset", scope: !702, file: !31, baseType: !597, size: 32)
!705 = !DIDerivedType(tag: DW_TAG_member, name: "fp_offset", scope: !702, file: !31, baseType: !597, size: 32, offset: 32)
!706 = !DIDerivedType(tag: DW_TAG_member, name: "overflow_arg_area", scope: !702, file: !31, baseType: !34, size: 64, offset: 64)
!707 = !DIDerivedType(tag: DW_TAG_member, name: "reg_save_area", scope: !702, file: !31, baseType: !34, size: 64, offset: 128)
!708 = !DIImportedEntity(tag: DW_TAG_imported_declaration, scope: !2, entity: !709, file: !602, line: 166)
!709 = !DISubprogram(name: "vfwscanf", linkageName: "__isoc99_vfwscanf", scope: !608, file: !608, line: 696, type: !699, flags: DIFlagPrototyped, spFlags: 0)
!710 = !DIImportedEntity(tag: DW_TAG_imported_declaration, scope: !2, entity: !711, file: !602, line: 169)
!711 = !DISubprogram(name: "vswprintf", scope: !608, file: !608, line: 611, type: !712, flags: DIFlagPrototyped, spFlags: 0)
!712 = !DISubroutineType(types: !713)
!713 = !{!11, !625, !658, !635, !701}
!714 = !DIImportedEntity(tag: DW_TAG_imported_declaration, scope: !2, entity: !715, file: !602, line: 172)
!715 = !DISubprogram(name: "vswscanf", linkageName: "__isoc99_vswscanf", scope: !608, file: !608, line: 703, type: !716, flags: DIFlagPrototyped, spFlags: 0)
!716 = !DISubroutineType(types: !717)
!717 = !{!11, !635, !635, !701}
!718 = !DIImportedEntity(tag: DW_TAG_imported_declaration, scope: !2, entity: !719, file: !602, line: 174)
!719 = !DISubprogram(name: "vwprintf", scope: !608, file: !608, line: 606, type: !720, flags: DIFlagPrototyped, spFlags: 0)
!720 = !DISubroutineType(types: !721)
!721 = !{!11, !635, !701}
!722 = !DIImportedEntity(tag: DW_TAG_imported_declaration, scope: !2, entity: !723, file: !602, line: 176)
!723 = !DISubprogram(name: "vwscanf", linkageName: "__isoc99_vwscanf", scope: !608, file: !608, line: 700, type: !720, flags: DIFlagPrototyped, spFlags: 0)
!724 = !DIImportedEntity(tag: DW_TAG_imported_declaration, scope: !2, entity: !725, file: !602, line: 178)
!725 = !DISubprogram(name: "wcrtomb", scope: !608, file: !608, line: 301, type: !726, flags: DIFlagPrototyped, spFlags: 0)
!726 = !DISubroutineType(types: !727)
!727 = !{!658, !728, !624, !661}
!728 = !DIDerivedType(tag: DW_TAG_restrict_type, baseType: !729)
!729 = !DIDerivedType(tag: DW_TAG_pointer_type, baseType: !558, size: 64)
!730 = !DIImportedEntity(tag: DW_TAG_imported_declaration, scope: !2, entity: !731, file: !602, line: 179)
!731 = !DISubprogram(name: "wcscat", scope: !608, file: !608, line: 97, type: !732, flags: DIFlagPrototyped, spFlags: 0)
!732 = !DISubroutineType(types: !733)
!733 = !{!623, !625, !635}
!734 = !DIImportedEntity(tag: DW_TAG_imported_declaration, scope: !2, entity: !735, file: !602, line: 180)
!735 = !DISubprogram(name: "wcscmp", scope: !608, file: !608, line: 106, type: !736, flags: DIFlagPrototyped, spFlags: 0)
!736 = !DISubroutineType(types: !737)
!737 = !{!11, !636, !636}
!738 = !DIImportedEntity(tag: DW_TAG_imported_declaration, scope: !2, entity: !739, file: !602, line: 181)
!739 = !DISubprogram(name: "wcscoll", scope: !608, file: !608, line: 131, type: !736, flags: DIFlagPrototyped, spFlags: 0)
!740 = !DIImportedEntity(tag: DW_TAG_imported_declaration, scope: !2, entity: !741, file: !602, line: 182)
!741 = !DISubprogram(name: "wcscpy", scope: !608, file: !608, line: 87, type: !732, flags: DIFlagPrototyped, spFlags: 0)
!742 = !DIImportedEntity(tag: DW_TAG_imported_declaration, scope: !2, entity: !743, file: !602, line: 183)
!743 = !DISubprogram(name: "wcscspn", scope: !608, file: !608, line: 187, type: !744, flags: DIFlagPrototyped, spFlags: 0)
!744 = !DISubroutineType(types: !745)
!745 = !{!658, !636, !636}
!746 = !DIImportedEntity(tag: DW_TAG_imported_declaration, scope: !2, entity: !747, file: !602, line: 184)
!747 = !DISubprogram(name: "wcsftime", scope: !608, file: !608, line: 837, type: !748, flags: DIFlagPrototyped, spFlags: 0)
!748 = !DISubroutineType(types: !749)
!749 = !{!658, !625, !658, !635, !750}
!750 = !DIDerivedType(tag: DW_TAG_restrict_type, baseType: !751)
!751 = !DIDerivedType(tag: DW_TAG_pointer_type, baseType: !752, size: 64)
!752 = !DIDerivedType(tag: DW_TAG_const_type, baseType: !753)
!753 = !DICompositeType(tag: DW_TAG_structure_type, name: "tm", file: !754, line: 7, flags: DIFlagFwdDecl, identifier: "_ZTS2tm")
!754 = !DIFile(filename: "/usr/include/bits/types/struct_tm.h", directory: "")
!755 = !DIImportedEntity(tag: DW_TAG_imported_declaration, scope: !2, entity: !756, file: !602, line: 185)
!756 = !DISubprogram(name: "wcslen", scope: !608, file: !608, line: 222, type: !757, flags: DIFlagPrototyped, spFlags: 0)
!757 = !DISubroutineType(types: !758)
!758 = !{!658, !636}
!759 = !DIImportedEntity(tag: DW_TAG_imported_declaration, scope: !2, entity: !760, file: !602, line: 186)
!760 = !DISubprogram(name: "wcsncat", scope: !608, file: !608, line: 101, type: !761, flags: DIFlagPrototyped, spFlags: 0)
!761 = !DISubroutineType(types: !762)
!762 = !{!623, !625, !635, !658}
!763 = !DIImportedEntity(tag: DW_TAG_imported_declaration, scope: !2, entity: !764, file: !602, line: 187)
!764 = !DISubprogram(name: "wcsncmp", scope: !608, file: !608, line: 109, type: !765, flags: DIFlagPrototyped, spFlags: 0)
!765 = !DISubroutineType(types: !766)
!766 = !{!11, !636, !636, !658}
!767 = !DIImportedEntity(tag: DW_TAG_imported_declaration, scope: !2, entity: !768, file: !602, line: 188)
!768 = !DISubprogram(name: "wcsncpy", scope: !608, file: !608, line: 92, type: !761, flags: DIFlagPrototyped, spFlags: 0)
!769 = !DIImportedEntity(tag: DW_TAG_imported_declaration, scope: !2, entity: !770, file: !602, line: 189)
!770 = !DISubprogram(name: "wcsrtombs", scope: !608, file: !608, line: 343, type: !771, flags: DIFlagPrototyped, spFlags: 0)
!771 = !DISubroutineType(types: !772)
!772 = !{!658, !728, !773, !658, !661}
!773 = !DIDerivedType(tag: DW_TAG_restrict_type, baseType: !774)
!774 = !DIDerivedType(tag: DW_TAG_pointer_type, baseType: !636, size: 64)
!775 = !DIImportedEntity(tag: DW_TAG_imported_declaration, scope: !2, entity: !776, file: !602, line: 190)
!776 = !DISubprogram(name: "wcsspn", scope: !608, file: !608, line: 191, type: !744, flags: DIFlagPrototyped, spFlags: 0)
!777 = !DIImportedEntity(tag: DW_TAG_imported_declaration, scope: !2, entity: !778, file: !602, line: 191)
!778 = !DISubprogram(name: "wcstod", scope: !608, file: !608, line: 377, type: !779, flags: DIFlagPrototyped, spFlags: 0)
!779 = !DISubroutineType(types: !780)
!780 = !{!781, !635, !782}
!781 = !DIBasicType(name: "double", size: 64, encoding: DW_ATE_float)
!782 = !DIDerivedType(tag: DW_TAG_restrict_type, baseType: !783)
!783 = !DIDerivedType(tag: DW_TAG_pointer_type, baseType: !623, size: 64)
!784 = !DIImportedEntity(tag: DW_TAG_imported_declaration, scope: !2, entity: !785, file: !602, line: 193)
!785 = !DISubprogram(name: "wcstof", scope: !608, file: !608, line: 382, type: !786, flags: DIFlagPrototyped, spFlags: 0)
!786 = !DISubroutineType(types: !787)
!787 = !{!788, !635, !782}
!788 = !DIBasicType(name: "float", size: 32, encoding: DW_ATE_float)
!789 = !DIImportedEntity(tag: DW_TAG_imported_declaration, scope: !2, entity: !790, file: !602, line: 195)
!790 = !DISubprogram(name: "wcstok", scope: !608, file: !608, line: 217, type: !791, flags: DIFlagPrototyped, spFlags: 0)
!791 = !DISubroutineType(types: !792)
!792 = !{!623, !625, !635, !782}
!793 = !DIImportedEntity(tag: DW_TAG_imported_declaration, scope: !2, entity: !794, file: !602, line: 196)
!794 = !DISubprogram(name: "wcstol", scope: !608, file: !608, line: 428, type: !795, flags: DIFlagPrototyped, spFlags: 0)
!795 = !DISubroutineType(types: !796)
!796 = !{!39, !635, !782, !11}
!797 = !DIImportedEntity(tag: DW_TAG_imported_declaration, scope: !2, entity: !798, file: !602, line: 197)
!798 = !DISubprogram(name: "wcstoul", scope: !608, file: !608, line: 433, type: !799, flags: DIFlagPrototyped, spFlags: 0)
!799 = !DISubroutineType(types: !800)
!800 = !{!44, !635, !782, !11}
!801 = !DIImportedEntity(tag: DW_TAG_imported_declaration, scope: !2, entity: !802, file: !602, line: 198)
!802 = !DISubprogram(name: "wcsxfrm", scope: !608, file: !608, line: 135, type: !803, flags: DIFlagPrototyped, spFlags: 0)
!803 = !DISubroutineType(types: !804)
!804 = !{!658, !625, !635, !658}
!805 = !DIImportedEntity(tag: DW_TAG_imported_declaration, scope: !2, entity: !806, file: !602, line: 199)
!806 = !DISubprogram(name: "wctob", scope: !608, file: !608, line: 288, type: !807, flags: DIFlagPrototyped, spFlags: 0)
!807 = !DISubroutineType(types: !808)
!808 = !{!11, !604}
!809 = !DIImportedEntity(tag: DW_TAG_imported_declaration, scope: !2, entity: !810, file: !602, line: 200)
!810 = !DISubprogram(name: "wmemcmp", scope: !608, file: !608, line: 258, type: !765, flags: DIFlagPrototyped, spFlags: 0)
!811 = !DIImportedEntity(tag: DW_TAG_imported_declaration, scope: !2, entity: !812, file: !602, line: 201)
!812 = !DISubprogram(name: "wmemcpy", scope: !608, file: !608, line: 262, type: !761, flags: DIFlagPrototyped, spFlags: 0)
!813 = !DIImportedEntity(tag: DW_TAG_imported_declaration, scope: !2, entity: !814, file: !602, line: 202)
!814 = !DISubprogram(name: "wmemmove", scope: !608, file: !608, line: 267, type: !815, flags: DIFlagPrototyped, spFlags: 0)
!815 = !DISubroutineType(types: !816)
!816 = !{!623, !623, !636, !658}
!817 = !DIImportedEntity(tag: DW_TAG_imported_declaration, scope: !2, entity: !818, file: !602, line: 203)
!818 = !DISubprogram(name: "wmemset", scope: !608, file: !608, line: 271, type: !819, flags: DIFlagPrototyped, spFlags: 0)
!819 = !DISubroutineType(types: !820)
!820 = !{!623, !623, !624, !658}
!821 = !DIImportedEntity(tag: DW_TAG_imported_declaration, scope: !2, entity: !822, file: !602, line: 204)
!822 = !DISubprogram(name: "wprintf", scope: !608, file: !608, line: 587, type: !823, flags: DIFlagPrototyped, spFlags: 0)
!823 = !DISubroutineType(types: !824)
!824 = !{!11, !635, null}
!825 = !DIImportedEntity(tag: DW_TAG_imported_declaration, scope: !2, entity: !826, file: !602, line: 205)
!826 = !DISubprogram(name: "wscanf", linkageName: "__isoc99_wscanf", scope: !608, file: !608, line: 646, type: !823, flags: DIFlagPrototyped, spFlags: 0)
!827 = !DIImportedEntity(tag: DW_TAG_imported_declaration, scope: !2, entity: !828, file: !602, line: 206)
!828 = !DISubprogram(name: "wcschr", scope: !608, file: !608, line: 164, type: !829, flags: DIFlagPrototyped, spFlags: 0)
!829 = !DISubroutineType(types: !830)
!830 = !{!623, !636, !624}
!831 = !DIImportedEntity(tag: DW_TAG_imported_declaration, scope: !2, entity: !832, file: !602, line: 207)
!832 = !DISubprogram(name: "wcspbrk", scope: !608, file: !608, line: 201, type: !833, flags: DIFlagPrototyped, spFlags: 0)
!833 = !DISubroutineType(types: !834)
!834 = !{!623, !636, !636}
!835 = !DIImportedEntity(tag: DW_TAG_imported_declaration, scope: !2, entity: !836, file: !602, line: 208)
!836 = !DISubprogram(name: "wcsrchr", scope: !608, file: !608, line: 174, type: !829, flags: DIFlagPrototyped, spFlags: 0)
!837 = !DIImportedEntity(tag: DW_TAG_imported_declaration, scope: !2, entity: !838, file: !602, line: 209)
!838 = !DISubprogram(name: "wcsstr", scope: !608, file: !608, line: 212, type: !833, flags: DIFlagPrototyped, spFlags: 0)
!839 = !DIImportedEntity(tag: DW_TAG_imported_declaration, scope: !2, entity: !840, file: !602, line: 210)
!840 = !DISubprogram(name: "wmemchr", scope: !608, file: !608, line: 253, type: !841, flags: DIFlagPrototyped, spFlags: 0)
!841 = !DISubroutineType(types: !842)
!842 = !{!623, !636, !624, !658}
!843 = !DIImportedEntity(tag: DW_TAG_imported_declaration, scope: !64, entity: !844, file: !602, line: 251)
!844 = !DISubprogram(name: "wcstold", scope: !608, file: !608, line: 384, type: !845, flags: DIFlagPrototyped, spFlags: 0)
!845 = !DISubroutineType(types: !846)
!846 = !{!847, !635, !782}
!847 = !DIBasicType(name: "long double", size: 128, encoding: DW_ATE_float)
!848 = !DIImportedEntity(tag: DW_TAG_imported_declaration, scope: !64, entity: !849, file: !602, line: 260)
!849 = !DISubprogram(name: "wcstoll", scope: !608, file: !608, line: 441, type: !850, flags: DIFlagPrototyped, spFlags: 0)
!850 = !DISubroutineType(types: !851)
!851 = !{!852, !635, !782, !11}
!852 = !DIBasicType(name: "long long int", size: 64, encoding: DW_ATE_signed)
!853 = !DIImportedEntity(tag: DW_TAG_imported_declaration, scope: !64, entity: !854, file: !602, line: 261)
!854 = !DISubprogram(name: "wcstoull", scope: !608, file: !608, line: 448, type: !855, flags: DIFlagPrototyped, spFlags: 0)
!855 = !DISubroutineType(types: !856)
!856 = !{!857, !635, !782, !11}
!857 = !DIBasicType(name: "long long unsigned int", size: 64, encoding: DW_ATE_unsigned)
!858 = !DIImportedEntity(tag: DW_TAG_imported_declaration, scope: !2, entity: !844, file: !602, line: 267)
!859 = !DIImportedEntity(tag: DW_TAG_imported_declaration, scope: !2, entity: !849, file: !602, line: 268)
!860 = !DIImportedEntity(tag: DW_TAG_imported_declaration, scope: !2, entity: !854, file: !602, line: 269)
!861 = !DIImportedEntity(tag: DW_TAG_imported_declaration, scope: !2, entity: !785, file: !602, line: 283)
!862 = !DIImportedEntity(tag: DW_TAG_imported_declaration, scope: !2, entity: !709, file: !602, line: 286)
!863 = !DIImportedEntity(tag: DW_TAG_imported_declaration, scope: !2, entity: !715, file: !602, line: 289)
!864 = !DIImportedEntity(tag: DW_TAG_imported_declaration, scope: !2, entity: !723, file: !602, line: 292)
!865 = !DIImportedEntity(tag: DW_TAG_imported_declaration, scope: !2, entity: !844, file: !602, line: 296)
!866 = !DIImportedEntity(tag: DW_TAG_imported_declaration, scope: !2, entity: !849, file: !602, line: 297)
!867 = !DIImportedEntity(tag: DW_TAG_imported_declaration, scope: !2, entity: !854, file: !602, line: 298)
!868 = !DIImportedEntity(tag: DW_TAG_imported_declaration, scope: !2, entity: !869, file: !870, line: 58)
!869 = distinct !DICompositeType(tag: DW_TAG_class_type, name: "exception_ptr", scope: !871, file: !870, line: 80, size: 64, flags: DIFlagTypePassByReference | DIFlagNonTrivial, elements: !872, identifier: "_ZTSNSt15__exception_ptr13exception_ptrE")
!870 = !DIFile(filename: "/usr/lib64/gcc/x86_64-pc-linux-gnu/10.2.0/../../../../include/c++/10.2.0/bits/exception_ptr.h", directory: "")
!871 = !DINamespace(name: "__exception_ptr", scope: !2)
!872 = !{!873, !874, !878, !881, !882, !887, !888, !892, !897, !901, !905, !908, !909, !912, !915}
!873 = !DIDerivedType(tag: DW_TAG_member, name: "_M_exception_object", scope: !869, file: !870, line: 82, baseType: !34, size: 64)
!874 = !DISubprogram(name: "exception_ptr", scope: !869, file: !870, line: 84, type: !875, scopeLine: 84, flags: DIFlagExplicit | DIFlagPrototyped, spFlags: 0)
!875 = !DISubroutineType(types: !876)
!876 = !{null, !877, !34}
!877 = !DIDerivedType(tag: DW_TAG_pointer_type, baseType: !869, size: 64, flags: DIFlagArtificial | DIFlagObjectPointer)
!878 = !DISubprogram(name: "_M_addref", linkageName: "_ZNSt15__exception_ptr13exception_ptr9_M_addrefEv", scope: !869, file: !870, line: 86, type: !879, scopeLine: 86, flags: DIFlagPrototyped, spFlags: 0)
!879 = !DISubroutineType(types: !880)
!880 = !{null, !877}
!881 = !DISubprogram(name: "_M_release", linkageName: "_ZNSt15__exception_ptr13exception_ptr10_M_releaseEv", scope: !869, file: !870, line: 87, type: !879, scopeLine: 87, flags: DIFlagPrototyped, spFlags: 0)
!882 = !DISubprogram(name: "_M_get", linkageName: "_ZNKSt15__exception_ptr13exception_ptr6_M_getEv", scope: !869, file: !870, line: 89, type: !883, scopeLine: 89, flags: DIFlagPrototyped, spFlags: 0)
!883 = !DISubroutineType(types: !884)
!884 = !{!34, !885}
!885 = !DIDerivedType(tag: DW_TAG_pointer_type, baseType: !886, size: 64, flags: DIFlagArtificial | DIFlagObjectPointer)
!886 = !DIDerivedType(tag: DW_TAG_const_type, baseType: !869)
!887 = !DISubprogram(name: "exception_ptr", scope: !869, file: !870, line: 97, type: !879, scopeLine: 97, flags: DIFlagPublic | DIFlagPrototyped, spFlags: 0)
!888 = !DISubprogram(name: "exception_ptr", scope: !869, file: !870, line: 99, type: !889, scopeLine: 99, flags: DIFlagPublic | DIFlagPrototyped, spFlags: 0)
!889 = !DISubroutineType(types: !890)
!890 = !{null, !877, !891}
!891 = !DIDerivedType(tag: DW_TAG_reference_type, baseType: !886, size: 64)
!892 = !DISubprogram(name: "exception_ptr", scope: !869, file: !870, line: 102, type: !893, scopeLine: 102, flags: DIFlagPublic | DIFlagPrototyped, spFlags: 0)
!893 = !DISubroutineType(types: !894)
!894 = !{null, !877, !895}
!895 = !DIDerivedType(tag: DW_TAG_typedef, name: "nullptr_t", scope: !2, file: !43, line: 264, baseType: !896)
!896 = !DIBasicType(tag: DW_TAG_unspecified_type, name: "decltype(nullptr)")
!897 = !DISubprogram(name: "exception_ptr", scope: !869, file: !870, line: 106, type: !898, scopeLine: 106, flags: DIFlagPublic | DIFlagPrototyped, spFlags: 0)
!898 = !DISubroutineType(types: !899)
!899 = !{null, !877, !900}
!900 = !DIDerivedType(tag: DW_TAG_rvalue_reference_type, baseType: !869, size: 64)
!901 = !DISubprogram(name: "operator=", linkageName: "_ZNSt15__exception_ptr13exception_ptraSERKS0_", scope: !869, file: !870, line: 119, type: !902, scopeLine: 119, flags: DIFlagPublic | DIFlagPrototyped, spFlags: 0)
!902 = !DISubroutineType(types: !903)
!903 = !{!904, !877, !891}
!904 = !DIDerivedType(tag: DW_TAG_reference_type, baseType: !869, size: 64)
!905 = !DISubprogram(name: "operator=", linkageName: "_ZNSt15__exception_ptr13exception_ptraSEOS0_", scope: !869, file: !870, line: 123, type: !906, scopeLine: 123, flags: DIFlagPublic | DIFlagPrototyped, spFlags: 0)
!906 = !DISubroutineType(types: !907)
!907 = !{!904, !877, !900}
!908 = !DISubprogram(name: "~exception_ptr", scope: !869, file: !870, line: 130, type: !879, scopeLine: 130, flags: DIFlagPublic | DIFlagPrototyped, spFlags: 0)
!909 = !DISubprogram(name: "swap", linkageName: "_ZNSt15__exception_ptr13exception_ptr4swapERS0_", scope: !869, file: !870, line: 133, type: !910, scopeLine: 133, flags: DIFlagPublic | DIFlagPrototyped, spFlags: 0)
!910 = !DISubroutineType(types: !911)
!911 = !{null, !877, !904}
!912 = !DISubprogram(name: "operator bool", linkageName: "_ZNKSt15__exception_ptr13exception_ptrcvbEv", scope: !869, file: !870, line: 145, type: !913, scopeLine: 145, flags: DIFlagPublic | DIFlagExplicit | DIFlagPrototyped, spFlags: 0)
!913 = !DISubroutineType(types: !914)
!914 = !{!13, !885}
!915 = !DISubprogram(name: "__cxa_exception_type", linkageName: "_ZNKSt15__exception_ptr13exception_ptr20__cxa_exception_typeEv", scope: !869, file: !870, line: 154, type: !916, scopeLine: 154, flags: DIFlagPublic | DIFlagPrototyped, spFlags: 0)
!916 = !DISubroutineType(types: !917)
!917 = !{!918, !885}
!918 = !DIDerivedType(tag: DW_TAG_pointer_type, baseType: !919, size: 64)
!919 = !DIDerivedType(tag: DW_TAG_const_type, baseType: !920)
!920 = !DICompositeType(tag: DW_TAG_class_type, name: "type_info", scope: !2, file: !921, line: 88, flags: DIFlagFwdDecl)
!921 = !DIFile(filename: "/usr/lib64/gcc/x86_64-pc-linux-gnu/10.2.0/../../../../include/c++/10.2.0/typeinfo", directory: "")
!922 = !DIImportedEntity(tag: DW_TAG_imported_declaration, scope: !871, entity: !923, file: !870, line: 74)
!923 = !DISubprogram(name: "rethrow_exception", linkageName: "_ZSt17rethrow_exceptionNSt15__exception_ptr13exception_ptrE", scope: !2, file: !870, line: 70, type: !924, flags: DIFlagPrototyped | DIFlagNoReturn, spFlags: 0)
!924 = !DISubroutineType(types: !925)
!925 = !{null, !869}
!926 = !DIImportedEntity(tag: DW_TAG_imported_module, scope: !927, entity: !928, file: !929, line: 58)
!927 = !DINamespace(name: "__gnu_debug", scope: null)
!928 = !DINamespace(name: "__debug", scope: !2)
!929 = !DIFile(filename: "/usr/lib64/gcc/x86_64-pc-linux-gnu/10.2.0/../../../../include/c++/10.2.0/debug/debug.h", directory: "")
!930 = !DIImportedEntity(tag: DW_TAG_imported_declaration, scope: !2, entity: !931, file: !934, line: 47)
!931 = !DIDerivedType(tag: DW_TAG_typedef, name: "int8_t", file: !36, line: 24, baseType: !932)
!932 = !DIDerivedType(tag: DW_TAG_typedef, name: "__int8_t", file: !38, line: 37, baseType: !933)
!933 = !DIBasicType(name: "signed char", size: 8, encoding: DW_ATE_signed_char)
!934 = !DIFile(filename: "/usr/lib64/gcc/x86_64-pc-linux-gnu/10.2.0/../../../../include/c++/10.2.0/cstdint", directory: "")
!935 = !DIImportedEntity(tag: DW_TAG_imported_declaration, scope: !2, entity: !936, file: !934, line: 48)
!936 = !DIDerivedType(tag: DW_TAG_typedef, name: "int16_t", file: !36, line: 25, baseType: !937)
!937 = !DIDerivedType(tag: DW_TAG_typedef, name: "__int16_t", file: !38, line: 39, baseType: !938)
!938 = !DIBasicType(name: "short", size: 16, encoding: DW_ATE_signed)
!939 = !DIImportedEntity(tag: DW_TAG_imported_declaration, scope: !2, entity: !940, file: !934, line: 49)
!940 = !DIDerivedType(tag: DW_TAG_typedef, name: "int32_t", file: !36, line: 26, baseType: !941)
!941 = !DIDerivedType(tag: DW_TAG_typedef, name: "__int32_t", file: !38, line: 41, baseType: !11)
!942 = !DIImportedEntity(tag: DW_TAG_imported_declaration, scope: !2, entity: !35, file: !934, line: 50)
!943 = !DIImportedEntity(tag: DW_TAG_imported_declaration, scope: !2, entity: !944, file: !934, line: 52)
!944 = !DIDerivedType(tag: DW_TAG_typedef, name: "int_fast8_t", file: !945, line: 58, baseType: !933)
!945 = !DIFile(filename: "/usr/include/stdint.h", directory: "")
!946 = !DIImportedEntity(tag: DW_TAG_imported_declaration, scope: !2, entity: !947, file: !934, line: 53)
!947 = !DIDerivedType(tag: DW_TAG_typedef, name: "int_fast16_t", file: !945, line: 60, baseType: !39)
!948 = !DIImportedEntity(tag: DW_TAG_imported_declaration, scope: !2, entity: !949, file: !934, line: 54)
!949 = !DIDerivedType(tag: DW_TAG_typedef, name: "int_fast32_t", file: !945, line: 61, baseType: !39)
!950 = !DIImportedEntity(tag: DW_TAG_imported_declaration, scope: !2, entity: !951, file: !934, line: 55)
!951 = !DIDerivedType(tag: DW_TAG_typedef, name: "int_fast64_t", file: !945, line: 62, baseType: !39)
!952 = !DIImportedEntity(tag: DW_TAG_imported_declaration, scope: !2, entity: !953, file: !934, line: 57)
!953 = !DIDerivedType(tag: DW_TAG_typedef, name: "int_least8_t", file: !945, line: 43, baseType: !954)
!954 = !DIDerivedType(tag: DW_TAG_typedef, name: "__int_least8_t", file: !38, line: 52, baseType: !932)
!955 = !DIImportedEntity(tag: DW_TAG_imported_declaration, scope: !2, entity: !956, file: !934, line: 58)
!956 = !DIDerivedType(tag: DW_TAG_typedef, name: "int_least16_t", file: !945, line: 44, baseType: !957)
!957 = !DIDerivedType(tag: DW_TAG_typedef, name: "__int_least16_t", file: !38, line: 54, baseType: !937)
!958 = !DIImportedEntity(tag: DW_TAG_imported_declaration, scope: !2, entity: !959, file: !934, line: 59)
!959 = !DIDerivedType(tag: DW_TAG_typedef, name: "int_least32_t", file: !945, line: 45, baseType: !960)
!960 = !DIDerivedType(tag: DW_TAG_typedef, name: "__int_least32_t", file: !38, line: 56, baseType: !941)
!961 = !DIImportedEntity(tag: DW_TAG_imported_declaration, scope: !2, entity: !962, file: !934, line: 60)
!962 = !DIDerivedType(tag: DW_TAG_typedef, name: "int_least64_t", file: !945, line: 46, baseType: !963)
!963 = !DIDerivedType(tag: DW_TAG_typedef, name: "__int_least64_t", file: !38, line: 58, baseType: !37)
!964 = !DIImportedEntity(tag: DW_TAG_imported_declaration, scope: !2, entity: !965, file: !934, line: 62)
!965 = !DIDerivedType(tag: DW_TAG_typedef, name: "intmax_t", file: !945, line: 101, baseType: !966)
!966 = !DIDerivedType(tag: DW_TAG_typedef, name: "__intmax_t", file: !38, line: 72, baseType: !39)
!967 = !DIImportedEntity(tag: DW_TAG_imported_declaration, scope: !2, entity: !968, file: !934, line: 63)
!968 = !DIDerivedType(tag: DW_TAG_typedef, name: "intptr_t", file: !945, line: 87, baseType: !39)
!969 = !DIImportedEntity(tag: DW_TAG_imported_declaration, scope: !2, entity: !970, file: !934, line: 65)
!970 = !DIDerivedType(tag: DW_TAG_typedef, name: "uint8_t", file: !971, line: 24, baseType: !972)
!971 = !DIFile(filename: "/usr/include/bits/stdint-uintn.h", directory: "")
!972 = !DIDerivedType(tag: DW_TAG_typedef, name: "__uint8_t", file: !38, line: 38, baseType: !973)
!973 = !DIBasicType(name: "unsigned char", size: 8, encoding: DW_ATE_unsigned_char)
!974 = !DIImportedEntity(tag: DW_TAG_imported_declaration, scope: !2, entity: !975, file: !934, line: 66)
!975 = !DIDerivedType(tag: DW_TAG_typedef, name: "uint16_t", file: !971, line: 25, baseType: !976)
!976 = !DIDerivedType(tag: DW_TAG_typedef, name: "__uint16_t", file: !38, line: 40, baseType: !977)
!977 = !DIBasicType(name: "unsigned short", size: 16, encoding: DW_ATE_unsigned)
!978 = !DIImportedEntity(tag: DW_TAG_imported_declaration, scope: !2, entity: !979, file: !934, line: 67)
!979 = !DIDerivedType(tag: DW_TAG_typedef, name: "uint32_t", file: !971, line: 26, baseType: !980)
!980 = !DIDerivedType(tag: DW_TAG_typedef, name: "__uint32_t", file: !38, line: 42, baseType: !597)
!981 = !DIImportedEntity(tag: DW_TAG_imported_declaration, scope: !2, entity: !982, file: !934, line: 68)
!982 = !DIDerivedType(tag: DW_TAG_typedef, name: "uint64_t", file: !971, line: 27, baseType: !983)
!983 = !DIDerivedType(tag: DW_TAG_typedef, name: "__uint64_t", file: !38, line: 45, baseType: !44)
!984 = !DIImportedEntity(tag: DW_TAG_imported_declaration, scope: !2, entity: !985, file: !934, line: 70)
!985 = !DIDerivedType(tag: DW_TAG_typedef, name: "uint_fast8_t", file: !945, line: 71, baseType: !973)
!986 = !DIImportedEntity(tag: DW_TAG_imported_declaration, scope: !2, entity: !987, file: !934, line: 71)
!987 = !DIDerivedType(tag: DW_TAG_typedef, name: "uint_fast16_t", file: !945, line: 73, baseType: !44)
!988 = !DIImportedEntity(tag: DW_TAG_imported_declaration, scope: !2, entity: !989, file: !934, line: 72)
!989 = !DIDerivedType(tag: DW_TAG_typedef, name: "uint_fast32_t", file: !945, line: 74, baseType: !44)
!990 = !DIImportedEntity(tag: DW_TAG_imported_declaration, scope: !2, entity: !991, file: !934, line: 73)
!991 = !DIDerivedType(tag: DW_TAG_typedef, name: "uint_fast64_t", file: !945, line: 75, baseType: !44)
!992 = !DIImportedEntity(tag: DW_TAG_imported_declaration, scope: !2, entity: !993, file: !934, line: 75)
!993 = !DIDerivedType(tag: DW_TAG_typedef, name: "uint_least8_t", file: !945, line: 49, baseType: !994)
!994 = !DIDerivedType(tag: DW_TAG_typedef, name: "__uint_least8_t", file: !38, line: 53, baseType: !972)
!995 = !DIImportedEntity(tag: DW_TAG_imported_declaration, scope: !2, entity: !996, file: !934, line: 76)
!996 = !DIDerivedType(tag: DW_TAG_typedef, name: "uint_least16_t", file: !945, line: 50, baseType: !997)
!997 = !DIDerivedType(tag: DW_TAG_typedef, name: "__uint_least16_t", file: !38, line: 55, baseType: !976)
!998 = !DIImportedEntity(tag: DW_TAG_imported_declaration, scope: !2, entity: !999, file: !934, line: 77)
!999 = !DIDerivedType(tag: DW_TAG_typedef, name: "uint_least32_t", file: !945, line: 51, baseType: !1000)
!1000 = !DIDerivedType(tag: DW_TAG_typedef, name: "__uint_least32_t", file: !38, line: 57, baseType: !980)
!1001 = !DIImportedEntity(tag: DW_TAG_imported_declaration, scope: !2, entity: !1002, file: !934, line: 78)
!1002 = !DIDerivedType(tag: DW_TAG_typedef, name: "uint_least64_t", file: !945, line: 52, baseType: !1003)
!1003 = !DIDerivedType(tag: DW_TAG_typedef, name: "__uint_least64_t", file: !38, line: 59, baseType: !983)
!1004 = !DIImportedEntity(tag: DW_TAG_imported_declaration, scope: !2, entity: !1005, file: !934, line: 80)
!1005 = !DIDerivedType(tag: DW_TAG_typedef, name: "uintmax_t", file: !945, line: 102, baseType: !1006)
!1006 = !DIDerivedType(tag: DW_TAG_typedef, name: "__uintmax_t", file: !38, line: 73, baseType: !44)
!1007 = !DIImportedEntity(tag: DW_TAG_imported_declaration, scope: !2, entity: !1008, file: !934, line: 81)
!1008 = !DIDerivedType(tag: DW_TAG_typedef, name: "uintptr_t", file: !945, line: 90, baseType: !44)
!1009 = !DIImportedEntity(tag: DW_TAG_imported_declaration, scope: !2, entity: !1010, file: !1012, line: 53)
!1010 = !DICompositeType(tag: DW_TAG_structure_type, name: "lconv", file: !1011, line: 51, flags: DIFlagFwdDecl, identifier: "_ZTS5lconv")
!1011 = !DIFile(filename: "/usr/include/locale.h", directory: "")
!1012 = !DIFile(filename: "/usr/lib64/gcc/x86_64-pc-linux-gnu/10.2.0/../../../../include/c++/10.2.0/clocale", directory: "")
!1013 = !DIImportedEntity(tag: DW_TAG_imported_declaration, scope: !2, entity: !1014, file: !1012, line: 54)
!1014 = !DISubprogram(name: "setlocale", scope: !1011, file: !1011, line: 122, type: !1015, flags: DIFlagPrototyped, spFlags: 0)
!1015 = !DISubroutineType(types: !1016)
!1016 = !{!729, !11, !556}
!1017 = !DIImportedEntity(tag: DW_TAG_imported_declaration, scope: !2, entity: !1018, file: !1012, line: 55)
!1018 = !DISubprogram(name: "localeconv", scope: !1011, file: !1011, line: 125, type: !1019, flags: DIFlagPrototyped, spFlags: 0)
!1019 = !DISubroutineType(types: !1020)
!1020 = !{!1021}
!1021 = !DIDerivedType(tag: DW_TAG_pointer_type, baseType: !1010, size: 64)
!1022 = !DIImportedEntity(tag: DW_TAG_imported_declaration, scope: !2, entity: !1023, file: !1027, line: 64)
!1023 = !DISubprogram(name: "isalnum", scope: !1024, file: !1024, line: 108, type: !1025, flags: DIFlagPrototyped, spFlags: 0)
!1024 = !DIFile(filename: "/usr/include/ctype.h", directory: "")
!1025 = !DISubroutineType(types: !1026)
!1026 = !{!11, !11}
!1027 = !DIFile(filename: "/usr/lib64/gcc/x86_64-pc-linux-gnu/10.2.0/../../../../include/c++/10.2.0/cctype", directory: "")
!1028 = !DIImportedEntity(tag: DW_TAG_imported_declaration, scope: !2, entity: !1029, file: !1027, line: 65)
!1029 = !DISubprogram(name: "isalpha", scope: !1024, file: !1024, line: 109, type: !1025, flags: DIFlagPrototyped, spFlags: 0)
!1030 = !DIImportedEntity(tag: DW_TAG_imported_declaration, scope: !2, entity: !1031, file: !1027, line: 66)
!1031 = !DISubprogram(name: "iscntrl", scope: !1024, file: !1024, line: 110, type: !1025, flags: DIFlagPrototyped, spFlags: 0)
!1032 = !DIImportedEntity(tag: DW_TAG_imported_declaration, scope: !2, entity: !1033, file: !1027, line: 67)
!1033 = !DISubprogram(name: "isdigit", scope: !1024, file: !1024, line: 111, type: !1025, flags: DIFlagPrototyped, spFlags: 0)
!1034 = !DIImportedEntity(tag: DW_TAG_imported_declaration, scope: !2, entity: !1035, file: !1027, line: 68)
!1035 = !DISubprogram(name: "isgraph", scope: !1024, file: !1024, line: 113, type: !1025, flags: DIFlagPrototyped, spFlags: 0)
!1036 = !DIImportedEntity(tag: DW_TAG_imported_declaration, scope: !2, entity: !1037, file: !1027, line: 69)
!1037 = !DISubprogram(name: "islower", scope: !1024, file: !1024, line: 112, type: !1025, flags: DIFlagPrototyped, spFlags: 0)
!1038 = !DIImportedEntity(tag: DW_TAG_imported_declaration, scope: !2, entity: !1039, file: !1027, line: 70)
!1039 = !DISubprogram(name: "isprint", scope: !1024, file: !1024, line: 114, type: !1025, flags: DIFlagPrototyped, spFlags: 0)
!1040 = !DIImportedEntity(tag: DW_TAG_imported_declaration, scope: !2, entity: !1041, file: !1027, line: 71)
!1041 = !DISubprogram(name: "ispunct", scope: !1024, file: !1024, line: 115, type: !1025, flags: DIFlagPrototyped, spFlags: 0)
!1042 = !DIImportedEntity(tag: DW_TAG_imported_declaration, scope: !2, entity: !1043, file: !1027, line: 72)
!1043 = !DISubprogram(name: "isspace", scope: !1024, file: !1024, line: 116, type: !1025, flags: DIFlagPrototyped, spFlags: 0)
!1044 = !DIImportedEntity(tag: DW_TAG_imported_declaration, scope: !2, entity: !1045, file: !1027, line: 73)
!1045 = !DISubprogram(name: "isupper", scope: !1024, file: !1024, line: 117, type: !1025, flags: DIFlagPrototyped, spFlags: 0)
!1046 = !DIImportedEntity(tag: DW_TAG_imported_declaration, scope: !2, entity: !1047, file: !1027, line: 74)
!1047 = !DISubprogram(name: "isxdigit", scope: !1024, file: !1024, line: 118, type: !1025, flags: DIFlagPrototyped, spFlags: 0)
!1048 = !DIImportedEntity(tag: DW_TAG_imported_declaration, scope: !2, entity: !1049, file: !1027, line: 75)
!1049 = !DISubprogram(name: "tolower", scope: !1024, file: !1024, line: 122, type: !1025, flags: DIFlagPrototyped, spFlags: 0)
!1050 = !DIImportedEntity(tag: DW_TAG_imported_declaration, scope: !2, entity: !1051, file: !1027, line: 76)
!1051 = !DISubprogram(name: "toupper", scope: !1024, file: !1024, line: 125, type: !1025, flags: DIFlagPrototyped, spFlags: 0)
!1052 = !DIImportedEntity(tag: DW_TAG_imported_declaration, scope: !2, entity: !1053, file: !1027, line: 87)
!1053 = !DISubprogram(name: "isblank", scope: !1024, file: !1024, line: 130, type: !1025, flags: DIFlagPrototyped, spFlags: 0)
!1054 = !DIImportedEntity(tag: DW_TAG_imported_declaration, scope: !2, entity: !1055, file: !1057, line: 52)
!1055 = !DISubprogram(name: "abs", scope: !1056, file: !1056, line: 840, type: !1025, flags: DIFlagPrototyped, spFlags: 0)
!1056 = !DIFile(filename: "/usr/include/stdlib.h", directory: "")
!1057 = !DIFile(filename: "/usr/lib64/gcc/x86_64-pc-linux-gnu/10.2.0/../../../../include/c++/10.2.0/bits/std_abs.h", directory: "")
!1058 = !DIImportedEntity(tag: DW_TAG_imported_declaration, scope: !2, entity: !1059, file: !1061, line: 127)
!1059 = !DIDerivedType(tag: DW_TAG_typedef, name: "div_t", file: !1056, line: 62, baseType: !1060)
!1060 = !DICompositeType(tag: DW_TAG_structure_type, file: !1056, line: 58, flags: DIFlagFwdDecl, identifier: "_ZTS5div_t")
!1061 = !DIFile(filename: "/usr/lib64/gcc/x86_64-pc-linux-gnu/10.2.0/../../../../include/c++/10.2.0/cstdlib", directory: "")
!1062 = !DIImportedEntity(tag: DW_TAG_imported_declaration, scope: !2, entity: !1063, file: !1061, line: 128)
!1063 = !DIDerivedType(tag: DW_TAG_typedef, name: "ldiv_t", file: !1056, line: 70, baseType: !1064)
!1064 = distinct !DICompositeType(tag: DW_TAG_structure_type, file: !1056, line: 66, size: 128, flags: DIFlagTypePassByValue, elements: !1065, identifier: "_ZTS6ldiv_t")
!1065 = !{!1066, !1067}
!1066 = !DIDerivedType(tag: DW_TAG_member, name: "quot", scope: !1064, file: !1056, line: 68, baseType: !39, size: 64)
!1067 = !DIDerivedType(tag: DW_TAG_member, name: "rem", scope: !1064, file: !1056, line: 69, baseType: !39, size: 64, offset: 64)
!1068 = !DIImportedEntity(tag: DW_TAG_imported_declaration, scope: !2, entity: !1069, file: !1061, line: 130)
!1069 = !DISubprogram(name: "abort", scope: !1056, file: !1056, line: 591, type: !1070, flags: DIFlagPrototyped | DIFlagNoReturn, spFlags: 0)
!1070 = !DISubroutineType(types: !1071)
!1071 = !{null}
!1072 = !DIImportedEntity(tag: DW_TAG_imported_declaration, scope: !2, entity: !1073, file: !1061, line: 134)
!1073 = !DISubprogram(name: "atexit", scope: !1056, file: !1056, line: 595, type: !1074, flags: DIFlagPrototyped, spFlags: 0)
!1074 = !DISubroutineType(types: !1075)
!1075 = !{!11, !1076}
!1076 = !DIDerivedType(tag: DW_TAG_pointer_type, baseType: !1070, size: 64)
!1077 = !DIImportedEntity(tag: DW_TAG_imported_declaration, scope: !2, entity: !1078, file: !1061, line: 137)
!1078 = !DISubprogram(name: "at_quick_exit", scope: !1056, file: !1056, line: 600, type: !1074, flags: DIFlagPrototyped, spFlags: 0)
!1079 = !DIImportedEntity(tag: DW_TAG_imported_declaration, scope: !2, entity: !1080, file: !1061, line: 140)
!1080 = !DISubprogram(name: "atof", scope: !1056, file: !1056, line: 101, type: !1081, flags: DIFlagPrototyped, spFlags: 0)
!1081 = !DISubroutineType(types: !1082)
!1082 = !{!781, !556}
!1083 = !DIImportedEntity(tag: DW_TAG_imported_declaration, scope: !2, entity: !1084, file: !1061, line: 141)
!1084 = !DISubprogram(name: "atoi", scope: !1056, file: !1056, line: 104, type: !1085, flags: DIFlagPrototyped, spFlags: 0)
!1085 = !DISubroutineType(types: !1086)
!1086 = !{!11, !556}
!1087 = !DIImportedEntity(tag: DW_TAG_imported_declaration, scope: !2, entity: !1088, file: !1061, line: 142)
!1088 = !DISubprogram(name: "atol", scope: !1056, file: !1056, line: 107, type: !1089, flags: DIFlagPrototyped, spFlags: 0)
!1089 = !DISubroutineType(types: !1090)
!1090 = !{!39, !556}
!1091 = !DIImportedEntity(tag: DW_TAG_imported_declaration, scope: !2, entity: !1092, file: !1061, line: 143)
!1092 = !DISubprogram(name: "bsearch", scope: !1056, file: !1056, line: 820, type: !1093, flags: DIFlagPrototyped, spFlags: 0)
!1093 = !DISubroutineType(types: !1094)
!1094 = !{!34, !45, !45, !658, !658, !1095}
!1095 = !DIDerivedType(tag: DW_TAG_typedef, name: "__compar_fn_t", file: !1056, line: 808, baseType: !1096)
!1096 = !DIDerivedType(tag: DW_TAG_pointer_type, baseType: !1097, size: 64)
!1097 = !DISubroutineType(types: !1098)
!1098 = !{!11, !45, !45}
!1099 = !DIImportedEntity(tag: DW_TAG_imported_declaration, scope: !2, entity: !1100, file: !1061, line: 144)
!1100 = !DISubprogram(name: "calloc", scope: !1056, file: !1056, line: 542, type: !1101, flags: DIFlagPrototyped, spFlags: 0)
!1101 = !DISubroutineType(types: !1102)
!1102 = !{!34, !658, !658}
!1103 = !DIImportedEntity(tag: DW_TAG_imported_declaration, scope: !2, entity: !1104, file: !1061, line: 145)
!1104 = !DISubprogram(name: "div", scope: !1056, file: !1056, line: 852, type: !1105, flags: DIFlagPrototyped, spFlags: 0)
!1105 = !DISubroutineType(types: !1106)
!1106 = !{!1059, !11, !11}
!1107 = !DIImportedEntity(tag: DW_TAG_imported_declaration, scope: !2, entity: !1108, file: !1061, line: 146)
!1108 = !DISubprogram(name: "exit", scope: !1056, file: !1056, line: 617, type: !1109, flags: DIFlagPrototyped | DIFlagNoReturn, spFlags: 0)
!1109 = !DISubroutineType(types: !1110)
!1110 = !{null, !11}
!1111 = !DIImportedEntity(tag: DW_TAG_imported_declaration, scope: !2, entity: !1112, file: !1061, line: 147)
!1112 = !DISubprogram(name: "free", scope: !1056, file: !1056, line: 565, type: !1113, flags: DIFlagPrototyped, spFlags: 0)
!1113 = !DISubroutineType(types: !1114)
!1114 = !{null, !34}
!1115 = !DIImportedEntity(tag: DW_TAG_imported_declaration, scope: !2, entity: !1116, file: !1061, line: 148)
!1116 = !DISubprogram(name: "getenv", scope: !1056, file: !1056, line: 634, type: !1117, flags: DIFlagPrototyped, spFlags: 0)
!1117 = !DISubroutineType(types: !1118)
!1118 = !{!729, !556}
!1119 = !DIImportedEntity(tag: DW_TAG_imported_declaration, scope: !2, entity: !1120, file: !1061, line: 149)
!1120 = !DISubprogram(name: "labs", scope: !1056, file: !1056, line: 841, type: !1121, flags: DIFlagPrototyped, spFlags: 0)
!1121 = !DISubroutineType(types: !1122)
!1122 = !{!39, !39}
!1123 = !DIImportedEntity(tag: DW_TAG_imported_declaration, scope: !2, entity: !1124, file: !1061, line: 150)
!1124 = !DISubprogram(name: "ldiv", scope: !1056, file: !1056, line: 854, type: !1125, flags: DIFlagPrototyped, spFlags: 0)
!1125 = !DISubroutineType(types: !1126)
!1126 = !{!1063, !39, !39}
!1127 = !DIImportedEntity(tag: DW_TAG_imported_declaration, scope: !2, entity: !1128, file: !1061, line: 151)
!1128 = !DISubprogram(name: "malloc", scope: !1056, file: !1056, line: 539, type: !1129, flags: DIFlagPrototyped, spFlags: 0)
!1129 = !DISubroutineType(types: !1130)
!1130 = !{!34, !658}
!1131 = !DIImportedEntity(tag: DW_TAG_imported_declaration, scope: !2, entity: !1132, file: !1061, line: 153)
!1132 = !DISubprogram(name: "mblen", scope: !1056, file: !1056, line: 922, type: !1133, flags: DIFlagPrototyped, spFlags: 0)
!1133 = !DISubroutineType(types: !1134)
!1134 = !{!11, !556, !658}
!1135 = !DIImportedEntity(tag: DW_TAG_imported_declaration, scope: !2, entity: !1136, file: !1061, line: 154)
!1136 = !DISubprogram(name: "mbstowcs", scope: !1056, file: !1056, line: 933, type: !1137, flags: DIFlagPrototyped, spFlags: 0)
!1137 = !DISubroutineType(types: !1138)
!1138 = !{!658, !625, !660, !658}
!1139 = !DIImportedEntity(tag: DW_TAG_imported_declaration, scope: !2, entity: !1140, file: !1061, line: 155)
!1140 = !DISubprogram(name: "mbtowc", scope: !1056, file: !1056, line: 925, type: !1141, flags: DIFlagPrototyped, spFlags: 0)
!1141 = !DISubroutineType(types: !1142)
!1142 = !{!11, !625, !660, !658}
!1143 = !DIImportedEntity(tag: DW_TAG_imported_declaration, scope: !2, entity: !1144, file: !1061, line: 157)
!1144 = !DISubprogram(name: "qsort", scope: !1056, file: !1056, line: 830, type: !1145, flags: DIFlagPrototyped, spFlags: 0)
!1145 = !DISubroutineType(types: !1146)
!1146 = !{null, !34, !658, !658, !1095}
!1147 = !DIImportedEntity(tag: DW_TAG_imported_declaration, scope: !2, entity: !1148, file: !1061, line: 160)
!1148 = !DISubprogram(name: "quick_exit", scope: !1056, file: !1056, line: 623, type: !1109, flags: DIFlagPrototyped | DIFlagNoReturn, spFlags: 0)
!1149 = !DIImportedEntity(tag: DW_TAG_imported_declaration, scope: !2, entity: !1150, file: !1061, line: 163)
!1150 = !DISubprogram(name: "rand", scope: !1056, file: !1056, line: 453, type: !1151, flags: DIFlagPrototyped, spFlags: 0)
!1151 = !DISubroutineType(types: !1152)
!1152 = !{!11}
!1153 = !DIImportedEntity(tag: DW_TAG_imported_declaration, scope: !2, entity: !1154, file: !1061, line: 164)
!1154 = !DISubprogram(name: "realloc", scope: !1056, file: !1056, line: 550, type: !1155, flags: DIFlagPrototyped, spFlags: 0)
!1155 = !DISubroutineType(types: !1156)
!1156 = !{!34, !34, !658}
!1157 = !DIImportedEntity(tag: DW_TAG_imported_declaration, scope: !2, entity: !1158, file: !1061, line: 165)
!1158 = !DISubprogram(name: "srand", scope: !1056, file: !1056, line: 455, type: !1159, flags: DIFlagPrototyped, spFlags: 0)
!1159 = !DISubroutineType(types: !1160)
!1160 = !{null, !597}
!1161 = !DIImportedEntity(tag: DW_TAG_imported_declaration, scope: !2, entity: !1162, file: !1061, line: 166)
!1162 = !DISubprogram(name: "strtod", scope: !1056, file: !1056, line: 117, type: !1163, flags: DIFlagPrototyped, spFlags: 0)
!1163 = !DISubroutineType(types: !1164)
!1164 = !{!781, !660, !1165}
!1165 = !DIDerivedType(tag: DW_TAG_restrict_type, baseType: !1166)
!1166 = !DIDerivedType(tag: DW_TAG_pointer_type, baseType: !729, size: 64)
!1167 = !DIImportedEntity(tag: DW_TAG_imported_declaration, scope: !2, entity: !1168, file: !1061, line: 167)
!1168 = !DISubprogram(name: "strtol", scope: !1056, file: !1056, line: 176, type: !1169, flags: DIFlagPrototyped, spFlags: 0)
!1169 = !DISubroutineType(types: !1170)
!1170 = !{!39, !660, !1165, !11}
!1171 = !DIImportedEntity(tag: DW_TAG_imported_declaration, scope: !2, entity: !1172, file: !1061, line: 168)
!1172 = !DISubprogram(name: "strtoul", scope: !1056, file: !1056, line: 180, type: !1173, flags: DIFlagPrototyped, spFlags: 0)
!1173 = !DISubroutineType(types: !1174)
!1174 = !{!44, !660, !1165, !11}
!1175 = !DIImportedEntity(tag: DW_TAG_imported_declaration, scope: !2, entity: !1176, file: !1061, line: 169)
!1176 = !DISubprogram(name: "system", scope: !1056, file: !1056, line: 784, type: !1085, flags: DIFlagPrototyped, spFlags: 0)
!1177 = !DIImportedEntity(tag: DW_TAG_imported_declaration, scope: !2, entity: !1178, file: !1061, line: 171)
!1178 = !DISubprogram(name: "wcstombs", scope: !1056, file: !1056, line: 937, type: !1179, flags: DIFlagPrototyped, spFlags: 0)
!1179 = !DISubroutineType(types: !1180)
!1180 = !{!658, !728, !635, !658}
!1181 = !DIImportedEntity(tag: DW_TAG_imported_declaration, scope: !2, entity: !1182, file: !1061, line: 172)
!1182 = !DISubprogram(name: "wctomb", scope: !1056, file: !1056, line: 929, type: !1183, flags: DIFlagPrototyped, spFlags: 0)
!1183 = !DISubroutineType(types: !1184)
!1184 = !{!11, !729, !624}
!1185 = !DIImportedEntity(tag: DW_TAG_imported_declaration, scope: !64, entity: !1186, file: !1061, line: 200)
!1186 = !DIDerivedType(tag: DW_TAG_typedef, name: "lldiv_t", file: !1056, line: 80, baseType: !1187)
!1187 = distinct !DICompositeType(tag: DW_TAG_structure_type, file: !1056, line: 76, size: 128, flags: DIFlagTypePassByValue, elements: !1188, identifier: "_ZTS7lldiv_t")
!1188 = !{!1189, !1190}
!1189 = !DIDerivedType(tag: DW_TAG_member, name: "quot", scope: !1187, file: !1056, line: 78, baseType: !852, size: 64)
!1190 = !DIDerivedType(tag: DW_TAG_member, name: "rem", scope: !1187, file: !1056, line: 79, baseType: !852, size: 64, offset: 64)
!1191 = !DIImportedEntity(tag: DW_TAG_imported_declaration, scope: !64, entity: !1192, file: !1061, line: 206)
!1192 = !DISubprogram(name: "_Exit", scope: !1056, file: !1056, line: 629, type: !1109, flags: DIFlagPrototyped | DIFlagNoReturn, spFlags: 0)
!1193 = !DIImportedEntity(tag: DW_TAG_imported_declaration, scope: !64, entity: !1194, file: !1061, line: 210)
!1194 = !DISubprogram(name: "llabs", scope: !1056, file: !1056, line: 844, type: !1195, flags: DIFlagPrototyped, spFlags: 0)
!1195 = !DISubroutineType(types: !1196)
!1196 = !{!852, !852}
!1197 = !DIImportedEntity(tag: DW_TAG_imported_declaration, scope: !64, entity: !1198, file: !1061, line: 216)
!1198 = !DISubprogram(name: "lldiv", scope: !1056, file: !1056, line: 858, type: !1199, flags: DIFlagPrototyped, spFlags: 0)
!1199 = !DISubroutineType(types: !1200)
!1200 = !{!1186, !852, !852}
!1201 = !DIImportedEntity(tag: DW_TAG_imported_declaration, scope: !64, entity: !1202, file: !1061, line: 227)
!1202 = !DISubprogram(name: "atoll", scope: !1056, file: !1056, line: 112, type: !1203, flags: DIFlagPrototyped, spFlags: 0)
!1203 = !DISubroutineType(types: !1204)
!1204 = !{!852, !556}
!1205 = !DIImportedEntity(tag: DW_TAG_imported_declaration, scope: !64, entity: !1206, file: !1061, line: 228)
!1206 = !DISubprogram(name: "strtoll", scope: !1056, file: !1056, line: 200, type: !1207, flags: DIFlagPrototyped, spFlags: 0)
!1207 = !DISubroutineType(types: !1208)
!1208 = !{!852, !660, !1165, !11}
!1209 = !DIImportedEntity(tag: DW_TAG_imported_declaration, scope: !64, entity: !1210, file: !1061, line: 229)
!1210 = !DISubprogram(name: "strtoull", scope: !1056, file: !1056, line: 205, type: !1211, flags: DIFlagPrototyped, spFlags: 0)
!1211 = !DISubroutineType(types: !1212)
!1212 = !{!857, !660, !1165, !11}
!1213 = !DIImportedEntity(tag: DW_TAG_imported_declaration, scope: !64, entity: !1214, file: !1061, line: 231)
!1214 = !DISubprogram(name: "strtof", scope: !1056, file: !1056, line: 123, type: !1215, flags: DIFlagPrototyped, spFlags: 0)
!1215 = !DISubroutineType(types: !1216)
!1216 = !{!788, !660, !1165}
!1217 = !DIImportedEntity(tag: DW_TAG_imported_declaration, scope: !64, entity: !1218, file: !1061, line: 232)
!1218 = !DISubprogram(name: "strtold", scope: !1056, file: !1056, line: 126, type: !1219, flags: DIFlagPrototyped, spFlags: 0)
!1219 = !DISubroutineType(types: !1220)
!1220 = !{!847, !660, !1165}
!1221 = !DIImportedEntity(tag: DW_TAG_imported_declaration, scope: !2, entity: !1186, file: !1061, line: 240)
!1222 = !DIImportedEntity(tag: DW_TAG_imported_declaration, scope: !2, entity: !1192, file: !1061, line: 242)
!1223 = !DIImportedEntity(tag: DW_TAG_imported_declaration, scope: !2, entity: !1194, file: !1061, line: 244)
!1224 = !DIImportedEntity(tag: DW_TAG_imported_declaration, scope: !2, entity: !1225, file: !1061, line: 245)
!1225 = !DISubprogram(name: "div", linkageName: "_ZN9__gnu_cxx3divExx", scope: !64, file: !1061, line: 213, type: !1199, flags: DIFlagPrototyped, spFlags: 0)
!1226 = !DIImportedEntity(tag: DW_TAG_imported_declaration, scope: !2, entity: !1198, file: !1061, line: 246)
!1227 = !DIImportedEntity(tag: DW_TAG_imported_declaration, scope: !2, entity: !1202, file: !1061, line: 248)
!1228 = !DIImportedEntity(tag: DW_TAG_imported_declaration, scope: !2, entity: !1214, file: !1061, line: 249)
!1229 = !DIImportedEntity(tag: DW_TAG_imported_declaration, scope: !2, entity: !1206, file: !1061, line: 250)
!1230 = !DIImportedEntity(tag: DW_TAG_imported_declaration, scope: !2, entity: !1210, file: !1061, line: 251)
!1231 = !DIImportedEntity(tag: DW_TAG_imported_declaration, scope: !2, entity: !1218, file: !1061, line: 252)
!1232 = !DIImportedEntity(tag: DW_TAG_imported_declaration, scope: !2, entity: !1233, file: !1235, line: 98)
!1233 = !DIDerivedType(tag: DW_TAG_typedef, name: "FILE", file: !1234, line: 7, baseType: !618)
!1234 = !DIFile(filename: "/usr/include/bits/types/FILE.h", directory: "")
!1235 = !DIFile(filename: "/usr/lib64/gcc/x86_64-pc-linux-gnu/10.2.0/../../../../include/c++/10.2.0/cstdio", directory: "")
!1236 = !DIImportedEntity(tag: DW_TAG_imported_declaration, scope: !2, entity: !1237, file: !1235, line: 99)
!1237 = !DIDerivedType(tag: DW_TAG_typedef, name: "fpos_t", file: !1238, line: 84, baseType: !1239)
!1238 = !DIFile(filename: "/usr/include/stdio.h", directory: "")
!1239 = !DIDerivedType(tag: DW_TAG_typedef, name: "__fpos_t", file: !1240, line: 14, baseType: !1241)
!1240 = !DIFile(filename: "/usr/include/bits/types/__fpos_t.h", directory: "")
!1241 = !DICompositeType(tag: DW_TAG_structure_type, name: "_G_fpos_t", file: !1240, line: 10, flags: DIFlagFwdDecl, identifier: "_ZTS9_G_fpos_t")
!1242 = !DIImportedEntity(tag: DW_TAG_imported_declaration, scope: !2, entity: !1243, file: !1235, line: 101)
!1243 = !DISubprogram(name: "clearerr", scope: !1238, file: !1238, line: 762, type: !1244, flags: DIFlagPrototyped, spFlags: 0)
!1244 = !DISubroutineType(types: !1245)
!1245 = !{null, !1246}
!1246 = !DIDerivedType(tag: DW_TAG_pointer_type, baseType: !1233, size: 64)
!1247 = !DIImportedEntity(tag: DW_TAG_imported_declaration, scope: !2, entity: !1248, file: !1235, line: 102)
!1248 = !DISubprogram(name: "fclose", scope: !1238, file: !1238, line: 213, type: !1249, flags: DIFlagPrototyped, spFlags: 0)
!1249 = !DISubroutineType(types: !1250)
!1250 = !{!11, !1246}
!1251 = !DIImportedEntity(tag: DW_TAG_imported_declaration, scope: !2, entity: !1252, file: !1235, line: 103)
!1252 = !DISubprogram(name: "feof", scope: !1238, file: !1238, line: 764, type: !1249, flags: DIFlagPrototyped, spFlags: 0)
!1253 = !DIImportedEntity(tag: DW_TAG_imported_declaration, scope: !2, entity: !1254, file: !1235, line: 104)
!1254 = !DISubprogram(name: "ferror", scope: !1238, file: !1238, line: 766, type: !1249, flags: DIFlagPrototyped, spFlags: 0)
!1255 = !DIImportedEntity(tag: DW_TAG_imported_declaration, scope: !2, entity: !1256, file: !1235, line: 105)
!1256 = !DISubprogram(name: "fflush", scope: !1238, file: !1238, line: 218, type: !1249, flags: DIFlagPrototyped, spFlags: 0)
!1257 = !DIImportedEntity(tag: DW_TAG_imported_declaration, scope: !2, entity: !1258, file: !1235, line: 106)
!1258 = !DISubprogram(name: "fgetc", scope: !1238, file: !1238, line: 489, type: !1249, flags: DIFlagPrototyped, spFlags: 0)
!1259 = !DIImportedEntity(tag: DW_TAG_imported_declaration, scope: !2, entity: !1260, file: !1235, line: 107)
!1260 = !DISubprogram(name: "fgetpos", scope: !1238, file: !1238, line: 736, type: !1261, flags: DIFlagPrototyped, spFlags: 0)
!1261 = !DISubroutineType(types: !1262)
!1262 = !{!11, !1263, !1264}
!1263 = !DIDerivedType(tag: DW_TAG_restrict_type, baseType: !1246)
!1264 = !DIDerivedType(tag: DW_TAG_restrict_type, baseType: !1265)
!1265 = !DIDerivedType(tag: DW_TAG_pointer_type, baseType: !1237, size: 64)
!1266 = !DIImportedEntity(tag: DW_TAG_imported_declaration, scope: !2, entity: !1267, file: !1235, line: 108)
!1267 = !DISubprogram(name: "fgets", scope: !1238, file: !1238, line: 568, type: !1268, flags: DIFlagPrototyped, spFlags: 0)
!1268 = !DISubroutineType(types: !1269)
!1269 = !{!729, !728, !11, !1263}
!1270 = !DIImportedEntity(tag: DW_TAG_imported_declaration, scope: !2, entity: !1271, file: !1235, line: 109)
!1271 = !DISubprogram(name: "fopen", scope: !1238, file: !1238, line: 246, type: !1272, flags: DIFlagPrototyped, spFlags: 0)
!1272 = !DISubroutineType(types: !1273)
!1273 = !{!1246, !660, !660}
!1274 = !DIImportedEntity(tag: DW_TAG_imported_declaration, scope: !2, entity: !1275, file: !1235, line: 110)
!1275 = !DISubprogram(name: "fprintf", scope: !1238, file: !1238, line: 326, type: !1276, flags: DIFlagPrototyped, spFlags: 0)
!1276 = !DISubroutineType(types: !1277)
!1277 = !{!11, !1263, !660, null}
!1278 = !DIImportedEntity(tag: DW_TAG_imported_declaration, scope: !2, entity: !1279, file: !1235, line: 111)
!1279 = !DISubprogram(name: "fputc", scope: !1238, file: !1238, line: 525, type: !1280, flags: DIFlagPrototyped, spFlags: 0)
!1280 = !DISubroutineType(types: !1281)
!1281 = !{!11, !11, !1246}
!1282 = !DIImportedEntity(tag: DW_TAG_imported_declaration, scope: !2, entity: !1283, file: !1235, line: 112)
!1283 = !DISubprogram(name: "fputs", scope: !1238, file: !1238, line: 631, type: !1284, flags: DIFlagPrototyped, spFlags: 0)
!1284 = !DISubroutineType(types: !1285)
!1285 = !{!11, !660, !1263}
!1286 = !DIImportedEntity(tag: DW_TAG_imported_declaration, scope: !2, entity: !1287, file: !1235, line: 113)
!1287 = !DISubprogram(name: "fread", scope: !1238, file: !1238, line: 651, type: !1288, flags: DIFlagPrototyped, spFlags: 0)
!1288 = !DISubroutineType(types: !1289)
!1289 = !{!658, !1290, !658, !658, !1263}
!1290 = !DIDerivedType(tag: DW_TAG_restrict_type, baseType: !34)
!1291 = !DIImportedEntity(tag: DW_TAG_imported_declaration, scope: !2, entity: !1292, file: !1235, line: 114)
!1292 = !DISubprogram(name: "freopen", scope: !1238, file: !1238, line: 252, type: !1293, flags: DIFlagPrototyped, spFlags: 0)
!1293 = !DISubroutineType(types: !1294)
!1294 = !{!1246, !660, !660, !1263}
!1295 = !DIImportedEntity(tag: DW_TAG_imported_declaration, scope: !2, entity: !1296, file: !1235, line: 115)
!1296 = !DISubprogram(name: "fscanf", linkageName: "__isoc99_fscanf", scope: !1238, file: !1238, line: 410, type: !1276, flags: DIFlagPrototyped, spFlags: 0)
!1297 = !DIImportedEntity(tag: DW_TAG_imported_declaration, scope: !2, entity: !1298, file: !1235, line: 116)
!1298 = !DISubprogram(name: "fseek", scope: !1238, file: !1238, line: 689, type: !1299, flags: DIFlagPrototyped, spFlags: 0)
!1299 = !DISubroutineType(types: !1300)
!1300 = !{!11, !1246, !39, !11}
!1301 = !DIImportedEntity(tag: DW_TAG_imported_declaration, scope: !2, entity: !1302, file: !1235, line: 117)
!1302 = !DISubprogram(name: "fsetpos", scope: !1238, file: !1238, line: 741, type: !1303, flags: DIFlagPrototyped, spFlags: 0)
!1303 = !DISubroutineType(types: !1304)
!1304 = !{!11, !1246, !1305}
!1305 = !DIDerivedType(tag: DW_TAG_pointer_type, baseType: !1306, size: 64)
!1306 = !DIDerivedType(tag: DW_TAG_const_type, baseType: !1237)
!1307 = !DIImportedEntity(tag: DW_TAG_imported_declaration, scope: !2, entity: !1308, file: !1235, line: 118)
!1308 = !DISubprogram(name: "ftell", scope: !1238, file: !1238, line: 694, type: !1309, flags: DIFlagPrototyped, spFlags: 0)
!1309 = !DISubroutineType(types: !1310)
!1310 = !{!39, !1246}
!1311 = !DIImportedEntity(tag: DW_TAG_imported_declaration, scope: !2, entity: !1312, file: !1235, line: 119)
!1312 = !DISubprogram(name: "fwrite", scope: !1238, file: !1238, line: 657, type: !1313, flags: DIFlagPrototyped, spFlags: 0)
!1313 = !DISubroutineType(types: !1314)
!1314 = !{!658, !1315, !658, !658, !1263}
!1315 = !DIDerivedType(tag: DW_TAG_restrict_type, baseType: !45)
!1316 = !DIImportedEntity(tag: DW_TAG_imported_declaration, scope: !2, entity: !1317, file: !1235, line: 120)
!1317 = !DISubprogram(name: "getc", scope: !1238, file: !1238, line: 490, type: !1249, flags: DIFlagPrototyped, spFlags: 0)
!1318 = !DIImportedEntity(tag: DW_TAG_imported_declaration, scope: !2, entity: !1319, file: !1235, line: 121)
!1319 = !DISubprogram(name: "getchar", scope: !1238, file: !1238, line: 496, type: !1151, flags: DIFlagPrototyped, spFlags: 0)
!1320 = !DIImportedEntity(tag: DW_TAG_imported_declaration, scope: !2, entity: !1321, file: !1235, line: 126)
!1321 = !DISubprogram(name: "perror", scope: !1238, file: !1238, line: 780, type: !1322, flags: DIFlagPrototyped, spFlags: 0)
!1322 = !DISubroutineType(types: !1323)
!1323 = !{null, !556}
!1324 = !DIImportedEntity(tag: DW_TAG_imported_declaration, scope: !2, entity: !1325, file: !1235, line: 127)
!1325 = !DISubprogram(name: "printf", scope: !1238, file: !1238, line: 332, type: !1326, flags: DIFlagPrototyped, spFlags: 0)
!1326 = !DISubroutineType(types: !1327)
!1327 = !{!11, !660, null}
!1328 = !DIImportedEntity(tag: DW_TAG_imported_declaration, scope: !2, entity: !1329, file: !1235, line: 128)
!1329 = !DISubprogram(name: "putc", scope: !1238, file: !1238, line: 526, type: !1280, flags: DIFlagPrototyped, spFlags: 0)
!1330 = !DIImportedEntity(tag: DW_TAG_imported_declaration, scope: !2, entity: !1331, file: !1235, line: 129)
!1331 = !DISubprogram(name: "putchar", scope: !1238, file: !1238, line: 532, type: !1025, flags: DIFlagPrototyped, spFlags: 0)
!1332 = !DIImportedEntity(tag: DW_TAG_imported_declaration, scope: !2, entity: !1333, file: !1235, line: 130)
!1333 = !DISubprogram(name: "puts", scope: !1238, file: !1238, line: 637, type: !1085, flags: DIFlagPrototyped, spFlags: 0)
!1334 = !DIImportedEntity(tag: DW_TAG_imported_declaration, scope: !2, entity: !1335, file: !1235, line: 131)
!1335 = !DISubprogram(name: "remove", scope: !1238, file: !1238, line: 146, type: !1085, flags: DIFlagPrototyped, spFlags: 0)
!1336 = !DIImportedEntity(tag: DW_TAG_imported_declaration, scope: !2, entity: !1337, file: !1235, line: 132)
!1337 = !DISubprogram(name: "rename", scope: !1238, file: !1238, line: 148, type: !1338, flags: DIFlagPrototyped, spFlags: 0)
!1338 = !DISubroutineType(types: !1339)
!1339 = !{!11, !556, !556}
!1340 = !DIImportedEntity(tag: DW_TAG_imported_declaration, scope: !2, entity: !1341, file: !1235, line: 133)
!1341 = !DISubprogram(name: "rewind", scope: !1238, file: !1238, line: 699, type: !1244, flags: DIFlagPrototyped, spFlags: 0)
!1342 = !DIImportedEntity(tag: DW_TAG_imported_declaration, scope: !2, entity: !1343, file: !1235, line: 134)
!1343 = !DISubprogram(name: "scanf", linkageName: "__isoc99_scanf", scope: !1238, file: !1238, line: 413, type: !1326, flags: DIFlagPrototyped, spFlags: 0)
!1344 = !DIImportedEntity(tag: DW_TAG_imported_declaration, scope: !2, entity: !1345, file: !1235, line: 135)
!1345 = !DISubprogram(name: "setbuf", scope: !1238, file: !1238, line: 304, type: !1346, flags: DIFlagPrototyped, spFlags: 0)
!1346 = !DISubroutineType(types: !1347)
!1347 = !{null, !1263, !728}
!1348 = !DIImportedEntity(tag: DW_TAG_imported_declaration, scope: !2, entity: !1349, file: !1235, line: 136)
!1349 = !DISubprogram(name: "setvbuf", scope: !1238, file: !1238, line: 308, type: !1350, flags: DIFlagPrototyped, spFlags: 0)
!1350 = !DISubroutineType(types: !1351)
!1351 = !{!11, !1263, !728, !11, !658}
!1352 = !DIImportedEntity(tag: DW_TAG_imported_declaration, scope: !2, entity: !1353, file: !1235, line: 137)
!1353 = !DISubprogram(name: "sprintf", scope: !1238, file: !1238, line: 334, type: !1354, flags: DIFlagPrototyped, spFlags: 0)
!1354 = !DISubroutineType(types: !1355)
!1355 = !{!11, !728, !660, null}
!1356 = !DIImportedEntity(tag: DW_TAG_imported_declaration, scope: !2, entity: !1357, file: !1235, line: 138)
!1357 = !DISubprogram(name: "sscanf", linkageName: "__isoc99_sscanf", scope: !1238, file: !1238, line: 415, type: !1358, flags: DIFlagPrototyped, spFlags: 0)
!1358 = !DISubroutineType(types: !1359)
!1359 = !{!11, !660, !660, null}
!1360 = !DIImportedEntity(tag: DW_TAG_imported_declaration, scope: !2, entity: !1361, file: !1235, line: 139)
!1361 = !DISubprogram(name: "tmpfile", scope: !1238, file: !1238, line: 173, type: !1362, flags: DIFlagPrototyped, spFlags: 0)
!1362 = !DISubroutineType(types: !1363)
!1363 = !{!1246}
!1364 = !DIImportedEntity(tag: DW_TAG_imported_declaration, scope: !2, entity: !1365, file: !1235, line: 141)
!1365 = !DISubprogram(name: "tmpnam", scope: !1238, file: !1238, line: 187, type: !1366, flags: DIFlagPrototyped, spFlags: 0)
!1366 = !DISubroutineType(types: !1367)
!1367 = !{!729, !729}
!1368 = !DIImportedEntity(tag: DW_TAG_imported_declaration, scope: !2, entity: !1369, file: !1235, line: 143)
!1369 = !DISubprogram(name: "ungetc", scope: !1238, file: !1238, line: 644, type: !1280, flags: DIFlagPrototyped, spFlags: 0)
!1370 = !DIImportedEntity(tag: DW_TAG_imported_declaration, scope: !2, entity: !1371, file: !1235, line: 144)
!1371 = !DISubprogram(name: "vfprintf", scope: !1238, file: !1238, line: 341, type: !1372, flags: DIFlagPrototyped, spFlags: 0)
!1372 = !DISubroutineType(types: !1373)
!1373 = !{!11, !1263, !660, !701}
!1374 = !DIImportedEntity(tag: DW_TAG_imported_declaration, scope: !2, entity: !1375, file: !1235, line: 145)
!1375 = !DISubprogram(name: "vprintf", scope: !1238, file: !1238, line: 347, type: !1376, flags: DIFlagPrototyped, spFlags: 0)
!1376 = !DISubroutineType(types: !1377)
!1377 = !{!11, !660, !701}
!1378 = !DIImportedEntity(tag: DW_TAG_imported_declaration, scope: !2, entity: !1379, file: !1235, line: 146)
!1379 = !DISubprogram(name: "vsprintf", scope: !1238, file: !1238, line: 349, type: !1380, flags: DIFlagPrototyped, spFlags: 0)
!1380 = !DISubroutineType(types: !1381)
!1381 = !{!11, !728, !660, !701}
!1382 = !DIImportedEntity(tag: DW_TAG_imported_declaration, scope: !64, entity: !1383, file: !1235, line: 175)
!1383 = !DISubprogram(name: "snprintf", scope: !1238, file: !1238, line: 354, type: !1384, flags: DIFlagPrototyped, spFlags: 0)
!1384 = !DISubroutineType(types: !1385)
!1385 = !{!11, !728, !658, !660, null}
!1386 = !DIImportedEntity(tag: DW_TAG_imported_declaration, scope: !64, entity: !1387, file: !1235, line: 176)
!1387 = !DISubprogram(name: "vfscanf", linkageName: "__isoc99_vfscanf", scope: !1238, file: !1238, line: 455, type: !1372, flags: DIFlagPrototyped, spFlags: 0)
!1388 = !DIImportedEntity(tag: DW_TAG_imported_declaration, scope: !64, entity: !1389, file: !1235, line: 177)
!1389 = !DISubprogram(name: "vscanf", linkageName: "__isoc99_vscanf", scope: !1238, file: !1238, line: 460, type: !1376, flags: DIFlagPrototyped, spFlags: 0)
!1390 = !DIImportedEntity(tag: DW_TAG_imported_declaration, scope: !64, entity: !1391, file: !1235, line: 178)
!1391 = !DISubprogram(name: "vsnprintf", scope: !1238, file: !1238, line: 358, type: !1392, flags: DIFlagPrototyped, spFlags: 0)
!1392 = !DISubroutineType(types: !1393)
!1393 = !{!11, !728, !658, !660, !701}
!1394 = !DIImportedEntity(tag: DW_TAG_imported_declaration, scope: !64, entity: !1395, file: !1235, line: 179)
!1395 = !DISubprogram(name: "vsscanf", linkageName: "__isoc99_vsscanf", scope: !1238, file: !1238, line: 463, type: !1396, flags: DIFlagPrototyped, spFlags: 0)
!1396 = !DISubroutineType(types: !1397)
!1397 = !{!11, !660, !660, !701}
!1398 = !DIImportedEntity(tag: DW_TAG_imported_declaration, scope: !2, entity: !1383, file: !1235, line: 185)
!1399 = !DIImportedEntity(tag: DW_TAG_imported_declaration, scope: !2, entity: !1387, file: !1235, line: 186)
!1400 = !DIImportedEntity(tag: DW_TAG_imported_declaration, scope: !2, entity: !1389, file: !1235, line: 187)
!1401 = !DIImportedEntity(tag: DW_TAG_imported_declaration, scope: !2, entity: !1391, file: !1235, line: 188)
!1402 = !DIImportedEntity(tag: DW_TAG_imported_declaration, scope: !2, entity: !1395, file: !1235, line: 189)
!1403 = !DIImportedEntity(tag: DW_TAG_imported_declaration, scope: !2, entity: !1404, file: !1408, line: 82)
!1404 = !DIDerivedType(tag: DW_TAG_typedef, name: "wctrans_t", file: !1405, line: 48, baseType: !1406)
!1405 = !DIFile(filename: "/usr/include/wctype.h", directory: "")
!1406 = !DIDerivedType(tag: DW_TAG_pointer_type, baseType: !1407, size: 64)
!1407 = !DIDerivedType(tag: DW_TAG_const_type, baseType: !941)
!1408 = !DIFile(filename: "/usr/lib64/gcc/x86_64-pc-linux-gnu/10.2.0/../../../../include/c++/10.2.0/cwctype", directory: "")
!1409 = !DIImportedEntity(tag: DW_TAG_imported_declaration, scope: !2, entity: !1410, file: !1408, line: 83)
!1410 = !DIDerivedType(tag: DW_TAG_typedef, name: "wctype_t", file: !1411, line: 38, baseType: !44)
!1411 = !DIFile(filename: "/usr/include/bits/wctype-wchar.h", directory: "")
!1412 = !DIImportedEntity(tag: DW_TAG_imported_declaration, scope: !2, entity: !604, file: !1408, line: 84)
!1413 = !DIImportedEntity(tag: DW_TAG_imported_declaration, scope: !2, entity: !1414, file: !1408, line: 86)
!1414 = !DISubprogram(name: "iswalnum", scope: !1411, file: !1411, line: 95, type: !807, flags: DIFlagPrototyped, spFlags: 0)
!1415 = !DIImportedEntity(tag: DW_TAG_imported_declaration, scope: !2, entity: !1416, file: !1408, line: 87)
!1416 = !DISubprogram(name: "iswalpha", scope: !1411, file: !1411, line: 101, type: !807, flags: DIFlagPrototyped, spFlags: 0)
!1417 = !DIImportedEntity(tag: DW_TAG_imported_declaration, scope: !2, entity: !1418, file: !1408, line: 89)
!1418 = !DISubprogram(name: "iswblank", scope: !1411, file: !1411, line: 146, type: !807, flags: DIFlagPrototyped, spFlags: 0)
!1419 = !DIImportedEntity(tag: DW_TAG_imported_declaration, scope: !2, entity: !1420, file: !1408, line: 91)
!1420 = !DISubprogram(name: "iswcntrl", scope: !1411, file: !1411, line: 104, type: !807, flags: DIFlagPrototyped, spFlags: 0)
!1421 = !DIImportedEntity(tag: DW_TAG_imported_declaration, scope: !2, entity: !1422, file: !1408, line: 92)
!1422 = !DISubprogram(name: "iswctype", scope: !1411, file: !1411, line: 159, type: !1423, flags: DIFlagPrototyped, spFlags: 0)
!1423 = !DISubroutineType(types: !1424)
!1424 = !{!11, !604, !1410}
!1425 = !DIImportedEntity(tag: DW_TAG_imported_declaration, scope: !2, entity: !1426, file: !1408, line: 93)
!1426 = !DISubprogram(name: "iswdigit", scope: !1411, file: !1411, line: 108, type: !807, flags: DIFlagPrototyped, spFlags: 0)
!1427 = !DIImportedEntity(tag: DW_TAG_imported_declaration, scope: !2, entity: !1428, file: !1408, line: 94)
!1428 = !DISubprogram(name: "iswgraph", scope: !1411, file: !1411, line: 112, type: !807, flags: DIFlagPrototyped, spFlags: 0)
!1429 = !DIImportedEntity(tag: DW_TAG_imported_declaration, scope: !2, entity: !1430, file: !1408, line: 95)
!1430 = !DISubprogram(name: "iswlower", scope: !1411, file: !1411, line: 117, type: !807, flags: DIFlagPrototyped, spFlags: 0)
!1431 = !DIImportedEntity(tag: DW_TAG_imported_declaration, scope: !2, entity: !1432, file: !1408, line: 96)
!1432 = !DISubprogram(name: "iswprint", scope: !1411, file: !1411, line: 120, type: !807, flags: DIFlagPrototyped, spFlags: 0)
!1433 = !DIImportedEntity(tag: DW_TAG_imported_declaration, scope: !2, entity: !1434, file: !1408, line: 97)
!1434 = !DISubprogram(name: "iswpunct", scope: !1411, file: !1411, line: 125, type: !807, flags: DIFlagPrototyped, spFlags: 0)
!1435 = !DIImportedEntity(tag: DW_TAG_imported_declaration, scope: !2, entity: !1436, file: !1408, line: 98)
!1436 = !DISubprogram(name: "iswspace", scope: !1411, file: !1411, line: 130, type: !807, flags: DIFlagPrototyped, spFlags: 0)
!1437 = !DIImportedEntity(tag: DW_TAG_imported_declaration, scope: !2, entity: !1438, file: !1408, line: 99)
!1438 = !DISubprogram(name: "iswupper", scope: !1411, file: !1411, line: 135, type: !807, flags: DIFlagPrototyped, spFlags: 0)
!1439 = !DIImportedEntity(tag: DW_TAG_imported_declaration, scope: !2, entity: !1440, file: !1408, line: 100)
!1440 = !DISubprogram(name: "iswxdigit", scope: !1411, file: !1411, line: 140, type: !807, flags: DIFlagPrototyped, spFlags: 0)
!1441 = !DIImportedEntity(tag: DW_TAG_imported_declaration, scope: !2, entity: !1442, file: !1408, line: 101)
!1442 = !DISubprogram(name: "towctrans", scope: !1405, file: !1405, line: 55, type: !1443, flags: DIFlagPrototyped, spFlags: 0)
!1443 = !DISubroutineType(types: !1444)
!1444 = !{!604, !604, !1404}
!1445 = !DIImportedEntity(tag: DW_TAG_imported_declaration, scope: !2, entity: !1446, file: !1408, line: 102)
!1446 = !DISubprogram(name: "towlower", scope: !1411, file: !1411, line: 166, type: !1447, flags: DIFlagPrototyped, spFlags: 0)
!1447 = !DISubroutineType(types: !1448)
!1448 = !{!604, !604}
!1449 = !DIImportedEntity(tag: DW_TAG_imported_declaration, scope: !2, entity: !1450, file: !1408, line: 103)
!1450 = !DISubprogram(name: "towupper", scope: !1411, file: !1411, line: 169, type: !1447, flags: DIFlagPrototyped, spFlags: 0)
!1451 = !DIImportedEntity(tag: DW_TAG_imported_declaration, scope: !2, entity: !1452, file: !1408, line: 104)
!1452 = !DISubprogram(name: "wctrans", scope: !1405, file: !1405, line: 52, type: !1453, flags: DIFlagPrototyped, spFlags: 0)
!1453 = !DISubroutineType(types: !1454)
!1454 = !{!1404, !556}
!1455 = !DIImportedEntity(tag: DW_TAG_imported_declaration, scope: !2, entity: !1456, file: !1408, line: 105)
!1456 = !DISubprogram(name: "wctype", scope: !1411, file: !1411, line: 155, type: !1457, flags: DIFlagPrototyped, spFlags: 0)
!1457 = !DISubroutineType(types: !1458)
!1458 = !{!1410, !556}
!1459 = !DIImportedEntity(tag: DW_TAG_imported_module, scope: !30, entity: !2, file: !31, line: 11)
!1460 = !{i32 7, !"Dwarf Version", i32 4}
!1461 = !{i32 2, !"Debug Info Version", i32 3}
!1462 = !{i32 1, !"wchar_size", i32 4}
!1463 = !{!"clang version 10.0.1 "}
!1464 = distinct !DISubprogram(name: "__cxx_global_var_init", scope: !3, file: !3, line: 74, type: !1070, scopeLine: 74, spFlags: DISPFlagLocalToUnit | DISPFlagDefinition, unit: !30, retainedNodes: !32)
!1465 = !DILocation(line: 74, column: 25, scope: !1464)
!1466 = distinct !DISubprogram(name: "main", scope: !31, file: !31, line: 21, type: !1151, scopeLine: 21, flags: DIFlagPrototyped, spFlags: DISPFlagDefinition, unit: !30, retainedNodes: !32)
!1467 = !DILocalVariable(name: "ths", scope: !1466, file: !31, line: 22, type: !50)
!1468 = !DILocation(line: 22, column: 21, scope: !1466)
!1469 = !DILocalVariable(name: "i", scope: !1470, file: !31, line: 23, type: !35)
!1470 = distinct !DILexicalBlock(scope: !1466, file: !31, line: 23, column: 3)
!1471 = !DILocation(line: 23, column: 16, scope: !1470)
!1472 = !DILocation(line: 23, column: 8, scope: !1470)
!1473 = !DILocation(line: 23, column: 23, scope: !1474)
!1474 = distinct !DILexicalBlock(scope: !1470, file: !31, line: 23, column: 3)
!1475 = !DILocation(line: 23, column: 25, scope: !1474)
!1476 = !DILocation(line: 23, column: 3, scope: !1470)
!1477 = !DILocalVariable(name: "th", scope: !1478, file: !31, line: 24, type: !1479)
!1478 = distinct !DILexicalBlock(scope: !1474, file: !31, line: 23, column: 37)
!1479 = !DIDerivedType(tag: DW_TAG_typedef, name: "pthread_t", file: !1480, line: 27, baseType: !44)
!1480 = !DIFile(filename: "/usr/include/bits/pthreadtypes.h", directory: "")
