; ModuleID = 'integration/pthreadrace/pthread-rwlock-yes.cpp'
source_filename = "integration/pthreadrace/pthread-rwlock-yes.cpp"
target datalayout = "e-m:e-p270:32:32-p271:32:32-p272:64:64-i64:64-f80:128-n8:16:32:64-S128"
target triple = "x86_64-unknown-linux-gnu"

%"class.std::ios_base::Init" = type { i8 }
%"class.std::basic_ostream" = type { i32 (...)**, %"class.std::basic_ios" }
%"class.std::basic_ios" = type { %"class.std::ios_base", %"class.std::basic_ostream"*, i8, i8, %"class.std::basic_streambuf"*, %"class.std::ctype"*, %"class.std::num_put"*, %"class.std::num_get"* }
%"class.std::ios_base" = type { i32 (...)**, i64, i64, i32, i32, i32, %"struct.std::ios_base::_Callback_list"*, %"struct.std::ios_base::_Words", [8 x %"struct.std::ios_base::_Words"], i32, %"struct.std::ios_base::_Words"*, %"class.std::locale" }
%"struct.std::ios_base::_Callback_list" = type { %"struct.std::ios_base::_Callback_list"*, void (i32, %"class.std::ios_base"*, i32)*, i32, i32 }
%"struct.std::ios_base::_Words" = type { i8*, i64 }
%"class.std::locale" = type { %"class.std::locale::_Impl"* }
%"class.std::locale::_Impl" = type { i32, %"class.std::locale::facet"**, i64, %"class.std::locale::facet"**, i8** }
%"class.std::locale::facet" = type <{ i32 (...)**, i32, [4 x i8] }>
%"class.std::basic_streambuf" = type { i32 (...)**, i8*, i8*, i8*, i8*, i8*, i8*, %"class.std::locale" }
%"class.std::ctype" = type <{ %"class.std::locale::facet.base", [4 x i8], %struct.__locale_struct*, i8, [7 x i8], i32*, i32*, i16*, i8, [256 x i8], [256 x i8], i8, [6 x i8] }>
%"class.std::locale::facet.base" = type <{ i32 (...)**, i32 }>
%struct.__locale_struct = type { [13 x %struct.__locale_data*], i16*, i32*, i32*, [13 x i8*] }
%struct.__locale_data = type opaque
%"class.std::num_put" = type { %"class.std::locale::facet.base", [4 x i8] }
%"class.std::num_get" = type { %"class.std::locale::facet.base", [4 x i8] }
%class.BulletinRWLock = type { %union.pthread_rwlock_t, %"class.std::__cxx11::basic_string" }
%union.pthread_rwlock_t = type { %struct.__pthread_rwlock_arch_t }
%struct.__pthread_rwlock_arch_t = type { i32, i32, i32, i32, i32, i32, i32, i32, i8, [7 x i8], i64, i32 }
%"class.std::__cxx11::basic_string" = type { %"struct.std::__cxx11::basic_string<char, std::char_traits<char>, std::allocator<char> >::_Alloc_hider", i64, %union.anon }
%"struct.std::__cxx11::basic_string<char, std::char_traits<char>, std::allocator<char> >::_Alloc_hider" = type { i8* }
%union.anon = type { i64, [8 x i8] }
%union.pthread_attr_t = type { i64, [48 x i8] }
%"class.std::allocator" = type { i8 }
%union.pthread_rwlockattr_t = type { i64 }
%"class.__gnu_cxx::new_allocator" = type { i8 }
%"struct.std::__false_type" = type { i8 }
%"struct.std::forward_iterator_tag" = type { i8 }
%"struct.std::random_access_iterator_tag" = type { i8 }

$_ZN14BulletinRWLockC2Ev = comdat any

$_ZN14BulletinRWLockD2Ev = comdat any

$_ZN9__gnu_cxx13new_allocatorIcEC2Ev = comdat any

$_ZNSt7__cxx1112basic_stringIcSt11char_traitsIcESaIcEE12_M_constructIPKcEEvT_S8_ = comdat any

$_ZNSt11char_traitsIcE6lengthEPKc = comdat any

$_ZNSt14pointer_traitsIPcE10pointer_toERc = comdat any

$_ZSt9addressofIcEPT_RS0_ = comdat any

$_ZSt11__addressofIcEPT_RS0_ = comdat any

$_ZN9__gnu_cxx13new_allocatorIcEC2ERKS1_ = comdat any

$_ZNSt7__cxx1112basic_stringIcSt11char_traitsIcESaIcEE16_M_construct_auxIPKcEEvT_S8_St12__false_type = comdat any

$_ZNSt7__cxx1112basic_stringIcSt11char_traitsIcESaIcEE12_M_constructIPKcEEvT_S8_St20forward_iterator_tag = comdat any

$_ZN9__gnu_cxx17__is_null_pointerIKcEEbPT_ = comdat any

$_ZSt8distanceIPKcENSt15iterator_traitsIT_E15difference_typeES3_S3_ = comdat any

$__clang_call_terminate = comdat any

$_ZSt10__distanceIPKcENSt15iterator_traitsIT_E15difference_typeES3_S3_St26random_access_iterator_tag = comdat any

$_ZSt19__iterator_categoryIPKcENSt15iterator_traitsIT_E17iterator_categoryERKS3_ = comdat any

$_ZNSt11char_traitsIcE6assignERcRKc = comdat any

$_ZNSt11char_traitsIcE4copyEPcPKcm = comdat any

$_ZNSt14pointer_traitsIPKcE10pointer_toERS0_ = comdat any

$_ZSt9addressofIKcEPT_RS1_ = comdat any

$_ZSt11__addressofIKcEPT_RS1_ = comdat any

$_ZNSt16allocator_traitsISaIcEE10deallocateERS0_Pcm = comdat any

$_ZN9__gnu_cxx13new_allocatorIcE10deallocateEPcm = comdat any

$_ZN9__gnu_cxx13new_allocatorIcED2Ev = comdat any

$_ZN14BulletinRWLock6UpdateENSt7__cxx1112basic_stringIcSt11char_traitsIcESaIcEEE = comdat any

$_ZN14BulletinRWLock4ReadB5cxx11Ev = comdat any

$_ZN9__gnu_cxx14__alloc_traitsISaIcEcE17_S_select_on_copyERKS1_ = comdat any

$_ZNSt7__cxx1112basic_stringIcSt11char_traitsIcESaIcEE12_M_constructIPcEEvT_S7_ = comdat any

$_ZNSt16allocator_traitsISaIcEE37select_on_container_copy_constructionERKS0_ = comdat any

$_ZSt4moveIRSaIcEEONSt16remove_referenceIT_E4typeEOS3_ = comdat any

$_ZNSt7__cxx1112basic_stringIcSt11char_traitsIcESaIcEE16_M_construct_auxIPcEEvT_S7_St12__false_type = comdat any

$_ZNSt7__cxx1112basic_stringIcSt11char_traitsIcESaIcEE12_M_constructIPcEEvT_S7_St20forward_iterator_tag = comdat any

$_ZN9__gnu_cxx17__is_null_pointerIcEEbPT_ = comdat any

$_ZSt8distanceIPcENSt15iterator_traitsIT_E15difference_typeES2_S2_ = comdat any

$_ZSt10__distanceIPcENSt15iterator_traitsIT_E15difference_typeES2_S2_St26random_access_iterator_tag = comdat any

$_ZSt19__iterator_categoryIPcENSt15iterator_traitsIT_E17iterator_categoryERKS2_ = comdat any

$_ZSt13__check_facetISt5ctypeIcEERKT_PS3_ = comdat any

$_ZNKSt5ctypeIcE5widenEc = comdat any

@.str = private unnamed_addr constant [37 x i8] c"Failed to create the producer thread\00", align 1
@.str.1 = private unnamed_addr constant [37 x i8] c"Failed to create the consumer thread\00", align 1
@_ZStL8__ioinit = internal global %"class.std::ios_base::Init" zeroinitializer, align 1, !dbg !0
@__dso_handle = external hidden global i8
@.str.2 = private unnamed_addr constant [11 x i8] c"no message\00", align 1
@.str.3 = private unnamed_addr constant [42 x i8] c"basic_string::_M_construct null not valid\00", align 1
@.str.4 = private unnamed_addr constant [12 x i8] c"hell world \00", align 1
@_ZSt4cout = external dso_local global %"class.std::basic_ostream", align 8
@llvm.global_ctors = appending global [1 x { i32, void ()*, i8* }] [{ i32, void ()*, i8* } { i32 65535, void ()* @_GLOBAL__sub_I_pthread_rwlock_yes.cpp, i8* null }]

; Function Attrs: norecurse uwtable
define dso_local i32 @main() #0 personality i8* bitcast (i32 (...)* @__gxx_personality_v0 to i8*) !dbg !1163 {
entry:
  %bulletin = alloca %class.BulletinRWLock, align 8
  %rc = alloca i32, align 4
  %res = alloca i8*, align 8
  %thr_editor = alloca i64, align 8
  %thr_reader = alloca i64, align 8
  %exn.slot = alloca i8*
  %ehselector.slot = alloca i32
  %0 = bitcast %class.BulletinRWLock* %bulletin to i8*, !dbg !1171
  call void @llvm.lifetime.start.p0i8(i64 88, i8* %0) #8, !dbg !1171
  call void @llvm.dbg.declare(metadata %class.BulletinRWLock* %bulletin, metadata !1165, metadata !DIExpression()), !dbg !1172
  call void @_ZN14BulletinRWLockC2Ev(%class.BulletinRWLock* %bulletin), !dbg !1172
  %1 = bitcast i32* %rc to i8*, !dbg !1173
  call void @llvm.lifetime.start.p0i8(i64 4, i8* %1) #8, !dbg !1173
  call void @llvm.dbg.declare(metadata i32* %rc, metadata !1166, metadata !DIExpression()), !dbg !1174
  %2 = bitcast i8** %res to i8*, !dbg !1175
  call void @llvm.lifetime.start.p0i8(i64 8, i8* %2) #8, !dbg !1175
  call void @llvm.dbg.declare(metadata i8** %res, metadata !1167, metadata !DIExpression()), !dbg !1176
  %3 = bitcast i64* %thr_editor to i8*, !dbg !1177
  call void @llvm.lifetime.start.p0i8(i64 8, i8* %3) #8, !dbg !1177
  call void @llvm.dbg.declare(metadata i64* %thr_editor, metadata !1168, metadata !DIExpression()), !dbg !1178
  %4 = bitcast i64* %thr_reader to i8*, !dbg !1177
  call void @llvm.lifetime.start.p0i8(i64 8, i8* %4) #8, !dbg !1177
  call void @llvm.dbg.declare(metadata i64* %thr_reader, metadata !1170, metadata !DIExpression()), !dbg !1179
  %5 = bitcast %class.BulletinRWLock* %bulletin to i8*, !dbg !1180
  %call = call i32 @pthread_create(i64* %thr_editor, %union.pthread_attr_t* null, i8* (i8*)* @_ZL6EditorPv, i8* %5) #8, !dbg !1181
  store i32 %call, i32* %rc, align 4, !dbg !1182, !tbaa !1183
  %6 = load i32, i32* %rc, align 4, !dbg !1187, !tbaa !1183
  %tobool = icmp ne i32 %6, 0, !dbg !1187
  br i1 %tobool, label %if.then, label %if.end, !dbg !1189

if.then:                                          ; preds = %entry
  invoke void @perror(i8* getelementptr inbounds ([37 x i8], [37 x i8]* @.str, i64 0, i64 0))
          to label %invoke.cont unwind label %lpad, !dbg !1190

invoke.cont:                                      ; preds = %if.then
  call void @exit(i32 -1) #14, !dbg !1192
  unreachable, !dbg !1192

lpad:                                             ; preds = %invoke.cont6, %if.end5, %if.then3, %if.then
  %7 = landingpad { i8*, i32 }
          cleanup, !dbg !1193
  %8 = extractvalue { i8*, i32 } %7, 0, !dbg !1193
  store i8* %8, i8** %exn.slot, align 8, !dbg !1193
  %9 = extractvalue { i8*, i32 } %7, 1, !dbg !1193
  store i32 %9, i32* %ehselector.slot, align 4, !dbg !1193
  %10 = bitcast i64* %thr_reader to i8*, !dbg !1194
  call void @llvm.lifetime.end.p0i8(i64 8, i8* %10) #8, !dbg !1194
  %11 = bitcast i64* %thr_editor to i8*, !dbg !1194
  call void @llvm.lifetime.end.p0i8(i64 8, i8* %11) #8, !dbg !1194
  %12 = bitcast i8** %res to i8*, !dbg !1194
  call void @llvm.lifetime.end.p0i8(i64 8, i8* %12) #8, !dbg !1194
  %13 = bitcast i32* %rc to i8*, !dbg !1194
  call void @llvm.lifetime.end.p0i8(i64 4, i8* %13) #8, !dbg !1194
  call void @_ZN14BulletinRWLockD2Ev(%class.BulletinRWLock* %bulletin) #8, !dbg !1194
  %14 = bitcast %class.BulletinRWLock* %bulletin to i8*, !dbg !1194
  call void @llvm.lifetime.end.p0i8(i64 88, i8* %14) #8, !dbg !1194
  br label %eh.resume, !dbg !1194

if.end:                                           ; preds = %entry
  %15 = bitcast %class.BulletinRWLock* %bulletin to i8*, !dbg !1195
  %call1 = call i32 @pthread_create(i64* %thr_reader, %union.pthread_attr_t* null, i8* (i8*)* @_ZL6ReaderPv, i8* %15) #8, !dbg !1196
  store i32 %call1, i32* %rc, align 4, !dbg !1197, !tbaa !1183
  %16 = load i32, i32* %rc, align 4, !dbg !1198, !tbaa !1183
  %tobool2 = icmp ne i32 %16, 0, !dbg !1198
  br i1 %tobool2, label %if.then3, label %if.end5, !dbg !1200

if.then3:                                         ; preds = %if.end
  invoke void @perror(i8* getelementptr inbounds ([37 x i8], [37 x i8]* @.str.1, i64 0, i64 0))
          to label %invoke.cont4 unwind label %lpad, !dbg !1201

invoke.cont4:                                     ; preds = %if.then3
  call void @exit(i32 -1) #14, !dbg !1203
  unreachable, !dbg !1203

if.end5:                                          ; preds = %if.end
  %17 = load i64, i64* %thr_editor, align 8, !dbg !1204, !tbaa !1205
  %call7 = invoke i32 @pthread_join(i64 %17, i8** %res)
          to label %invoke.cont6 unwind label %lpad, !dbg !1207

invoke.cont6:                                     ; preds = %if.end5
  %18 = load i64, i64* %thr_reader, align 8, !dbg !1208, !tbaa !1205
  %call9 = invoke i32 @pthread_join(i64 %18, i8** %res)
          to label %invoke.cont8 unwind label %lpad, !dbg !1209

invoke.cont8:                                     ; preds = %invoke.cont6
  %19 = bitcast i64* %thr_reader to i8*, !dbg !1194
  call void @llvm.lifetime.end.p0i8(i64 8, i8* %19) #8, !dbg !1194
  %20 = bitcast i64* %thr_editor to i8*, !dbg !1194
  call void @llvm.lifetime.end.p0i8(i64 8, i8* %20) #8, !dbg !1194
  %21 = bitcast i8** %res to i8*, !dbg !1194
  call void @llvm.lifetime.end.p0i8(i64 8, i8* %21) #8, !dbg !1194
  %22 = bitcast i32* %rc to i8*, !dbg !1194
  call void @llvm.lifetime.end.p0i8(i64 4, i8* %22) #8, !dbg !1194
  call void @_ZN14BulletinRWLockD2Ev(%class.BulletinRWLock* %bulletin) #8, !dbg !1194
  %23 = bitcast %class.BulletinRWLock* %bulletin to i8*, !dbg !1194
  call void @llvm.lifetime.end.p0i8(i64 88, i8* %23) #8, !dbg !1194
  ret i32 0, !dbg !1194

eh.resume:                                        ; preds = %lpad
  %exn = load i8*, i8** %exn.slot, align 8, !dbg !1194
  %sel = load i32, i32* %ehselector.slot, align 4, !dbg !1194
  %lpad.val = insertvalue { i8*, i32 } undef, i8* %exn, 0, !dbg !1194
  %lpad.val10 = insertvalue { i8*, i32 } %lpad.val, i32 %sel, 1, !dbg !1194
  resume { i8*, i32 } %lpad.val10, !dbg !1194
}

; Function Attrs: argmemonly nounwind willreturn
declare void @llvm.lifetime.start.p0i8(i64 immarg, i8* nocapture) #1

; Function Attrs: nounwind readnone speculatable willreturn
declare void @llvm.dbg.declare(metadata, metadata, metadata) #2

; Function Attrs: uwtable
define linkonce_odr dso_local void @_ZN14BulletinRWLockC2Ev(%class.BulletinRWLock* %this) unnamed_addr #3 comdat align 2 personality i8* bitcast (i32 (...)* @__gxx_personality_v0 to i8*) !dbg !1210 {
entry:
  %this.addr = alloca %class.BulletinRWLock*, align 8
  %ref.tmp = alloca %"class.std::allocator", align 1
  %exn.slot = alloca i8*
  %ehselector.slot = alloca i32
  store %class.BulletinRWLock* %this, %class.BulletinRWLock** %this.addr, align 8, !tbaa !1213
  call void @llvm.dbg.declare(metadata %class.BulletinRWLock** %this.addr, metadata !1212, metadata !DIExpression()), !dbg !1215
  %this1 = load %class.BulletinRWLock*, %class.BulletinRWLock** %this.addr, align 8
  %rwlock_ = getelementptr inbounds %class.BulletinRWLock, %class.BulletinRWLock* %this1, i32 0, i32 0, !dbg !1216
  %message_ = getelementptr inbounds %class.BulletinRWLock, %class.BulletinRWLock* %this1, i32 0, i32 1, !dbg !1217
  %0 = bitcast %"class.std::allocator"* %ref.tmp to i8*, !dbg !1217
  call void @llvm.lifetime.start.p0i8(i64 1, i8* %0) #8, !dbg !1217
  call void @_ZNSaIcEC2Ev(%"class.std::allocator"* %ref.tmp) #8, !dbg !1217
  invoke void @_ZNSt7__cxx1112basic_stringIcSt11char_traitsIcESaIcEEC2EPKcRKS3_(%"class.std::__cxx11::basic_string"* %message_, i8* getelementptr inbounds ([11 x i8], [11 x i8]* @.str.2, i64 0, i64 0), %"class.std::allocator"* dereferenceable(1) %ref.tmp)
          to label %invoke.cont unwind label %lpad, !dbg !1217

invoke.cont:                                      ; preds = %entry
  call void @_ZNSaIcED2Ev(%"class.std::allocator"* %ref.tmp) #8, !dbg !1217
  %1 = bitcast %"class.std::allocator"* %ref.tmp to i8*, !dbg !1217
  call void @llvm.lifetime.end.p0i8(i64 1, i8* %1) #8, !dbg !1217
  %rwlock_2 = getelementptr inbounds %class.BulletinRWLock, %class.BulletinRWLock* %this1, i32 0, i32 0, !dbg !1218
  %call = call i32 @pthread_rwlock_init(%union.pthread_rwlock_t* %rwlock_2, %union.pthread_rwlockattr_t* null) #8, !dbg !1220
  ret void, !dbg !1221

lpad:                                             ; preds = %entry
  %2 = landingpad { i8*, i32 }
          cleanup, !dbg !1221
  %3 = extractvalue { i8*, i32 } %2, 0, !dbg !1221
  store i8* %3, i8** %exn.slot, align 8, !dbg !1221
  %4 = extractvalue { i8*, i32 } %2, 1, !dbg !1221
  store i32 %4, i32* %ehselector.slot, align 4, !dbg !1221
  call void @_ZNSaIcED2Ev(%"class.std::allocator"* %ref.tmp) #8, !dbg !1217
  %5 = bitcast %"class.std::allocator"* %ref.tmp to i8*, !dbg !1217
  call void @llvm.lifetime.end.p0i8(i64 1, i8* %5) #8, !dbg !1217
  br label %eh.resume, !dbg !1217

eh.resume:                                        ; preds = %lpad
  %exn = load i8*, i8** %exn.slot, align 8, !dbg !1217
  %sel = load i32, i32* %ehselector.slot, align 4, !dbg !1217
  %lpad.val = insertvalue { i8*, i32 } undef, i8* %exn, 0, !dbg !1217
  %lpad.val3 = insertvalue { i8*, i32 } %lpad.val, i32 %sel, 1, !dbg !1217
  resume { i8*, i32 } %lpad.val3, !dbg !1217
}

; Function Attrs: nounwind
declare !callback !1222 dso_local i32 @pthread_create(i64*, %union.pthread_attr_t*, i8* (i8*)*, i8*) #4

; Function Attrs: uwtable
define internal i8* @_ZL6EditorPv(i8* %rbuf) #3 personality i8* bitcast (i32 (...)* @__gxx_personality_v0 to i8*) !dbg !1224 {
entry:
  %rbuf.addr = alloca i8*, align 8
  %rbuf_ptr = alloca %class.BulletinRWLock*, align 8
  %i = alloca i32, align 4
  %agg.tmp = alloca %"class.std::__cxx11::basic_string", align 8
  %ref.tmp = alloca %"class.std::allocator", align 1
  %exn.slot = alloca i8*
  %ehselector.slot = alloca i32
  store i8* %rbuf, i8** %rbuf.addr, align 8, !tbaa !1213
  call void @llvm.dbg.declare(metadata i8** %rbuf.addr, metadata !1228, metadata !DIExpression()), !dbg !1231
  %0 = bitcast %class.BulletinRWLock** %rbuf_ptr to i8*, !dbg !1232
  call void @llvm.lifetime.start.p0i8(i64 8, i8* %0) #8, !dbg !1232
  call void @llvm.dbg.declare(metadata %class.BulletinRWLock** %rbuf_ptr, metadata !1229, metadata !DIExpression()), !dbg !1233
  %1 = load i8*, i8** %rbuf.addr, align 8, !dbg !1234, !tbaa !1213
  %2 = bitcast i8* %1 to %class.BulletinRWLock*, !dbg !1235
  store %class.BulletinRWLock* %2, %class.BulletinRWLock** %rbuf_ptr, align 8, !dbg !1233, !tbaa !1213
  %3 = bitcast i32* %i to i8*, !dbg !1236
  call void @llvm.lifetime.start.p0i8(i64 4, i8* %3) #8, !dbg !1236
  call void @llvm.dbg.declare(metadata i32* %i, metadata !1230, metadata !DIExpression()), !dbg !1237
  store i32 0, i32* %i, align 4, !dbg !1237, !tbaa !1183
  br label %while.cond, !dbg !1238

while.cond:                                       ; preds = %invoke.cont2, %entry
  br label %while.body, !dbg !1238

while.body:                                       ; preds = %while.cond
  %4 = load %class.BulletinRWLock*, %class.BulletinRWLock** %rbuf_ptr, align 8, !dbg !1239, !tbaa !1213
  %5 = bitcast %"class.std::allocator"* %ref.tmp to i8*, !dbg !1241
  call void @llvm.lifetime.start.p0i8(i64 1, i8* %5) #8, !dbg !1241
  call void @_ZNSaIcEC2Ev(%"class.std::allocator"* %ref.tmp) #8, !dbg !1241
  invoke void @_ZNSt7__cxx1112basic_stringIcSt11char_traitsIcESaIcEEC2EPKcRKS3_(%"class.std::__cxx11::basic_string"* %agg.tmp, i8* getelementptr inbounds ([12 x i8], [12 x i8]* @.str.4, i64 0, i64 0), %"class.std::allocator"* dereferenceable(1) %ref.tmp)
          to label %invoke.cont unwind label %lpad, !dbg !1241

invoke.cont:                                      ; preds = %while.body
  invoke void @_ZN14BulletinRWLock6UpdateENSt7__cxx1112basic_stringIcSt11char_traitsIcESaIcEEE(%class.BulletinRWLock* %4, %"class.std::__cxx11::basic_string"* %agg.tmp)
          to label %invoke.cont2 unwind label %lpad1, !dbg !1242

invoke.cont2:                                     ; preds = %invoke.cont
  call void @_ZNSt7__cxx1112basic_stringIcSt11char_traitsIcESaIcEED2Ev(%"class.std::__cxx11::basic_string"* %agg.tmp) #8, !dbg !1239
  call void @_ZNSaIcED2Ev(%"class.std::allocator"* %ref.tmp) #8, !dbg !1239
  %6 = bitcast %"class.std::allocator"* %ref.tmp to i8*, !dbg !1239
  call void @llvm.lifetime.end.p0i8(i64 1, i8* %6) #8, !dbg !1239
  %7 = load i32, i32* %i, align 4, !dbg !1243, !tbaa !1183
  %inc = add nsw i32 %7, 1, !dbg !1243
  store i32 %inc, i32* %i, align 4, !dbg !1243, !tbaa !1183
  %call = call i32 @sleep(i32 1), !dbg !1244
  br label %while.cond, !dbg !1238, !llvm.loop !1245

lpad:                                             ; preds = %while.body
  %8 = landingpad { i8*, i32 }
          cleanup, !dbg !1247
  %9 = extractvalue { i8*, i32 } %8, 0, !dbg !1247
  store i8* %9, i8** %exn.slot, align 8, !dbg !1247
  %10 = extractvalue { i8*, i32 } %8, 1, !dbg !1247
  store i32 %10, i32* %ehselector.slot, align 4, !dbg !1247
  br label %ehcleanup, !dbg !1247

lpad1:                                            ; preds = %invoke.cont
  %11 = landingpad { i8*, i32 }
          cleanup, !dbg !1247
  %12 = extractvalue { i8*, i32 } %11, 0, !dbg !1247
  store i8* %12, i8** %exn.slot, align 8, !dbg !1247
  %13 = extractvalue { i8*, i32 } %11, 1, !dbg !1247
  store i32 %13, i32* %ehselector.slot, align 4, !dbg !1247
  call void @_ZNSt7__cxx1112basic_stringIcSt11char_traitsIcESaIcEED2Ev(%"class.std::__cxx11::basic_string"* %agg.tmp) #8, !dbg !1239
  br label %ehcleanup, !dbg !1239

ehcleanup:                                        ; preds = %lpad1, %lpad
  call void @_ZNSaIcED2Ev(%"class.std::allocator"* %ref.tmp) #8, !dbg !1239
  %14 = bitcast %"class.std::allocator"* %ref.tmp to i8*, !dbg !1239
  call void @llvm.lifetime.end.p0i8(i64 1, i8* %14) #8, !dbg !1239
  %15 = bitcast i32* %i to i8*, !dbg !1248
  call void @llvm.lifetime.end.p0i8(i64 4, i8* %15) #8, !dbg !1248
  %16 = bitcast %class.BulletinRWLock** %rbuf_ptr to i8*, !dbg !1248
  call void @llvm.lifetime.end.p0i8(i64 8, i8* %16) #8, !dbg !1248
  br label %eh.resume, !dbg !1248

eh.resume:                                        ; preds = %ehcleanup
  %exn = load i8*, i8** %exn.slot, align 8, !dbg !1248
  %sel = load i32, i32* %ehselector.slot, align 4, !dbg !1248
  %lpad.val = insertvalue { i8*, i32 } undef, i8* %exn, 0, !dbg !1248
  %lpad.val6 = insertvalue { i8*, i32 } %lpad.val, i32 %sel, 1, !dbg !1248
  resume { i8*, i32 } %lpad.val6, !dbg !1248
}

declare !dbg !41 dso_local void @perror(i8*) #5

declare dso_local i32 @__gxx_personality_v0(...)

; Function Attrs: noreturn nounwind
declare dso_local void @exit(i32) #6

; Function Attrs: uwtable
define internal i8* @_ZL6ReaderPv(i8* %rbuf) #3 personality i8* bitcast (i32 (...)* @__gxx_personality_v0 to i8*) !dbg !1249 {
entry:
  %rbuf.addr = alloca i8*, align 8
  %rbuf_ptr = alloca %class.BulletinRWLock*, align 8
  %i = alloca i32, align 4
  %msg = alloca %"class.std::__cxx11::basic_string", align 8
  %exn.slot = alloca i8*
  %ehselector.slot = alloca i32
  store i8* %rbuf, i8** %rbuf.addr, align 8, !tbaa !1213
  call void @llvm.dbg.declare(metadata i8** %rbuf.addr, metadata !1251, metadata !DIExpression()), !dbg !1256
  %0 = bitcast %class.BulletinRWLock** %rbuf_ptr to i8*, !dbg !1257
  call void @llvm.lifetime.start.p0i8(i64 8, i8* %0) #8, !dbg !1257
  call void @llvm.dbg.declare(metadata %class.BulletinRWLock** %rbuf_ptr, metadata !1252, metadata !DIExpression()), !dbg !1258
  %1 = load i8*, i8** %rbuf.addr, align 8, !dbg !1259, !tbaa !1213
  %2 = bitcast i8* %1 to %class.BulletinRWLock*, !dbg !1260
  store %class.BulletinRWLock* %2, %class.BulletinRWLock** %rbuf_ptr, align 8, !dbg !1258, !tbaa !1213
  %3 = bitcast i32* %i to i8*, !dbg !1261
  call void @llvm.lifetime.start.p0i8(i64 4, i8* %3) #8, !dbg !1261
  call void @llvm.dbg.declare(metadata i32* %i, metadata !1253, metadata !DIExpression()), !dbg !1262
  store i32 0, i32* %i, align 4, !dbg !1262, !tbaa !1183
  br label %while.cond, !dbg !1263

while.cond:                                       ; preds = %invoke.cont1, %entry
  br label %while.body, !dbg !1263

while.body:                                       ; preds = %while.cond
  %4 = bitcast %"class.std::__cxx11::basic_string"* %msg to i8*, !dbg !1264
  call void @llvm.lifetime.start.p0i8(i64 32, i8* %4) #8, !dbg !1264
  call void @llvm.dbg.declare(metadata %"class.std::__cxx11::basic_string"* %msg, metadata !1254, metadata !DIExpression()), !dbg !1265
  %5 = load %class.BulletinRWLock*, %class.BulletinRWLock** %rbuf_ptr, align 8, !dbg !1266, !tbaa !1213
  call void @_ZN14BulletinRWLock4ReadB5cxx11Ev(%"class.std::__cxx11::basic_string"* sret %msg, %class.BulletinRWLock* %5), !dbg !1267
  %call = invoke dereferenceable(272) %"class.std::basic_ostream"* @_ZStlsIcSt11char_traitsIcESaIcEERSt13basic_ostreamIT_T0_ES7_RKNSt7__cxx1112basic_stringIS4_S5_T1_EE(%"class.std::basic_ostream"* dereferenceable(272) @_ZSt4cout, %"class.std::__cxx11::basic_string"* dereferenceable(32) %msg)
          to label %invoke.cont unwind label %lpad, !dbg !1268

invoke.cont:                                      ; preds = %while.body
  %call2 = invoke dereferenceable(272) %"class.std::basic_ostream"* @_ZNSolsEPFRSoS_E(%"class.std::basic_ostream"* %call, %"class.std::basic_ostream"* (%"class.std::basic_ostream"*)* @_ZSt4endlIcSt11char_traitsIcEERSt13basic_ostreamIT_T0_ES6_)
          to label %invoke.cont1 unwind label %lpad, !dbg !1269

invoke.cont1:                                     ; preds = %invoke.cont
  call void @_ZNSt7__cxx1112basic_stringIcSt11char_traitsIcESaIcEED2Ev(%"class.std::__cxx11::basic_string"* %msg) #8, !dbg !1270
  %6 = bitcast %"class.std::__cxx11::basic_string"* %msg to i8*, !dbg !1270
  call void @llvm.lifetime.end.p0i8(i64 32, i8* %6) #8, !dbg !1270
  br label %while.cond, !dbg !1263, !llvm.loop !1271

lpad:                                             ; preds = %invoke.cont, %while.body
  %7 = landingpad { i8*, i32 }
          cleanup, !dbg !1272
  %8 = extractvalue { i8*, i32 } %7, 0, !dbg !1272
  store i8* %8, i8** %exn.slot, align 8, !dbg !1272
  %9 = extractvalue { i8*, i32 } %7, 1, !dbg !1272
  store i32 %9, i32* %ehselector.slot, align 4, !dbg !1272
  call void @_ZNSt7__cxx1112basic_stringIcSt11char_traitsIcESaIcEED2Ev(%"class.std::__cxx11::basic_string"* %msg) #8, !dbg !1270
  %10 = bitcast %"class.std::__cxx11::basic_string"* %msg to i8*, !dbg !1270
  call void @llvm.lifetime.end.p0i8(i64 32, i8* %10) #8, !dbg !1270
  %11 = bitcast i32* %i to i8*, !dbg !1273
  call void @llvm.lifetime.end.p0i8(i64 4, i8* %11) #8, !dbg !1273
  %12 = bitcast %class.BulletinRWLock** %rbuf_ptr to i8*, !dbg !1273
  call void @llvm.lifetime.end.p0i8(i64 8, i8* %12) #8, !dbg !1273
  br label %eh.resume, !dbg !1273

eh.resume:                                        ; preds = %lpad
  %exn = load i8*, i8** %exn.slot, align 8, !dbg !1273
  %sel = load i32, i32* %ehselector.slot, align 4, !dbg !1273
  %lpad.val = insertvalue { i8*, i32 } undef, i8* %exn, 0, !dbg !1273
  %lpad.val3 = insertvalue { i8*, i32 } %lpad.val, i32 %sel, 1, !dbg !1273
  resume { i8*, i32 } %lpad.val3, !dbg !1273
}

declare !dbg !49 dso_local i32 @pthread_join(i64, i8**) #5

; Function Attrs: argmemonly nounwind willreturn
declare void @llvm.lifetime.end.p0i8(i64 immarg, i8* nocapture) #1

; Function Attrs: nounwind uwtable
define linkonce_odr dso_local void @_ZN14BulletinRWLockD2Ev(%class.BulletinRWLock* %this) unnamed_addr #7 comdat align 2 !dbg !1274 {
entry:
  %this.addr = alloca %class.BulletinRWLock*, align 8
  store %class.BulletinRWLock* %this, %class.BulletinRWLock** %this.addr, align 8, !tbaa !1213
  call void @llvm.dbg.declare(metadata %class.BulletinRWLock** %this.addr, metadata !1276, metadata !DIExpression()), !dbg !1277
  %this1 = load %class.BulletinRWLock*, %class.BulletinRWLock** %this.addr, align 8
  %message_ = getelementptr inbounds %class.BulletinRWLock, %class.BulletinRWLock* %this1, i32 0, i32 1, !dbg !1278
  call void @_ZNSt7__cxx1112basic_stringIcSt11char_traitsIcESaIcEED2Ev(%"class.std::__cxx11::basic_string"* %message_) #8, !dbg !1278
  ret void, !dbg !1280
}

; Function Attrs: uwtable
define internal void @__cxx_global_var_init() #3 section ".text.startup" !dbg !1281 {
entry:
  call void @_ZNSt8ios_base4InitC1Ev(%"class.std::ios_base::Init"* @_ZStL8__ioinit), !dbg !1282
  %0 = call i32 @__cxa_atexit(void (i8*)* bitcast (void (%"class.std::ios_base::Init"*)* @_ZNSt8ios_base4InitD1Ev to void (i8*)*), i8* getelementptr inbounds (%"class.std::ios_base::Init", %"class.std::ios_base::Init"* @_ZStL8__ioinit, i32 0, i32 0), i8* @__dso_handle) #8, !dbg !1282
  ret void, !dbg !1282
}

declare dso_local void @_ZNSt8ios_base4InitC1Ev(%"class.std::ios_base::Init"*) unnamed_addr #5

; Function Attrs: nounwind
declare dso_local void @_ZNSt8ios_base4InitD1Ev(%"class.std::ios_base::Init"*) unnamed_addr #4

; Function Attrs: nounwind
declare dso_local i32 @__cxa_atexit(void (i8*)*, i8*, i8*) #8

; Function Attrs: nounwind uwtable
define available_externally dso_local void @_ZNSaIcEC2Ev(%"class.std::allocator"* %this) unnamed_addr #7 align 2 !dbg !1283 {
entry:
  %this.addr = alloca %"class.std::allocator"*, align 8
  store %"class.std::allocator"* %this, %"class.std::allocator"** %this.addr, align 8, !tbaa !1213
  call void @llvm.dbg.declare(metadata %"class.std::allocator"** %this.addr, metadata !1289, metadata !DIExpression()), !dbg !1291
  %this1 = load %"class.std::allocator"*, %"class.std::allocator"** %this.addr, align 8
  %0 = bitcast %"class.std::allocator"* %this1 to %"class.__gnu_cxx::new_allocator"*, !dbg !1292
  call void @_ZN9__gnu_cxx13new_allocatorIcEC2Ev(%"class.__gnu_cxx::new_allocator"* %0) #8, !dbg !1293
  ret void, !dbg !1294
}

; Function Attrs: uwtable
define available_externally dso_local void @_ZNSt7__cxx1112basic_stringIcSt11char_traitsIcESaIcEEC2EPKcRKS3_(%"class.std::__cxx11::basic_string"* %this, i8* %__s, %"class.std::allocator"* dereferenceable(1) %__a) unnamed_addr #3 align 2 personality i8* bitcast (i32 (...)* @__gxx_personality_v0 to i8*) !dbg !1295 {
entry:
  %this.addr = alloca %"class.std::__cxx11::basic_string"*, align 8
  %__s.addr = alloca i8*, align 8
  %__a.addr = alloca %"class.std::allocator"*, align 8
  %exn.slot = alloca i8*
  %ehselector.slot = alloca i32
  store %"class.std::__cxx11::basic_string"* %this, %"class.std::__cxx11::basic_string"** %this.addr, align 8, !tbaa !1213
  call void @llvm.dbg.declare(metadata %"class.std::__cxx11::basic_string"** %this.addr, metadata !1301, metadata !DIExpression()), !dbg !1305
  store i8* %__s, i8** %__s.addr, align 8, !tbaa !1213
  call void @llvm.dbg.declare(metadata i8** %__s.addr, metadata !1303, metadata !DIExpression()), !dbg !1306
  store %"class.std::allocator"* %__a, %"class.std::allocator"** %__a.addr, align 8, !tbaa !1213
  call void @llvm.dbg.declare(metadata %"class.std::allocator"** %__a.addr, metadata !1304, metadata !DIExpression()), !dbg !1307
  %this1 = load %"class.std::__cxx11::basic_string"*, %"class.std::__cxx11::basic_string"** %this.addr, align 8
  %_M_dataplus = getelementptr inbounds %"class.std::__cxx11::basic_string", %"class.std::__cxx11::basic_string"* %this1, i32 0, i32 0, !dbg !1308
  %call = call i8* @_ZNSt7__cxx1112basic_stringIcSt11char_traitsIcESaIcEE13_M_local_dataEv(%"class.std::__cxx11::basic_string"* %this1), !dbg !1309
  %0 = load %"class.std::allocator"*, %"class.std::allocator"** %__a.addr, align 8, !dbg !1310, !tbaa !1213
  call void @_ZNSt7__cxx1112basic_stringIcSt11char_traitsIcESaIcEE12_Alloc_hiderC2EPcRKS3_(%"struct.std::__cxx11::basic_string<char, std::char_traits<char>, std::allocator<char> >::_Alloc_hider"* %_M_dataplus, i8* %call, %"class.std::allocator"* dereferenceable(1) %0), !dbg !1308
  %1 = load i8*, i8** %__s.addr, align 8, !dbg !1311, !tbaa !1213
  %2 = load i8*, i8** %__s.addr, align 8, !dbg !1313, !tbaa !1213
  %tobool = icmp ne i8* %2, null, !dbg !1313
  br i1 %tobool, label %cond.true, label %cond.false, !dbg !1313

cond.true:                                        ; preds = %entry
  %3 = load i8*, i8** %__s.addr, align 8, !dbg !1314, !tbaa !1213
  %4 = load i8*, i8** %__s.addr, align 8, !dbg !1315, !tbaa !1213
  %call2 = invoke i64 @_ZNSt11char_traitsIcE6lengthEPKc(i8* %4)
          to label %invoke.cont unwind label %lpad, !dbg !1316

invoke.cont:                                      ; preds = %cond.true
  %add.ptr = getelementptr inbounds i8, i8* %3, i64 %call2, !dbg !1317
  br label %cond.end, !dbg !1313

cond.false:                                       ; preds = %entry
  %5 = load i8*, i8** %__s.addr, align 8, !dbg !1318, !tbaa !1213
  %add.ptr3 = getelementptr inbounds i8, i8* %5, i64 -1, !dbg !1319
  br label %cond.end, !dbg !1313

cond.end:                                         ; preds = %cond.false, %invoke.cont
  %cond = phi i8* [ %add.ptr, %invoke.cont ], [ %add.ptr3, %cond.false ], !dbg !1313
  invoke void @_ZNSt7__cxx1112basic_stringIcSt11char_traitsIcESaIcEE12_M_constructIPKcEEvT_S8_(%"class.std::__cxx11::basic_string"* %this1, i8* %1, i8* %cond)
          to label %invoke.cont4 unwind label %lpad, !dbg !1320

invoke.cont4:                                     ; preds = %cond.end
  ret void, !dbg !1321

lpad:                                             ; preds = %cond.end, %cond.true
  %6 = landingpad { i8*, i32 }
          cleanup, !dbg !1322
  %7 = extractvalue { i8*, i32 } %6, 0, !dbg !1322
  store i8* %7, i8** %exn.slot, align 8, !dbg !1322
  %8 = extractvalue { i8*, i32 } %6, 1, !dbg !1322
  store i32 %8, i32* %ehselector.slot, align 4, !dbg !1322
  call void bitcast (void (%"class.std::allocator"*)* @_ZNSaIcED2Ev to void (%"struct.std::__cxx11::basic_string<char, std::char_traits<char>, std::allocator<char> >::_Alloc_hider"*)*)(%"struct.std::__cxx11::basic_string<char, std::char_traits<char>, std::allocator<char> >::_Alloc_hider"* %_M_dataplus) #8, !dbg !1322
  br label %eh.resume, !dbg !1322

eh.resume:                                        ; preds = %lpad
  %exn = load i8*, i8** %exn.slot, align 8, !dbg !1322
  %sel = load i32, i32* %ehselector.slot, align 4, !dbg !1322
  %lpad.val = insertvalue { i8*, i32 } undef, i8* %exn, 0, !dbg !1322
  %lpad.val5 = insertvalue { i8*, i32 } %lpad.val, i32 %sel, 1, !dbg !1322
  resume { i8*, i32 } %lpad.val5, !dbg !1322
}

; Function Attrs: nounwind
declare !dbg !55 dso_local i32 @pthread_rwlock_init(%union.pthread_rwlock_t*, %union.pthread_rwlockattr_t*) #4

; Function Attrs: nounwind uwtable
define linkonce_odr dso_local void @_ZN9__gnu_cxx13new_allocatorIcEC2Ev(%"class.__gnu_cxx::new_allocator"* %this) unnamed_addr #7 comdat align 2 !dbg !1323 {
entry:
  %this.addr = alloca %"class.__gnu_cxx::new_allocator"*, align 8
  store %"class.__gnu_cxx::new_allocator"* %this, %"class.__gnu_cxx::new_allocator"** %this.addr, align 8, !tbaa !1213
  call void @llvm.dbg.declare(metadata %"class.__gnu_cxx::new_allocator"** %this.addr, metadata !1364, metadata !DIExpression()), !dbg !1366
  %this1 = load %"class.__gnu_cxx::new_allocator"*, %"class.__gnu_cxx::new_allocator"** %this.addr, align 8
  ret void, !dbg !1367
}

; Function Attrs: nounwind uwtable
define available_externally dso_local i8* @_ZNSt7__cxx1112basic_stringIcSt11char_traitsIcESaIcEE13_M_local_dataEv(%"class.std::__cxx11::basic_string"* %this) #7 align 2 !dbg !1368 {
entry:
  %this.addr = alloca %"class.std::__cxx11::basic_string"*, align 8
  store %"class.std::__cxx11::basic_string"* %this, %"class.std::__cxx11::basic_string"** %this.addr, align 8, !tbaa !1213
  call void @llvm.dbg.declare(metadata %"class.std::__cxx11::basic_string"** %this.addr, metadata !1375, metadata !DIExpression()), !dbg !1376
  %this1 = load %"class.std::__cxx11::basic_string"*, %"class.std::__cxx11::basic_string"** %this.addr, align 8
  %0 = getelementptr inbounds %"class.std::__cxx11::basic_string", %"class.std::__cxx11::basic_string"* %this1, i32 0, i32 2, !dbg !1377
  %_M_local_buf = bitcast %union.anon* %0 to [16 x i8]*, !dbg !1377
  %arraydecay = getelementptr inbounds [16 x i8], [16 x i8]* %_M_local_buf, i64 0, i64 0, !dbg !1378
  %call = call i8* @_ZNSt14pointer_traitsIPcE10pointer_toERc(i8* dereferenceable(1) %arraydecay) #8, !dbg !1379
  ret i8* %call, !dbg !1380
}

; Function Attrs: nounwind uwtable
define available_externally dso_local void @_ZNSt7__cxx1112basic_stringIcSt11char_traitsIcESaIcEE12_Alloc_hiderC2EPcRKS3_(%"struct.std::__cxx11::basic_string<char, std::char_traits<char>, std::allocator<char> >::_Alloc_hider"* %this, i8* %__dat, %"class.std::allocator"* dereferenceable(1) %__a) unnamed_addr #7 align 2 !dbg !1381 {
entry:
  %this.addr = alloca %"struct.std::__cxx11::basic_string<char, std::char_traits<char>, std::allocator<char> >::_Alloc_hider"*, align 8
  %__dat.addr = alloca i8*, align 8
  %__a.addr = alloca %"class.std::allocator"*, align 8
  store %"struct.std::__cxx11::basic_string<char, std::char_traits<char>, std::allocator<char> >::_Alloc_hider"* %this, %"struct.std::__cxx11::basic_string<char, std::char_traits<char>, std::allocator<char> >::_Alloc_hider"** %this.addr, align 8, !tbaa !1213
  call void @llvm.dbg.declare(metadata %"struct.std::__cxx11::basic_string<char, std::char_traits<char>, std::allocator<char> >::_Alloc_hider"** %this.addr, metadata !1400, metadata !DIExpression()), !dbg !1404
  store i8* %__dat, i8** %__dat.addr, align 8, !tbaa !1213
  call void @llvm.dbg.declare(metadata i8** %__dat.addr, metadata !1402, metadata !DIExpression()), !dbg !1405
  store %"class.std::allocator"* %__a, %"class.std::allocator"** %__a.addr, align 8, !tbaa !1213
  call void @llvm.dbg.declare(metadata %"class.std::allocator"** %__a.addr, metadata !1403, metadata !DIExpression()), !dbg !1406
  %this1 = load %"struct.std::__cxx11::basic_string<char, std::char_traits<char>, std::allocator<char> >::_Alloc_hider"*, %"struct.std::__cxx11::basic_string<char, std::char_traits<char>, std::allocator<char> >::_Alloc_hider"** %this.addr, align 8
  %0 = bitcast %"struct.std::__cxx11::basic_string<char, std::char_traits<char>, std::allocator<char> >::_Alloc_hider"* %this1 to %"class.std::allocator"*, !dbg !1407
  %1 = load %"class.std::allocator"*, %"class.std::allocator"** %__a.addr, align 8, !dbg !1408, !tbaa !1213
  call void @_ZNSaIcEC2ERKS_(%"class.std::allocator"* %0, %"class.std::allocator"* dereferenceable(1) %1) #8, !dbg !1409
  %_M_p = getelementptr inbounds %"struct.std::__cxx11::basic_string<char, std::char_traits<char>, std::allocator<char> >::_Alloc_hider", %"struct.std::__cxx11::basic_string<char, std::char_traits<char>, std::allocator<char> >::_Alloc_hider"* %this1, i32 0, i32 0, !dbg !1410
  %2 = load i8*, i8** %__dat.addr, align 8, !dbg !1411, !tbaa !1213
  store i8* %2, i8** %_M_p, align 8, !dbg !1410, !tbaa !1412
  ret void, !dbg !1414
}

; Function Attrs: uwtable
define linkonce_odr dso_local void @_ZNSt7__cxx1112basic_stringIcSt11char_traitsIcESaIcEE12_M_constructIPKcEEvT_S8_(%"class.std::__cxx11::basic_string"* %this, i8* %__beg, i8* %__end) #3 comdat align 2 !dbg !1415 {
entry:
  %this.addr = alloca %"class.std::__cxx11::basic_string"*, align 8
  %__beg.addr = alloca i8*, align 8
  %__end.addr = alloca i8*, align 8
  %agg.tmp = alloca %"struct.std::__false_type", align 1
  store %"class.std::__cxx11::basic_string"* %this, %"class.std::__cxx11::basic_string"** %this.addr, align 8, !tbaa !1213
  call void @llvm.dbg.declare(metadata %"class.std::__cxx11::basic_string"** %this.addr, metadata !1422, metadata !DIExpression()), !dbg !1425
  store i8* %__beg, i8** %__beg.addr, align 8, !tbaa !1213
  call void @llvm.dbg.declare(metadata i8** %__beg.addr, metadata !1423, metadata !DIExpression()), !dbg !1426
  store i8* %__end, i8** %__end.addr, align 8, !tbaa !1213
  call void @llvm.dbg.declare(metadata i8** %__end.addr, metadata !1424, metadata !DIExpression()), !dbg !1427
  %this1 = load %"class.std::__cxx11::basic_string"*, %"class.std::__cxx11::basic_string"** %this.addr, align 8
  %0 = load i8*, i8** %__beg.addr, align 8, !dbg !1428, !tbaa !1213
  %1 = load i8*, i8** %__end.addr, align 8, !dbg !1429, !tbaa !1213
  call void @_ZNSt7__cxx1112basic_stringIcSt11char_traitsIcESaIcEE16_M_construct_auxIPKcEEvT_S8_St12__false_type(%"class.std::__cxx11::basic_string"* %this1, i8* %0, i8* %1), !dbg !1430
  ret void, !dbg !1431
}

; Function Attrs: nounwind uwtable
define linkonce_odr dso_local i64 @_ZNSt11char_traitsIcE6lengthEPKc(i8* %__s) #7 comdat align 2 !dbg !1432 {
entry:
  %__s.addr = alloca i8*, align 8
  store i8* %__s, i8** %__s.addr, align 8, !tbaa !1213
  call void @llvm.dbg.declare(metadata i8** %__s.addr, metadata !1434, metadata !DIExpression()), !dbg !1435
  %0 = load i8*, i8** %__s.addr, align 8, !dbg !1436, !tbaa !1213
  %call = call i64 @strlen(i8* %0) #8, !dbg !1437
  ret i64 %call, !dbg !1438
}

; Function Attrs: nounwind uwtable
define available_externally dso_local void @_ZNSaIcED2Ev(%"class.std::allocator"* %this) unnamed_addr #7 align 2 !dbg !1439 {
entry:
  %this.addr = alloca %"class.std::allocator"*, align 8
  store %"class.std::allocator"* %this, %"class.std::allocator"** %this.addr, align 8, !tbaa !1213
  call void @llvm.dbg.declare(metadata %"class.std::allocator"** %this.addr, metadata !1442, metadata !DIExpression()), !dbg !1443
  %this1 = load %"class.std::allocator"*, %"class.std::allocator"** %this.addr, align 8
  %0 = bitcast %"class.std::allocator"* %this1 to %"class.__gnu_cxx::new_allocator"*, !dbg !1444
  call void @_ZN9__gnu_cxx13new_allocatorIcED2Ev(%"class.__gnu_cxx::new_allocator"* %0) #8, !dbg !1444
  ret void, !dbg !1446
}

; Function Attrs: nounwind uwtable
define linkonce_odr dso_local i8* @_ZNSt14pointer_traitsIPcE10pointer_toERc(i8* dereferenceable(1) %__r) #7 comdat align 2 !dbg !1447 {
entry:
  %__r.addr = alloca i8*, align 8
  store i8* %__r, i8** %__r.addr, align 8, !tbaa !1213
  call void @llvm.dbg.declare(metadata i8** %__r.addr, metadata !1468, metadata !DIExpression()), !dbg !1469
  %0 = load i8*, i8** %__r.addr, align 8, !dbg !1470, !tbaa !1213
  %call = call i8* @_ZSt9addressofIcEPT_RS0_(i8* dereferenceable(1) %0) #8, !dbg !1471
  ret i8* %call, !dbg !1472
}

; Function Attrs: inlinehint nounwind uwtable
define linkonce_odr dso_local i8* @_ZSt9addressofIcEPT_RS0_(i8* dereferenceable(1) %__r) #9 comdat !dbg !1473 {
entry:
  %__r.addr = alloca i8*, align 8
  store i8* %__r, i8** %__r.addr, align 8, !tbaa !1213
  call void @llvm.dbg.declare(metadata i8** %__r.addr, metadata !1478, metadata !DIExpression()), !dbg !1479
  %0 = load i8*, i8** %__r.addr, align 8, !dbg !1480, !tbaa !1213
  %call = call i8* @_ZSt11__addressofIcEPT_RS0_(i8* dereferenceable(1) %0) #8, !dbg !1481
  ret i8* %call, !dbg !1482
}

; Function Attrs: inlinehint nounwind uwtable
define linkonce_odr dso_local i8* @_ZSt11__addressofIcEPT_RS0_(i8* dereferenceable(1) %__r) #9 comdat !dbg !1483 {
entry:
  %__r.addr = alloca i8*, align 8
  store i8* %__r, i8** %__r.addr, align 8, !tbaa !1213
  call void @llvm.dbg.declare(metadata i8** %__r.addr, metadata !1485, metadata !DIExpression()), !dbg !1486
  %0 = load i8*, i8** %__r.addr, align 8, !dbg !1487, !tbaa !1213
  ret i8* %0, !dbg !1488
}

; Function Attrs: nounwind uwtable
define linkonce_odr dso_local void @_ZN9__gnu_cxx13new_allocatorIcEC2ERKS1_(%"class.__gnu_cxx::new_allocator"* %this, %"class.__gnu_cxx::new_allocator"* dereferenceable(1) %0) unnamed_addr #7 comdat align 2 !dbg !1489 {
entry:
  %this.addr = alloca %"class.__gnu_cxx::new_allocator"*, align 8
  %.addr = alloca %"class.__gnu_cxx::new_allocator"*, align 8
  store %"class.__gnu_cxx::new_allocator"* %this, %"class.__gnu_cxx::new_allocator"** %this.addr, align 8, !tbaa !1213
  call void @llvm.dbg.declare(metadata %"class.__gnu_cxx::new_allocator"** %this.addr, metadata !1491, metadata !DIExpression()), !dbg !1493
  store %"class.__gnu_cxx::new_allocator"* %0, %"class.__gnu_cxx::new_allocator"** %.addr, align 8, !tbaa !1213
  call void @llvm.dbg.declare(metadata %"class.__gnu_cxx::new_allocator"** %.addr, metadata !1492, metadata !DIExpression()), !dbg !1494
  %this1 = load %"class.__gnu_cxx::new_allocator"*, %"class.__gnu_cxx::new_allocator"** %this.addr, align 8
  ret void, !dbg !1495
}

; Function Attrs: uwtable
define linkonce_odr dso_local void @_ZNSt7__cxx1112basic_stringIcSt11char_traitsIcESaIcEE16_M_construct_auxIPKcEEvT_S8_St12__false_type(%"class.std::__cxx11::basic_string"* %this, i8* %__beg, i8* %__end) #3 comdat align 2 !dbg !1496 {
entry:
  %0 = alloca %"struct.std::__false_type", align 1
  %this.addr = alloca %"class.std::__cxx11::basic_string"*, align 8
  %__beg.addr = alloca i8*, align 8
  %__end.addr = alloca i8*, align 8
  %agg.tmp = alloca %"struct.std::forward_iterator_tag", align 1
  %ref.tmp = alloca %"struct.std::random_access_iterator_tag", align 1
  store %"class.std::__cxx11::basic_string"* %this, %"class.std::__cxx11::basic_string"** %this.addr, align 8, !tbaa !1213
  call void @llvm.dbg.declare(metadata %"class.std::__cxx11::basic_string"** %this.addr, metadata !1503, metadata !DIExpression()), !dbg !1507
  store i8* %__beg, i8** %__beg.addr, align 8, !tbaa !1213
  call void @llvm.dbg.declare(metadata i8** %__beg.addr, metadata !1504, metadata !DIExpression()), !dbg !1508
  store i8* %__end, i8** %__end.addr, align 8, !tbaa !1213
  call void @llvm.dbg.declare(metadata i8** %__end.addr, metadata !1505, metadata !DIExpression()), !dbg !1509
  call void @llvm.dbg.declare(metadata %"struct.std::__false_type"* %0, metadata !1506, metadata !DIExpression()), !dbg !1510
  %this1 = load %"class.std::__cxx11::basic_string"*, %"class.std::__cxx11::basic_string"** %this.addr, align 8
  %1 = load i8*, i8** %__beg.addr, align 8, !dbg !1511, !tbaa !1213
  %2 = load i8*, i8** %__end.addr, align 8, !dbg !1512, !tbaa !1213
  %3 = bitcast %"struct.std::random_access_iterator_tag"* %ref.tmp to i8*, !dbg !1513
  call void @llvm.lifetime.start.p0i8(i64 1, i8* %3) #8, !dbg !1513
  %4 = bitcast %"struct.std::random_access_iterator_tag"* %ref.tmp to %"struct.std::forward_iterator_tag"*, !dbg !1513
  call void @_ZNSt7__cxx1112basic_stringIcSt11char_traitsIcESaIcEE12_M_constructIPKcEEvT_S8_St20forward_iterator_tag(%"class.std::__cxx11::basic_string"* %this1, i8* %1, i8* %2), !dbg !1514
  %5 = bitcast %"struct.std::random_access_iterator_tag"* %ref.tmp to i8*, !dbg !1514
  call void @llvm.lifetime.end.p0i8(i64 1, i8* %5) #8, !dbg !1514
  ret void, !dbg !1515
}

; Function Attrs: uwtable
define linkonce_odr dso_local void @_ZNSt7__cxx1112basic_stringIcSt11char_traitsIcESaIcEE12_M_constructIPKcEEvT_S8_St20forward_iterator_tag(%"class.std::__cxx11::basic_string"* %this, i8* %__beg, i8* %__end) #3 comdat align 2 personality i8* bitcast (i32 (...)* @__gxx_personality_v0 to i8*) !dbg !1516 {
entry:
  %0 = alloca %"struct.std::forward_iterator_tag", align 1
  %this.addr = alloca %"class.std::__cxx11::basic_string"*, align 8
  %__beg.addr = alloca i8*, align 8
  %__end.addr = alloca i8*, align 8
  %__dnew = alloca i64, align 8
  %exn.slot = alloca i8*
  %ehselector.slot = alloca i32
  store %"class.std::__cxx11::basic_string"* %this, %"class.std::__cxx11::basic_string"** %this.addr, align 8, !tbaa !1213
  call void @llvm.dbg.declare(metadata %"class.std::__cxx11::basic_string"** %this.addr, metadata !1528, metadata !DIExpression()), !dbg !1533
  store i8* %__beg, i8** %__beg.addr, align 8, !tbaa !1213
  call void @llvm.dbg.declare(metadata i8** %__beg.addr, metadata !1529, metadata !DIExpression()), !dbg !1534
  store i8* %__end, i8** %__end.addr, align 8, !tbaa !1213
  call void @llvm.dbg.declare(metadata i8** %__end.addr, metadata !1530, metadata !DIExpression()), !dbg !1535
  call void @llvm.dbg.declare(metadata %"struct.std::forward_iterator_tag"* %0, metadata !1531, metadata !DIExpression()), !dbg !1536
  %this1 = load %"class.std::__cxx11::basic_string"*, %"class.std::__cxx11::basic_string"** %this.addr, align 8
  %1 = load i8*, i8** %__beg.addr, align 8, !dbg !1537, !tbaa !1213
  %call = call zeroext i1 @_ZN9__gnu_cxx17__is_null_pointerIKcEEbPT_(i8* %1), !dbg !1539
  br i1 %call, label %land.lhs.true, label %if.end, !dbg !1540

land.lhs.true:                                    ; preds = %entry
  %2 = load i8*, i8** %__beg.addr, align 8, !dbg !1541, !tbaa !1213
  %3 = load i8*, i8** %__end.addr, align 8, !dbg !1542, !tbaa !1213
  %cmp = icmp ne i8* %2, %3, !dbg !1543
  br i1 %cmp, label %if.then, label %if.end, !dbg !1544

if.then:                                          ; preds = %land.lhs.true
  call void @_ZSt19__throw_logic_errorPKc(i8* getelementptr inbounds ([42 x i8], [42 x i8]* @.str.3, i64 0, i64 0)) #15, !dbg !1545
  unreachable, !dbg !1545

if.end:                                           ; preds = %land.lhs.true, %entry
  %4 = bitcast i64* %__dnew to i8*, !dbg !1546
  call void @llvm.lifetime.start.p0i8(i64 8, i8* %4) #8, !dbg !1546
  call void @llvm.dbg.declare(metadata i64* %__dnew, metadata !1532, metadata !DIExpression()), !dbg !1547
  %5 = load i8*, i8** %__beg.addr, align 8, !dbg !1548, !tbaa !1213
  %6 = load i8*, i8** %__end.addr, align 8, !dbg !1549, !tbaa !1213
  %call2 = call i64 @_ZSt8distanceIPKcENSt15iterator_traitsIT_E15difference_typeES3_S3_(i8* %5, i8* %6), !dbg !1550
  store i64 %call2, i64* %__dnew, align 8, !dbg !1547, !tbaa !1205
  %7 = load i64, i64* %__dnew, align 8, !dbg !1551, !tbaa !1205
  %cmp3 = icmp ugt i64 %7, 15, !dbg !1553
  br i1 %cmp3, label %if.then4, label %if.end6, !dbg !1554

if.then4:                                         ; preds = %if.end
  %call5 = call i8* @_ZNSt7__cxx1112basic_stringIcSt11char_traitsIcESaIcEE9_M_createERmm(%"class.std::__cxx11::basic_string"* %this1, i64* dereferenceable(8) %__dnew, i64 0), !dbg !1555
  call void @_ZNSt7__cxx1112basic_stringIcSt11char_traitsIcESaIcEE7_M_dataEPc(%"class.std::__cxx11::basic_string"* %this1, i8* %call5), !dbg !1557
  %8 = load i64, i64* %__dnew, align 8, !dbg !1558, !tbaa !1205
  call void @_ZNSt7__cxx1112basic_stringIcSt11char_traitsIcESaIcEE11_M_capacityEm(%"class.std::__cxx11::basic_string"* %this1, i64 %8), !dbg !1559
  br label %if.end6, !dbg !1560

if.end6:                                          ; preds = %if.then4, %if.end
  %call7 = invoke i8* @_ZNKSt7__cxx1112basic_stringIcSt11char_traitsIcESaIcEE7_M_dataEv(%"class.std::__cxx11::basic_string"* %this1)
          to label %invoke.cont unwind label %lpad, !dbg !1561

invoke.cont:                                      ; preds = %if.end6
  %9 = load i8*, i8** %__beg.addr, align 8, !dbg !1563, !tbaa !1213
  %10 = load i8*, i8** %__end.addr, align 8, !dbg !1564, !tbaa !1213
  call void @_ZNSt7__cxx1112basic_stringIcSt11char_traitsIcESaIcEE13_S_copy_charsEPcPKcS7_(i8* %call7, i8* %9, i8* %10) #8, !dbg !1565
  br label %try.cont, !dbg !1566

lpad:                                             ; preds = %if.end6
  %11 = landingpad { i8*, i32 }
          catch i8* null, !dbg !1567
  %12 = extractvalue { i8*, i32 } %11, 0, !dbg !1567
  store i8* %12, i8** %exn.slot, align 8, !dbg !1567
  %13 = extractvalue { i8*, i32 } %11, 1, !dbg !1567
  store i32 %13, i32* %ehselector.slot, align 4, !dbg !1567
  br label %catch, !dbg !1567

catch:                                            ; preds = %lpad
  %exn = load i8*, i8** %exn.slot, align 8, !dbg !1566
  %14 = call i8* @__cxa_begin_catch(i8* %exn) #8, !dbg !1566
  invoke void @_ZNSt7__cxx1112basic_stringIcSt11char_traitsIcESaIcEE10_M_disposeEv(%"class.std::__cxx11::basic_string"* %this1)
          to label %invoke.cont9 unwind label %lpad8, !dbg !1568

invoke.cont9:                                     ; preds = %catch
  invoke void @__cxa_rethrow() #15
          to label %unreachable unwind label %lpad8, !dbg !1570

lpad8:                                            ; preds = %invoke.cont9, %catch
  %15 = landingpad { i8*, i32 }
          cleanup, !dbg !1571
  %16 = extractvalue { i8*, i32 } %15, 0, !dbg !1571
  store i8* %16, i8** %exn.slot, align 8, !dbg !1571
  %17 = extractvalue { i8*, i32 } %15, 1, !dbg !1571
  store i32 %17, i32* %ehselector.slot, align 4, !dbg !1571
  invoke void @__cxa_end_catch()
          to label %invoke.cont10 unwind label %terminate.lpad, !dbg !1572

invoke.cont10:                                    ; preds = %lpad8
  %18 = bitcast i64* %__dnew to i8*, !dbg !1573
  call void @llvm.lifetime.end.p0i8(i64 8, i8* %18) #8, !dbg !1573
  br label %eh.resume, !dbg !1573

try.cont:                                         ; preds = %invoke.cont
  %19 = load i64, i64* %__dnew, align 8, !dbg !1574, !tbaa !1205
  call void @_ZNSt7__cxx1112basic_stringIcSt11char_traitsIcESaIcEE13_M_set_lengthEm(%"class.std::__cxx11::basic_string"* %this1, i64 %19), !dbg !1575
  %20 = bitcast i64* %__dnew to i8*, !dbg !1573
  call void @llvm.lifetime.end.p0i8(i64 8, i8* %20) #8, !dbg !1573
  ret void, !dbg !1573

eh.resume:                                        ; preds = %invoke.cont10
  %exn11 = load i8*, i8** %exn.slot, align 8, !dbg !1573
  %sel = load i32, i32* %ehselector.slot, align 4, !dbg !1573
  %lpad.val = insertvalue { i8*, i32 } undef, i8* %exn11, 0, !dbg !1573
  %lpad.val12 = insertvalue { i8*, i32 } %lpad.val, i32 %sel, 1, !dbg !1573
  resume { i8*, i32 } %lpad.val12, !dbg !1573

terminate.lpad:                                   ; preds = %lpad8
  %21 = landingpad { i8*, i32 }
          catch i8* null, !dbg !1572
  %22 = extractvalue { i8*, i32 } %21, 0, !dbg !1572
  call void @__clang_call_terminate(i8* %22) #14, !dbg !1572
  unreachable, !dbg !1572

unreachable:                                      ; preds = %invoke.cont9
  unreachable
}

; Function Attrs: inlinehint nounwind uwtable
define linkonce_odr dso_local zeroext i1 @_ZN9__gnu_cxx17__is_null_pointerIKcEEbPT_(i8* %__ptr) #9 comdat !dbg !1576 {
entry:
  %__ptr.addr = alloca i8*, align 8
  store i8* %__ptr, i8** %__ptr.addr, align 8, !tbaa !1213
  call void @llvm.dbg.declare(metadata i8** %__ptr.addr, metadata !1581, metadata !DIExpression()), !dbg !1584
  %0 = load i8*, i8** %__ptr.addr, align 8, !dbg !1585, !tbaa !1213
  %cmp = icmp eq i8* %0, null, !dbg !1586
  ret i1 %cmp, !dbg !1587
}

; Function Attrs: noreturn
declare dso_local void @_ZSt19__throw_logic_errorPKc(i8*) #10

; Function Attrs: inlinehint uwtable
define linkonce_odr dso_local i64 @_ZSt8distanceIPKcENSt15iterator_traitsIT_E15difference_typeES3_S3_(i8* %__first, i8* %__last) #11 comdat !dbg !1588 {
entry:
  %__first.addr = alloca i8*, align 8
  %__last.addr = alloca i8*, align 8
  %agg.tmp = alloca %"struct.std::random_access_iterator_tag", align 1
  %undef.agg.tmp = alloca %"struct.std::random_access_iterator_tag", align 1
  store i8* %__first, i8** %__first.addr, align 8, !tbaa !1213
  call void @llvm.dbg.declare(metadata i8** %__first.addr, metadata !1598, metadata !DIExpression()), !dbg !1602
  store i8* %__last, i8** %__last.addr, align 8, !tbaa !1213
  call void @llvm.dbg.declare(metadata i8** %__last.addr, metadata !1599, metadata !DIExpression()), !dbg !1603
  %0 = load i8*, i8** %__first.addr, align 8, !dbg !1604, !tbaa !1213
  %1 = load i8*, i8** %__last.addr, align 8, !dbg !1605, !tbaa !1213
  call void @_ZSt19__iterator_categoryIPKcENSt15iterator_traitsIT_E17iterator_categoryERKS3_(i8** dereferenceable(8) %__first.addr), !dbg !1606
  %call = call i64 @_ZSt10__distanceIPKcENSt15iterator_traitsIT_E15difference_typeES3_S3_St26random_access_iterator_tag(i8* %0, i8* %1), !dbg !1607
  ret i64 %call, !dbg !1608
}

; Function Attrs: nounwind uwtable
define available_externally dso_local void @_ZNSt7__cxx1112basic_stringIcSt11char_traitsIcESaIcEE7_M_dataEPc(%"class.std::__cxx11::basic_string"* %this, i8* %__p) #7 align 2 !dbg !1609 {
entry:
  %this.addr = alloca %"class.std::__cxx11::basic_string"*, align 8
  %__p.addr = alloca i8*, align 8
  store %"class.std::__cxx11::basic_string"* %this, %"class.std::__cxx11::basic_string"** %this.addr, align 8, !tbaa !1213
  call void @llvm.dbg.declare(metadata %"class.std::__cxx11::basic_string"** %this.addr, metadata !1614, metadata !DIExpression()), !dbg !1616
  store i8* %__p, i8** %__p.addr, align 8, !tbaa !1213
  call void @llvm.dbg.declare(metadata i8** %__p.addr, metadata !1615, metadata !DIExpression()), !dbg !1617
  %this1 = load %"class.std::__cxx11::basic_string"*, %"class.std::__cxx11::basic_string"** %this.addr, align 8
  %0 = load i8*, i8** %__p.addr, align 8, !dbg !1618, !tbaa !1213
  %_M_dataplus = getelementptr inbounds %"class.std::__cxx11::basic_string", %"class.std::__cxx11::basic_string"* %this1, i32 0, i32 0, !dbg !1619
  %_M_p = getelementptr inbounds %"struct.std::__cxx11::basic_string<char, std::char_traits<char>, std::allocator<char> >::_Alloc_hider", %"struct.std::__cxx11::basic_string<char, std::char_traits<char>, std::allocator<char> >::_Alloc_hider"* %_M_dataplus, i32 0, i32 0, !dbg !1620
  store i8* %0, i8** %_M_p, align 8, !dbg !1621, !tbaa !1622
  ret void, !dbg !1624
}

declare dso_local i8* @_ZNSt7__cxx1112basic_stringIcSt11char_traitsIcESaIcEE9_M_createERmm(%"class.std::__cxx11::basic_string"*, i64* dereferenceable(8), i64) #5

; Function Attrs: nounwind uwtable
define available_externally dso_local void @_ZNSt7__cxx1112basic_stringIcSt11char_traitsIcESaIcEE11_M_capacityEm(%"class.std::__cxx11::basic_string"* %this, i64 %__capacity) #7 align 2 !dbg !1625 {
entry:
  %this.addr = alloca %"class.std::__cxx11::basic_string"*, align 8
  %__capacity.addr = alloca i64, align 8
  store %"class.std::__cxx11::basic_string"* %this, %"class.std::__cxx11::basic_string"** %this.addr, align 8, !tbaa !1213
  call void @llvm.dbg.declare(metadata %"class.std::__cxx11::basic_string"** %this.addr, metadata !1630, metadata !DIExpression()), !dbg !1632
  store i64 %__capacity, i64* %__capacity.addr, align 8, !tbaa !1205
  call void @llvm.dbg.declare(metadata i64* %__capacity.addr, metadata !1631, metadata !DIExpression()), !dbg !1633
  %this1 = load %"class.std::__cxx11::basic_string"*, %"class.std::__cxx11::basic_string"** %this.addr, align 8
  %0 = load i64, i64* %__capacity.addr, align 8, !dbg !1634, !tbaa !1205
  %1 = getelementptr inbounds %"class.std::__cxx11::basic_string", %"class.std::__cxx11::basic_string"* %this1, i32 0, i32 2, !dbg !1635
  %_M_allocated_capacity = bitcast %union.anon* %1 to i64*, !dbg !1635
  store i64 %0, i64* %_M_allocated_capacity, align 8, !dbg !1636, !tbaa !1637
  ret void, !dbg !1638
}

; Function Attrs: nounwind uwtable
define available_externally dso_local void @_ZNSt7__cxx1112basic_stringIcSt11char_traitsIcESaIcEE13_S_copy_charsEPcPKcS7_(i8* %__p, i8* %__k1, i8* %__k2) #7 align 2 personality i8* bitcast (i32 (...)* @__gxx_personality_v0 to i8*) !dbg !1639 {
entry:
  %__p.addr = alloca i8*, align 8
  %__k1.addr = alloca i8*, align 8
  %__k2.addr = alloca i8*, align 8
  store i8* %__p, i8** %__p.addr, align 8, !tbaa !1213
  call void @llvm.dbg.declare(metadata i8** %__p.addr, metadata !1644, metadata !DIExpression()), !dbg !1647
  store i8* %__k1, i8** %__k1.addr, align 8, !tbaa !1213
  call void @llvm.dbg.declare(metadata i8** %__k1.addr, metadata !1645, metadata !DIExpression()), !dbg !1648
  store i8* %__k2, i8** %__k2.addr, align 8, !tbaa !1213
  call void @llvm.dbg.declare(metadata i8** %__k2.addr, metadata !1646, metadata !DIExpression()), !dbg !1649
  %0 = load i8*, i8** %__p.addr, align 8, !dbg !1650, !tbaa !1213
  %1 = load i8*, i8** %__k1.addr, align 8, !dbg !1651, !tbaa !1213
  %2 = load i8*, i8** %__k2.addr, align 8, !dbg !1652, !tbaa !1213
  %3 = load i8*, i8** %__k1.addr, align 8, !dbg !1653, !tbaa !1213
  %sub.ptr.lhs.cast = ptrtoint i8* %2 to i64, !dbg !1654
  %sub.ptr.rhs.cast = ptrtoint i8* %3 to i64, !dbg !1654
  %sub.ptr.sub = sub i64 %sub.ptr.lhs.cast, %sub.ptr.rhs.cast, !dbg !1654
  invoke void @_ZNSt7__cxx1112basic_stringIcSt11char_traitsIcESaIcEE7_S_copyEPcPKcm(i8* %0, i8* %1, i64 %sub.ptr.sub)
          to label %invoke.cont unwind label %terminate.lpad, !dbg !1655

invoke.cont:                                      ; preds = %entry
  ret void, !dbg !1656

terminate.lpad:                                   ; preds = %entry
  %4 = landingpad { i8*, i32 }
          catch i8* null, !dbg !1655
  %5 = extractvalue { i8*, i32 } %4, 0, !dbg !1655
  call void @__clang_call_terminate(i8* %5) #14, !dbg !1655
  unreachable, !dbg !1655
}

; Function Attrs: nounwind uwtable
define available_externally dso_local i8* @_ZNKSt7__cxx1112basic_stringIcSt11char_traitsIcESaIcEE7_M_dataEv(%"class.std::__cxx11::basic_string"* %this) #7 align 2 !dbg !1657 {
entry:
  %this.addr = alloca %"class.std::__cxx11::basic_string"*, align 8
  store %"class.std::__cxx11::basic_string"* %this, %"class.std::__cxx11::basic_string"** %this.addr, align 8, !tbaa !1213
  call void @llvm.dbg.declare(metadata %"class.std::__cxx11::basic_string"** %this.addr, metadata !1664, metadata !DIExpression()), !dbg !1666
  %this1 = load %"class.std::__cxx11::basic_string"*, %"class.std::__cxx11::basic_string"** %this.addr, align 8
  %_M_dataplus = getelementptr inbounds %"class.std::__cxx11::basic_string", %"class.std::__cxx11::basic_string"* %this1, i32 0, i32 0, !dbg !1667
  %_M_p = getelementptr inbounds %"struct.std::__cxx11::basic_string<char, std::char_traits<char>, std::allocator<char> >::_Alloc_hider", %"struct.std::__cxx11::basic_string<char, std::char_traits<char>, std::allocator<char> >::_Alloc_hider"* %_M_dataplus, i32 0, i32 0, !dbg !1668
  %0 = load i8*, i8** %_M_p, align 8, !dbg !1668, !tbaa !1622
  ret i8* %0, !dbg !1669
}

declare dso_local i8* @__cxa_begin_catch(i8*)

; Function Attrs: uwtable
define available_externally dso_local void @_ZNSt7__cxx1112basic_stringIcSt11char_traitsIcESaIcEE10_M_disposeEv(%"class.std::__cxx11::basic_string"* %this) #3 align 2 !dbg !1670 {
entry:
  %this.addr = alloca %"class.std::__cxx11::basic_string"*, align 8
  store %"class.std::__cxx11::basic_string"* %this, %"class.std::__cxx11::basic_string"** %this.addr, align 8, !tbaa !1213
  call void @llvm.dbg.declare(metadata %"class.std::__cxx11::basic_string"** %this.addr, metadata !1675, metadata !DIExpression()), !dbg !1676
  %this1 = load %"class.std::__cxx11::basic_string"*, %"class.std::__cxx11::basic_string"** %this.addr, align 8
  %call = call zeroext i1 @_ZNKSt7__cxx1112basic_stringIcSt11char_traitsIcESaIcEE11_M_is_localEv(%"class.std::__cxx11::basic_string"* %this1), !dbg !1677
  br i1 %call, label %if.end, label %if.then, !dbg !1679

if.then:                                          ; preds = %entry
  %0 = getelementptr inbounds %"class.std::__cxx11::basic_string", %"class.std::__cxx11::basic_string"* %this1, i32 0, i32 2, !dbg !1680
  %_M_allocated_capacity = bitcast %union.anon* %0 to i64*, !dbg !1680
  %1 = load i64, i64* %_M_allocated_capacity, align 8, !dbg !1680, !tbaa !1637
  call void @_ZNSt7__cxx1112basic_stringIcSt11char_traitsIcESaIcEE10_M_destroyEm(%"class.std::__cxx11::basic_string"* %this1, i64 %1) #8, !dbg !1681
  br label %if.end, !dbg !1681

if.end:                                           ; preds = %if.then, %entry
  ret void, !dbg !1682
}

declare dso_local void @__cxa_rethrow()

declare dso_local void @__cxa_end_catch()

; Function Attrs: noinline noreturn nounwind
define linkonce_odr hidden void @__clang_call_terminate(i8* %0) #12 comdat {
  %2 = call i8* @__cxa_begin_catch(i8* %0) #8
  call void @_ZSt9terminatev() #14
  unreachable
}

declare dso_local void @_ZSt9terminatev()

; Function Attrs: uwtable
define available_externally dso_local void @_ZNSt7__cxx1112basic_stringIcSt11char_traitsIcESaIcEE13_M_set_lengthEm(%"class.std::__cxx11::basic_string"* %this, i64 %__n) #3 align 2 !dbg !1683 {
entry:
  %this.addr = alloca %"class.std::__cxx11::basic_string"*, align 8
  %__n.addr = alloca i64, align 8
  %ref.tmp = alloca i8, align 1
  store %"class.std::__cxx11::basic_string"* %this, %"class.std::__cxx11::basic_string"** %this.addr, align 8, !tbaa !1213
  call void @llvm.dbg.declare(metadata %"class.std::__cxx11::basic_string"** %this.addr, metadata !1686, metadata !DIExpression()), !dbg !1688
  store i64 %__n, i64* %__n.addr, align 8, !tbaa !1205
  call void @llvm.dbg.declare(metadata i64* %__n.addr, metadata !1687, metadata !DIExpression()), !dbg !1689
  %this1 = load %"class.std::__cxx11::basic_string"*, %"class.std::__cxx11::basic_string"** %this.addr, align 8
  %0 = load i64, i64* %__n.addr, align 8, !dbg !1690, !tbaa !1205
  call void @_ZNSt7__cxx1112basic_stringIcSt11char_traitsIcESaIcEE9_M_lengthEm(%"class.std::__cxx11::basic_string"* %this1, i64 %0), !dbg !1691
  %call = call i8* @_ZNKSt7__cxx1112basic_stringIcSt11char_traitsIcESaIcEE7_M_dataEv(%"class.std::__cxx11::basic_string"* %this1), !dbg !1692
  %1 = load i64, i64* %__n.addr, align 8, !dbg !1693, !tbaa !1205
  %arrayidx = getelementptr inbounds i8, i8* %call, i64 %1, !dbg !1692
  call void @llvm.lifetime.start.p0i8(i64 1, i8* %ref.tmp) #8, !dbg !1694
  store i8 0, i8* %ref.tmp, align 1, !dbg !1694, !tbaa !1637
  call void @_ZNSt11char_traitsIcE6assignERcRKc(i8* dereferenceable(1) %arrayidx, i8* dereferenceable(1) %ref.tmp) #8, !dbg !1695
  call void @llvm.lifetime.end.p0i8(i64 1, i8* %ref.tmp) #8, !dbg !1695
  ret void, !dbg !1696
}

; Function Attrs: inlinehint nounwind uwtable
define linkonce_odr dso_local i64 @_ZSt10__distanceIPKcENSt15iterator_traitsIT_E15difference_typeES3_S3_St26random_access_iterator_tag(i8* %__first, i8* %__last) #9 comdat !dbg !1697 {
entry:
  %0 = alloca %"struct.std::random_access_iterator_tag", align 1
  %__first.addr = alloca i8*, align 8
  %__last.addr = alloca i8*, align 8
  store i8* %__first, i8** %__first.addr, align 8, !tbaa !1213
  call void @llvm.dbg.declare(metadata i8** %__first.addr, metadata !1707, metadata !DIExpression()), !dbg !1712
  store i8* %__last, i8** %__last.addr, align 8, !tbaa !1213
  call void @llvm.dbg.declare(metadata i8** %__last.addr, metadata !1708, metadata !DIExpression()), !dbg !1713
  call void @llvm.dbg.declare(metadata %"struct.std::random_access_iterator_tag"* %0, metadata !1709, metadata !DIExpression()), !dbg !1714
  %1 = load i8*, i8** %__last.addr, align 8, !dbg !1715, !tbaa !1213
  %2 = load i8*, i8** %__first.addr, align 8, !dbg !1716, !tbaa !1213
  %sub.ptr.lhs.cast = ptrtoint i8* %1 to i64, !dbg !1717
  %sub.ptr.rhs.cast = ptrtoint i8* %2 to i64, !dbg !1717
  %sub.ptr.sub = sub i64 %sub.ptr.lhs.cast, %sub.ptr.rhs.cast, !dbg !1717
  ret i64 %sub.ptr.sub, !dbg !1718
}

; Function Attrs: inlinehint nounwind uwtable
define linkonce_odr dso_local void @_ZSt19__iterator_categoryIPKcENSt15iterator_traitsIT_E17iterator_categoryERKS3_(i8** dereferenceable(8) %0) #9 comdat !dbg !1719 {
entry:
  %.addr = alloca i8**, align 8
  store i8** %0, i8*** %.addr, align 8, !tbaa !1213
  call void @llvm.dbg.declare(metadata i8*** %.addr, metadata !1726, metadata !DIExpression()), !dbg !1729
  ret void, !dbg !1730
}

; Function Attrs: uwtable
define available_externally dso_local void @_ZNSt7__cxx1112basic_stringIcSt11char_traitsIcESaIcEE7_S_copyEPcPKcm(i8* %__d, i8* %__s, i64 %__n) #3 align 2 !dbg !1731 {
entry:
  %__d.addr = alloca i8*, align 8
  %__s.addr = alloca i8*, align 8
  %__n.addr = alloca i64, align 8
  store i8* %__d, i8** %__d.addr, align 8, !tbaa !1213
  call void @llvm.dbg.declare(metadata i8** %__d.addr, metadata !1736, metadata !DIExpression()), !dbg !1739
  store i8* %__s, i8** %__s.addr, align 8, !tbaa !1213
  call void @llvm.dbg.declare(metadata i8** %__s.addr, metadata !1737, metadata !DIExpression()), !dbg !1740
  store i64 %__n, i64* %__n.addr, align 8, !tbaa !1205
  call void @llvm.dbg.declare(metadata i64* %__n.addr, metadata !1738, metadata !DIExpression()), !dbg !1741
  %0 = load i64, i64* %__n.addr, align 8, !dbg !1742, !tbaa !1205
  %cmp = icmp eq i64 %0, 1, !dbg !1744
  br i1 %cmp, label %if.then, label %if.else, !dbg !1745

if.then:                                          ; preds = %entry
  %1 = load i8*, i8** %__d.addr, align 8, !dbg !1746, !tbaa !1213
  %2 = load i8*, i8** %__s.addr, align 8, !dbg !1747, !tbaa !1213
  call void @_ZNSt11char_traitsIcE6assignERcRKc(i8* dereferenceable(1) %1, i8* dereferenceable(1) %2) #8, !dbg !1748
  br label %if.end, !dbg !1748

if.else:                                          ; preds = %entry
  %3 = load i8*, i8** %__d.addr, align 8, !dbg !1749, !tbaa !1213
  %4 = load i8*, i8** %__s.addr, align 8, !dbg !1750, !tbaa !1213
  %5 = load i64, i64* %__n.addr, align 8, !dbg !1751, !tbaa !1205
  %call = call i8* @_ZNSt11char_traitsIcE4copyEPcPKcm(i8* %3, i8* %4, i64 %5), !dbg !1752
  br label %if.end

if.end:                                           ; preds = %if.else, %if.then
  ret void, !dbg !1753
}

; Function Attrs: nounwind uwtable
define linkonce_odr dso_local void @_ZNSt11char_traitsIcE6assignERcRKc(i8* dereferenceable(1) %__c1, i8* dereferenceable(1) %__c2) #7 comdat align 2 !dbg !1754 {
entry:
  %__c1.addr = alloca i8*, align 8
  %__c2.addr = alloca i8*, align 8
  store i8* %__c1, i8** %__c1.addr, align 8, !tbaa !1213
  call void @llvm.dbg.declare(metadata i8** %__c1.addr, metadata !1756, metadata !DIExpression()), !dbg !1758
  store i8* %__c2, i8** %__c2.addr, align 8, !tbaa !1213
  call void @llvm.dbg.declare(metadata i8** %__c2.addr, metadata !1757, metadata !DIExpression()), !dbg !1759
  %0 = load i8*, i8** %__c2.addr, align 8, !dbg !1760, !tbaa !1213
  %1 = load i8, i8* %0, align 1, !dbg !1760, !tbaa !1637
  %2 = load i8*, i8** %__c1.addr, align 8, !dbg !1761, !tbaa !1213
  store i8 %1, i8* %2, align 1, !dbg !1762, !tbaa !1637
  ret void, !dbg !1763
}

; Function Attrs: nounwind uwtable
define linkonce_odr dso_local i8* @_ZNSt11char_traitsIcE4copyEPcPKcm(i8* %__s1, i8* %__s2, i64 %__n) #7 comdat align 2 !dbg !1764 {
entry:
  %retval = alloca i8*, align 8
  %__s1.addr = alloca i8*, align 8
  %__s2.addr = alloca i8*, align 8
  %__n.addr = alloca i64, align 8
  store i8* %__s1, i8** %__s1.addr, align 8, !tbaa !1213
  call void @llvm.dbg.declare(metadata i8** %__s1.addr, metadata !1766, metadata !DIExpression()), !dbg !1769
  store i8* %__s2, i8** %__s2.addr, align 8, !tbaa !1213
  call void @llvm.dbg.declare(metadata i8** %__s2.addr, metadata !1767, metadata !DIExpression()), !dbg !1770
  store i64 %__n, i64* %__n.addr, align 8, !tbaa !1205
  call void @llvm.dbg.declare(metadata i64* %__n.addr, metadata !1768, metadata !DIExpression()), !dbg !1771
  %0 = load i64, i64* %__n.addr, align 8, !dbg !1772, !tbaa !1205
  %cmp = icmp eq i64 %0, 0, !dbg !1774
  br i1 %cmp, label %if.then, label %if.end, !dbg !1775

if.then:                                          ; preds = %entry
  %1 = load i8*, i8** %__s1.addr, align 8, !dbg !1776, !tbaa !1213
  store i8* %1, i8** %retval, align 8, !dbg !1777
  br label %return, !dbg !1777

if.end:                                           ; preds = %entry
  %2 = load i8*, i8** %__s1.addr, align 8, !dbg !1778, !tbaa !1213
  %3 = load i8*, i8** %__s2.addr, align 8, !dbg !1779, !tbaa !1213
  %4 = load i64, i64* %__n.addr, align 8, !dbg !1780, !tbaa !1205
  call void @llvm.memcpy.p0i8.p0i8.i64(i8* align 1 %2, i8* align 1 %3, i64 %4, i1 false), !dbg !1781
  store i8* %2, i8** %retval, align 8, !dbg !1782
  br label %return, !dbg !1782

return:                                           ; preds = %if.end, %if.then
  %5 = load i8*, i8** %retval, align 8, !dbg !1783
  ret i8* %5, !dbg !1783
}

; Function Attrs: argmemonly nounwind willreturn
declare void @llvm.memcpy.p0i8.p0i8.i64(i8* noalias nocapture writeonly, i8* noalias nocapture readonly, i64, i1 immarg) #1

; Function Attrs: uwtable
define available_externally dso_local zeroext i1 @_ZNKSt7__cxx1112basic_stringIcSt11char_traitsIcESaIcEE11_M_is_localEv(%"class.std::__cxx11::basic_string"* %this) #3 align 2 !dbg !1784 {
entry:
  %this.addr = alloca %"class.std::__cxx11::basic_string"*, align 8
  store %"class.std::__cxx11::basic_string"* %this, %"class.std::__cxx11::basic_string"** %this.addr, align 8, !tbaa !1213
  call void @llvm.dbg.declare(metadata %"class.std::__cxx11::basic_string"** %this.addr, metadata !1789, metadata !DIExpression()), !dbg !1790
  %this1 = load %"class.std::__cxx11::basic_string"*, %"class.std::__cxx11::basic_string"** %this.addr, align 8
  %call = call i8* @_ZNKSt7__cxx1112basic_stringIcSt11char_traitsIcESaIcEE7_M_dataEv(%"class.std::__cxx11::basic_string"* %this1), !dbg !1791
  %call2 = call i8* @_ZNKSt7__cxx1112basic_stringIcSt11char_traitsIcESaIcEE13_M_local_dataEv(%"class.std::__cxx11::basic_string"* %this1), !dbg !1792
  %cmp = icmp eq i8* %call, %call2, !dbg !1793
  ret i1 %cmp, !dbg !1794
}

; Function Attrs: nounwind uwtable
define available_externally dso_local void @_ZNSt7__cxx1112basic_stringIcSt11char_traitsIcESaIcEE10_M_destroyEm(%"class.std::__cxx11::basic_string"* %this, i64 %__size) #7 align 2 personality i8* bitcast (i32 (...)* @__gxx_personality_v0 to i8*) !dbg !1795 {
entry:
  %this.addr = alloca %"class.std::__cxx11::basic_string"*, align 8
  %__size.addr = alloca i64, align 8
  %exn.slot = alloca i8*
  %ehselector.slot = alloca i32
  store %"class.std::__cxx11::basic_string"* %this, %"class.std::__cxx11::basic_string"** %this.addr, align 8, !tbaa !1213
  call void @llvm.dbg.declare(metadata %"class.std::__cxx11::basic_string"** %this.addr, metadata !1798, metadata !DIExpression()), !dbg !1800
  store i64 %__size, i64* %__size.addr, align 8, !tbaa !1205
  call void @llvm.dbg.declare(metadata i64* %__size.addr, metadata !1799, metadata !DIExpression()), !dbg !1801
  %this1 = load %"class.std::__cxx11::basic_string"*, %"class.std::__cxx11::basic_string"** %this.addr, align 8
  %call = invoke dereferenceable(1) %"class.std::allocator"* @_ZNSt7__cxx1112basic_stringIcSt11char_traitsIcESaIcEE16_M_get_allocatorEv(%"class.std::__cxx11::basic_string"* %this1)
          to label %invoke.cont unwind label %lpad, !dbg !1802

invoke.cont:                                      ; preds = %entry
  %call3 = invoke i8* @_ZNKSt7__cxx1112basic_stringIcSt11char_traitsIcESaIcEE7_M_dataEv(%"class.std::__cxx11::basic_string"* %this1)
          to label %invoke.cont2 unwind label %lpad, !dbg !1803

invoke.cont2:                                     ; preds = %invoke.cont
  %0 = load i64, i64* %__size.addr, align 8, !dbg !1804, !tbaa !1205
  %add = add i64 %0, 1, !dbg !1805
  invoke void @_ZNSt16allocator_traitsISaIcEE10deallocateERS0_Pcm(%"class.std::allocator"* dereferenceable(1) %call, i8* %call3, i64 %add)
          to label %invoke.cont4 unwind label %lpad, !dbg !1806

invoke.cont4:                                     ; preds = %invoke.cont2
  ret void, !dbg !1807

lpad:                                             ; preds = %invoke.cont2, %invoke.cont, %entry
  %1 = landingpad { i8*, i32 }
          filter [0 x i8*] zeroinitializer, !dbg !1807
  %2 = extractvalue { i8*, i32 } %1, 0, !dbg !1807
  store i8* %2, i8** %exn.slot, align 8, !dbg !1807
  %3 = extractvalue { i8*, i32 } %1, 1, !dbg !1807
  store i32 %3, i32* %ehselector.slot, align 4, !dbg !1807
  br label %filter.dispatch, !dbg !1807

filter.dispatch:                                  ; preds = %lpad
  %exn = load i8*, i8** %exn.slot, align 8, !dbg !1807
  call void @__cxa_call_unexpected(i8* %exn) #15, !dbg !1807
  unreachable, !dbg !1807
}

; Function Attrs: nounwind uwtable
define available_externally dso_local i8* @_ZNKSt7__cxx1112basic_stringIcSt11char_traitsIcESaIcEE13_M_local_dataEv(%"class.std::__cxx11::basic_string"* %this) #7 align 2 !dbg !1808 {
entry:
  %this.addr = alloca %"class.std::__cxx11::basic_string"*, align 8
  store %"class.std::__cxx11::basic_string"* %this, %"class.std::__cxx11::basic_string"** %this.addr, align 8, !tbaa !1213
  call void @llvm.dbg.declare(metadata %"class.std::__cxx11::basic_string"** %this.addr, metadata !1816, metadata !DIExpression()), !dbg !1817
  %this1 = load %"class.std::__cxx11::basic_string"*, %"class.std::__cxx11::basic_string"** %this.addr, align 8
  %0 = getelementptr inbounds %"class.std::__cxx11::basic_string", %"class.std::__cxx11::basic_string"* %this1, i32 0, i32 2, !dbg !1818
  %_M_local_buf = bitcast %union.anon* %0 to [16 x i8]*, !dbg !1818
  %arraydecay = getelementptr inbounds [16 x i8], [16 x i8]* %_M_local_buf, i64 0, i64 0, !dbg !1819
  %call = call i8* @_ZNSt14pointer_traitsIPKcE10pointer_toERS0_(i8* dereferenceable(1) %arraydecay) #8, !dbg !1820
  ret i8* %call, !dbg !1821
}

; Function Attrs: nounwind uwtable
define linkonce_odr dso_local i8* @_ZNSt14pointer_traitsIPKcE10pointer_toERS0_(i8* dereferenceable(1) %__r) #7 comdat align 2 !dbg !1822 {
entry:
  %__r.addr = alloca i8*, align 8
  store i8* %__r, i8** %__r.addr, align 8, !tbaa !1213
  call void @llvm.dbg.declare(metadata i8** %__r.addr, metadata !1838, metadata !DIExpression()), !dbg !1839
  %0 = load i8*, i8** %__r.addr, align 8, !dbg !1840, !tbaa !1213
  %call = call i8* @_ZSt9addressofIKcEPT_RS1_(i8* dereferenceable(1) %0) #8, !dbg !1841
  ret i8* %call, !dbg !1842
}

; Function Attrs: inlinehint nounwind uwtable
define linkonce_odr dso_local i8* @_ZSt9addressofIKcEPT_RS1_(i8* dereferenceable(1) %__r) #9 comdat !dbg !1843 {
entry:
  %__r.addr = alloca i8*, align 8
  store i8* %__r, i8** %__r.addr, align 8, !tbaa !1213
  call void @llvm.dbg.declare(metadata i8** %__r.addr, metadata !1847, metadata !DIExpression()), !dbg !1850
  %0 = load i8*, i8** %__r.addr, align 8, !dbg !1851, !tbaa !1213
  %call = call i8* @_ZSt11__addressofIKcEPT_RS1_(i8* dereferenceable(1) %0) #8, !dbg !1852
  ret i8* %call, !dbg !1853
}

; Function Attrs: inlinehint nounwind uwtable
define linkonce_odr dso_local i8* @_ZSt11__addressofIKcEPT_RS1_(i8* dereferenceable(1) %__r) #9 comdat !dbg !1854 {
entry:
  %__r.addr = alloca i8*, align 8
  store i8* %__r, i8** %__r.addr, align 8, !tbaa !1213
  call void @llvm.dbg.declare(metadata i8** %__r.addr, metadata !1856, metadata !DIExpression()), !dbg !1857
  %0 = load i8*, i8** %__r.addr, align 8, !dbg !1858, !tbaa !1213
  ret i8* %0, !dbg !1859
}

; Function Attrs: uwtable
define linkonce_odr dso_local void @_ZNSt16allocator_traitsISaIcEE10deallocateERS0_Pcm(%"class.std::allocator"* dereferenceable(1) %__a, i8* %__p, i64 %__n) #3 comdat align 2 !dbg !1860 {
entry:
  %__a.addr = alloca %"class.std::allocator"*, align 8
  %__p.addr = alloca i8*, align 8
  %__n.addr = alloca i64, align 8
  store %"class.std::allocator"* %__a, %"class.std::allocator"** %__a.addr, align 8, !tbaa !1213
  call void @llvm.dbg.declare(metadata %"class.std::allocator"** %__a.addr, metadata !1862, metadata !DIExpression()), !dbg !1865
  store i8* %__p, i8** %__p.addr, align 8, !tbaa !1213
  call void @llvm.dbg.declare(metadata i8** %__p.addr, metadata !1863, metadata !DIExpression()), !dbg !1866
  store i64 %__n, i64* %__n.addr, align 8, !tbaa !1205
  call void @llvm.dbg.declare(metadata i64* %__n.addr, metadata !1864, metadata !DIExpression()), !dbg !1867
  %0 = load %"class.std::allocator"*, %"class.std::allocator"** %__a.addr, align 8, !dbg !1868, !tbaa !1213
  %1 = bitcast %"class.std::allocator"* %0 to %"class.__gnu_cxx::new_allocator"*, !dbg !1868
  %2 = load i8*, i8** %__p.addr, align 8, !dbg !1869, !tbaa !1213
  %3 = load i64, i64* %__n.addr, align 8, !dbg !1870, !tbaa !1205
  call void @_ZN9__gnu_cxx13new_allocatorIcE10deallocateEPcm(%"class.__gnu_cxx::new_allocator"* %1, i8* %2, i64 %3), !dbg !1871
  ret void, !dbg !1872
}

; Function Attrs: nounwind uwtable
define available_externally dso_local dereferenceable(1) %"class.std::allocator"* @_ZNSt7__cxx1112basic_stringIcSt11char_traitsIcESaIcEE16_M_get_allocatorEv(%"class.std::__cxx11::basic_string"* %this) #7 align 2 !dbg !1873 {
entry:
  %this.addr = alloca %"class.std::__cxx11::basic_string"*, align 8
  store %"class.std::__cxx11::basic_string"* %this, %"class.std::__cxx11::basic_string"** %this.addr, align 8, !tbaa !1213
  call void @llvm.dbg.declare(metadata %"class.std::__cxx11::basic_string"** %this.addr, metadata !1879, metadata !DIExpression()), !dbg !1880
  %this1 = load %"class.std::__cxx11::basic_string"*, %"class.std::__cxx11::basic_string"** %this.addr, align 8
  %_M_dataplus = getelementptr inbounds %"class.std::__cxx11::basic_string", %"class.std::__cxx11::basic_string"* %this1, i32 0, i32 0, !dbg !1881
  %0 = bitcast %"struct.std::__cxx11::basic_string<char, std::char_traits<char>, std::allocator<char> >::_Alloc_hider"* %_M_dataplus to %"class.std::allocator"*, !dbg !1881
  ret %"class.std::allocator"* %0, !dbg !1882
}

declare dso_local void @__cxa_call_unexpected(i8*)

; Function Attrs: nounwind uwtable
define linkonce_odr dso_local void @_ZN9__gnu_cxx13new_allocatorIcE10deallocateEPcm(%"class.__gnu_cxx::new_allocator"* %this, i8* %__p, i64 %__t) #7 comdat align 2 !dbg !1883 {
entry:
  %this.addr = alloca %"class.__gnu_cxx::new_allocator"*, align 8
  %__p.addr = alloca i8*, align 8
  %__t.addr = alloca i64, align 8
  store %"class.__gnu_cxx::new_allocator"* %this, %"class.__gnu_cxx::new_allocator"** %this.addr, align 8, !tbaa !1213
  call void @llvm.dbg.declare(metadata %"class.__gnu_cxx::new_allocator"** %this.addr, metadata !1885, metadata !DIExpression()), !dbg !1888
  store i8* %__p, i8** %__p.addr, align 8, !tbaa !1213
  call void @llvm.dbg.declare(metadata i8** %__p.addr, metadata !1886, metadata !DIExpression()), !dbg !1889
  store i64 %__t, i64* %__t.addr, align 8, !tbaa !1205
  call void @llvm.dbg.declare(metadata i64* %__t.addr, metadata !1887, metadata !DIExpression()), !dbg !1890
  %this1 = load %"class.__gnu_cxx::new_allocator"*, %"class.__gnu_cxx::new_allocator"** %this.addr, align 8
  %0 = load i8*, i8** %__p.addr, align 8, !dbg !1891, !tbaa !1213
  call void @_ZdlPv(i8* %0) #8, !dbg !1892
  ret void, !dbg !1893
}

; Function Attrs: nobuiltin nounwind
declare !dbg !204 dso_local void @_ZdlPv(i8*) #13

; Function Attrs: nounwind uwtable
define available_externally dso_local void @_ZNSt7__cxx1112basic_stringIcSt11char_traitsIcESaIcEE9_M_lengthEm(%"class.std::__cxx11::basic_string"* %this, i64 %__length) #7 align 2 !dbg !1894 {
entry:
  %this.addr = alloca %"class.std::__cxx11::basic_string"*, align 8
  %__length.addr = alloca i64, align 8
  store %"class.std::__cxx11::basic_string"* %this, %"class.std::__cxx11::basic_string"** %this.addr, align 8, !tbaa !1213
  call void @llvm.dbg.declare(metadata %"class.std::__cxx11::basic_string"** %this.addr, metadata !1897, metadata !DIExpression()), !dbg !1899
  store i64 %__length, i64* %__length.addr, align 8, !tbaa !1205
  call void @llvm.dbg.declare(metadata i64* %__length.addr, metadata !1898, metadata !DIExpression()), !dbg !1900
  %this1 = load %"class.std::__cxx11::basic_string"*, %"class.std::__cxx11::basic_string"** %this.addr, align 8
  %0 = load i64, i64* %__length.addr, align 8, !dbg !1901, !tbaa !1205
  %_M_string_length = getelementptr inbounds %"class.std::__cxx11::basic_string", %"class.std::__cxx11::basic_string"* %this1, i32 0, i32 1, !dbg !1902
  store i64 %0, i64* %_M_string_length, align 8, !dbg !1903, !tbaa !1904
  ret void, !dbg !1905
}

; Function Attrs: nounwind
declare dso_local i64 @strlen(i8*) #4

; Function Attrs: nounwind uwtable
define linkonce_odr dso_local void @_ZN9__gnu_cxx13new_allocatorIcED2Ev(%"class.__gnu_cxx::new_allocator"* %this) unnamed_addr #7 comdat align 2 !dbg !1906 {
entry:
  %this.addr = alloca %"class.__gnu_cxx::new_allocator"*, align 8
  store %"class.__gnu_cxx::new_allocator"* %this, %"class.__gnu_cxx::new_allocator"** %this.addr, align 8, !tbaa !1213
  call void @llvm.dbg.declare(metadata %"class.__gnu_cxx::new_allocator"** %this.addr, metadata !1908, metadata !DIExpression()), !dbg !1909
  %this1 = load %"class.__gnu_cxx::new_allocator"*, %"class.__gnu_cxx::new_allocator"** %this.addr, align 8
  ret void, !dbg !1910
}

; Function Attrs: uwtable
define linkonce_odr dso_local void @_ZN14BulletinRWLock6UpdateENSt7__cxx1112basic_stringIcSt11char_traitsIcESaIcEEE(%class.BulletinRWLock* %this, %"class.std::__cxx11::basic_string"* %message) #3 comdat align 2 !dbg !1911 {
entry:
  %this.addr = alloca %class.BulletinRWLock*, align 8
  store %class.BulletinRWLock* %this, %class.BulletinRWLock** %this.addr, align 8, !tbaa !1213
  call void @llvm.dbg.declare(metadata %class.BulletinRWLock** %this.addr, metadata !1913, metadata !DIExpression()), !dbg !1915
  call void @llvm.dbg.declare(metadata %"class.std::__cxx11::basic_string"* %message, metadata !1914, metadata !DIExpression()), !dbg !1916
  %this1 = load %class.BulletinRWLock*, %class.BulletinRWLock** %this.addr, align 8
  %rwlock_ = getelementptr inbounds %class.BulletinRWLock, %class.BulletinRWLock* %this1, i32 0, i32 0, !dbg !1917
  %call = call i32 @pthread_rwlock_wrlock(%union.pthread_rwlock_t* %rwlock_) #8, !dbg !1918
  %message_ = getelementptr inbounds %class.BulletinRWLock, %class.BulletinRWLock* %this1, i32 0, i32 1, !dbg !1919
  %call2 = call dereferenceable(32) %"class.std::__cxx11::basic_string"* @_ZNSt7__cxx1112basic_stringIcSt11char_traitsIcESaIcEEaSERKS4_(%"class.std::__cxx11::basic_string"* %message_, %"class.std::__cxx11::basic_string"* dereferenceable(32) %message), !dbg !1920
  %rwlock_3 = getelementptr inbounds %class.BulletinRWLock, %class.BulletinRWLock* %this1, i32 0, i32 0, !dbg !1921
  %call4 = call i32 @pthread_rwlock_unlock(%union.pthread_rwlock_t* %rwlock_3) #8, !dbg !1922
  ret void, !dbg !1923
}

; Function Attrs: nounwind uwtable
define available_externally dso_local void @_ZNSt7__cxx1112basic_stringIcSt11char_traitsIcESaIcEED2Ev(%"class.std::__cxx11::basic_string"* %this) unnamed_addr #7 align 2 personality i8* bitcast (i32 (...)* @__gxx_personality_v0 to i8*) !dbg !1924 {
entry:
  %this.addr = alloca %"class.std::__cxx11::basic_string"*, align 8
  %exn.slot = alloca i8*
  %ehselector.slot = alloca i32
  store %"class.std::__cxx11::basic_string"* %this, %"class.std::__cxx11::basic_string"** %this.addr, align 8, !tbaa !1213
  call void @llvm.dbg.declare(metadata %"class.std::__cxx11::basic_string"** %this.addr, metadata !1927, metadata !DIExpression()), !dbg !1928
  %this1 = load %"class.std::__cxx11::basic_string"*, %"class.std::__cxx11::basic_string"** %this.addr, align 8
  invoke void @_ZNSt7__cxx1112basic_stringIcSt11char_traitsIcESaIcEE10_M_disposeEv(%"class.std::__cxx11::basic_string"* %this1)
          to label %invoke.cont unwind label %lpad, !dbg !1929

invoke.cont:                                      ; preds = %entry
  %_M_dataplus = getelementptr inbounds %"class.std::__cxx11::basic_string", %"class.std::__cxx11::basic_string"* %this1, i32 0, i32 0, !dbg !1931
  call void bitcast (void (%"class.std::allocator"*)* @_ZNSaIcED2Ev to void (%"struct.std::__cxx11::basic_string<char, std::char_traits<char>, std::allocator<char> >::_Alloc_hider"*)*)(%"struct.std::__cxx11::basic_string<char, std::char_traits<char>, std::allocator<char> >::_Alloc_hider"* %_M_dataplus) #8, !dbg !1931
  ret void, !dbg !1932

lpad:                                             ; preds = %entry
  %0 = landingpad { i8*, i32 }
          catch i8* null, !dbg !1931
  %1 = extractvalue { i8*, i32 } %0, 0, !dbg !1931
  store i8* %1, i8** %exn.slot, align 8, !dbg !1931
  %2 = extractvalue { i8*, i32 } %0, 1, !dbg !1931
  store i32 %2, i32* %ehselector.slot, align 4, !dbg !1931
  %_M_dataplus2 = getelementptr inbounds %"class.std::__cxx11::basic_string", %"class.std::__cxx11::basic_string"* %this1, i32 0, i32 0, !dbg !1931
  call void bitcast (void (%"class.std::allocator"*)* @_ZNSaIcED2Ev to void (%"struct.std::__cxx11::basic_string<char, std::char_traits<char>, std::allocator<char> >::_Alloc_hider"*)*)(%"struct.std::__cxx11::basic_string<char, std::char_traits<char>, std::allocator<char> >::_Alloc_hider"* %_M_dataplus2) #8, !dbg !1931
  br label %terminate.handler, !dbg !1931

terminate.handler:                                ; preds = %lpad
  %exn = load i8*, i8** %exn.slot, align 8, !dbg !1931
  call void @__clang_call_terminate(i8* %exn) #14, !dbg !1931
  unreachable, !dbg !1931
}

declare !dbg !228 dso_local i32 @sleep(i32) #5

; Function Attrs: nounwind
declare !dbg !232 dso_local i32 @pthread_rwlock_wrlock(%union.pthread_rwlock_t*) #4

; Function Attrs: uwtable
define available_externally dso_local dereferenceable(32) %"class.std::__cxx11::basic_string"* @_ZNSt7__cxx1112basic_stringIcSt11char_traitsIcESaIcEEaSERKS4_(%"class.std::__cxx11::basic_string"* %this, %"class.std::__cxx11::basic_string"* dereferenceable(32) %__str) #3 align 2 !dbg !1933 {
entry:
  %this.addr = alloca %"class.std::__cxx11::basic_string"*, align 8
  %__str.addr = alloca %"class.std::__cxx11::basic_string"*, align 8
  store %"class.std::__cxx11::basic_string"* %this, %"class.std::__cxx11::basic_string"** %this.addr, align 8, !tbaa !1213
  call void @llvm.dbg.declare(metadata %"class.std::__cxx11::basic_string"** %this.addr, metadata !1940, metadata !DIExpression()), !dbg !1942
  store %"class.std::__cxx11::basic_string"* %__str, %"class.std::__cxx11::basic_string"** %__str.addr, align 8, !tbaa !1213
  call void @llvm.dbg.declare(metadata %"class.std::__cxx11::basic_string"** %__str.addr, metadata !1941, metadata !DIExpression()), !dbg !1943
  %this1 = load %"class.std::__cxx11::basic_string"*, %"class.std::__cxx11::basic_string"** %this.addr, align 8
  %0 = load %"class.std::__cxx11::basic_string"*, %"class.std::__cxx11::basic_string"** %__str.addr, align 8, !dbg !1944, !tbaa !1213
  %call = call dereferenceable(32) %"class.std::__cxx11::basic_string"* @_ZNSt7__cxx1112basic_stringIcSt11char_traitsIcESaIcEE6assignERKS4_(%"class.std::__cxx11::basic_string"* %this1, %"class.std::__cxx11::basic_string"* dereferenceable(32) %0), !dbg !1945
  ret %"class.std::__cxx11::basic_string"* %call, !dbg !1946
}

; Function Attrs: nounwind
declare !dbg !235 dso_local i32 @pthread_rwlock_unlock(%union.pthread_rwlock_t*) #4

; Function Attrs: uwtable
define available_externally dso_local dereferenceable(32) %"class.std::__cxx11::basic_string"* @_ZNSt7__cxx1112basic_stringIcSt11char_traitsIcESaIcEE6assignERKS4_(%"class.std::__cxx11::basic_string"* %this, %"class.std::__cxx11::basic_string"* dereferenceable(32) %__str) #3 align 2 !dbg !1947 {
entry:
  %this.addr = alloca %"class.std::__cxx11::basic_string"*, align 8
  %__str.addr = alloca %"class.std::__cxx11::basic_string"*, align 8
  store %"class.std::__cxx11::basic_string"* %this, %"class.std::__cxx11::basic_string"** %this.addr, align 8, !tbaa !1213
  call void @llvm.dbg.declare(metadata %"class.std::__cxx11::basic_string"** %this.addr, metadata !1950, metadata !DIExpression()), !dbg !1952
  store %"class.std::__cxx11::basic_string"* %__str, %"class.std::__cxx11::basic_string"** %__str.addr, align 8, !tbaa !1213
  call void @llvm.dbg.declare(metadata %"class.std::__cxx11::basic_string"** %__str.addr, metadata !1951, metadata !DIExpression()), !dbg !1953
  %this1 = load %"class.std::__cxx11::basic_string"*, %"class.std::__cxx11::basic_string"** %this.addr, align 8
  %0 = load %"class.std::__cxx11::basic_string"*, %"class.std::__cxx11::basic_string"** %__str.addr, align 8, !dbg !1954, !tbaa !1213
  call void @_ZNSt7__cxx1112basic_stringIcSt11char_traitsIcESaIcEE9_M_assignERKS4_(%"class.std::__cxx11::basic_string"* %this1, %"class.std::__cxx11::basic_string"* dereferenceable(32) %0), !dbg !1955
  ret %"class.std::__cxx11::basic_string"* %this1, !dbg !1956
}

declare dso_local void @_ZNSt7__cxx1112basic_stringIcSt11char_traitsIcESaIcEE9_M_assignERKS4_(%"class.std::__cxx11::basic_string"*, %"class.std::__cxx11::basic_string"* dereferenceable(32)) #5

; Function Attrs: uwtable
define linkonce_odr dso_local void @_ZN14BulletinRWLock4ReadB5cxx11Ev(%"class.std::__cxx11::basic_string"* noalias sret %agg.result, %class.BulletinRWLock* %this) #3 comdat align 2 !dbg !1957 {
entry:
  %result.ptr = alloca i8*, align 8
  %this.addr = alloca %class.BulletinRWLock*, align 8
  %nrvo = alloca i1, align 1
  %0 = bitcast %"class.std::__cxx11::basic_string"* %agg.result to i8*
  store i8* %0, i8** %result.ptr, align 8
  store %class.BulletinRWLock* %this, %class.BulletinRWLock** %this.addr, align 8, !tbaa !1213
  call void @llvm.dbg.declare(metadata %class.BulletinRWLock** %this.addr, metadata !1959, metadata !DIExpression()), !dbg !1961
  %this1 = load %class.BulletinRWLock*, %class.BulletinRWLock** %this.addr, align 8
  store i1 false, i1* %nrvo, align 1, !dbg !1962
  call void @llvm.dbg.declare(metadata i8** %result.ptr, metadata !1960, metadata !DIExpression(DW_OP_deref)), !dbg !1963
  %message_ = getelementptr inbounds %class.BulletinRWLock, %class.BulletinRWLock* %this1, i32 0, i32 1, !dbg !1964
  call void @_ZNSt7__cxx1112basic_stringIcSt11char_traitsIcESaIcEEC2ERKS4_(%"class.std::__cxx11::basic_string"* %agg.result, %"class.std::__cxx11::basic_string"* dereferenceable(32) %message_), !dbg !1964
  %rwlock_ = getelementptr inbounds %class.BulletinRWLock, %class.BulletinRWLock* %this1, i32 0, i32 0, !dbg !1965
  %call = call i32 @pthread_rwlock_unlock(%union.pthread_rwlock_t* %rwlock_) #8, !dbg !1966
  store i1 true, i1* %nrvo, align 1, !dbg !1967
  %nrvo.val = load i1, i1* %nrvo, align 1, !dbg !1968
  br i1 %nrvo.val, label %nrvo.skipdtor, label %nrvo.unused, !dbg !1968

nrvo.unused:                                      ; preds = %entry
  call void @_ZNSt7__cxx1112basic_stringIcSt11char_traitsIcESaIcEED2Ev(%"class.std::__cxx11::basic_string"* %agg.result) #8, !dbg !1968
  br label %nrvo.skipdtor, !dbg !1968

nrvo.skipdtor:                                    ; preds = %nrvo.unused, %entry
  ret void, !dbg !1968
}

; Function Attrs: inlinehint uwtable
define available_externally dso_local dereferenceable(272) %"class.std::basic_ostream"* @_ZStlsIcSt11char_traitsIcESaIcEERSt13basic_ostreamIT_T0_ES7_RKNSt7__cxx1112basic_stringIS4_S5_T1_EE(%"class.std::basic_ostream"* dereferenceable(272) %__os, %"class.std::__cxx11::basic_string"* dereferenceable(32) %__str) #11 !dbg !1969 {
entry:
  %__os.addr = alloca %"class.std::basic_ostream"*, align 8
  %__str.addr = alloca %"class.std::__cxx11::basic_string"*, align 8
  store %"class.std::basic_ostream"* %__os, %"class.std::basic_ostream"** %__os.addr, align 8, !tbaa !1213
  call void @llvm.dbg.declare(metadata %"class.std::basic_ostream"** %__os.addr, metadata !1976, metadata !DIExpression()), !dbg !1980
  store %"class.std::__cxx11::basic_string"* %__str, %"class.std::__cxx11::basic_string"** %__str.addr, align 8, !tbaa !1213
  call void @llvm.dbg.declare(metadata %"class.std::__cxx11::basic_string"** %__str.addr, metadata !1977, metadata !DIExpression()), !dbg !1981
  %0 = load %"class.std::basic_ostream"*, %"class.std::basic_ostream"** %__os.addr, align 8, !dbg !1982, !tbaa !1213
  %1 = load %"class.std::__cxx11::basic_string"*, %"class.std::__cxx11::basic_string"** %__str.addr, align 8, !dbg !1983, !tbaa !1213
  %call = call i8* @_ZNKSt7__cxx1112basic_stringIcSt11char_traitsIcESaIcEE4dataEv(%"class.std::__cxx11::basic_string"* %1) #8, !dbg !1984
  %2 = load %"class.std::__cxx11::basic_string"*, %"class.std::__cxx11::basic_string"** %__str.addr, align 8, !dbg !1985, !tbaa !1213
  %call1 = call i64 @_ZNKSt7__cxx1112basic_stringIcSt11char_traitsIcESaIcEE4sizeEv(%"class.std::__cxx11::basic_string"* %2) #8, !dbg !1986
  %call2 = call dereferenceable(272) %"class.std::basic_ostream"* @_ZSt16__ostream_insertIcSt11char_traitsIcEERSt13basic_ostreamIT_T0_ES6_PKS3_l(%"class.std::basic_ostream"* dereferenceable(272) %0, i8* %call, i64 %call1), !dbg !1987
  ret %"class.std::basic_ostream"* %call2, !dbg !1988
}

; Function Attrs: uwtable
define available_externally dso_local dereferenceable(272) %"class.std::basic_ostream"* @_ZNSolsEPFRSoS_E(%"class.std::basic_ostream"* %this, %"class.std::basic_ostream"* (%"class.std::basic_ostream"*)* %__pf) #3 align 2 !dbg !1989 {
entry:
  %this.addr = alloca %"class.std::basic_ostream"*, align 8
  %__pf.addr = alloca %"class.std::basic_ostream"* (%"class.std::basic_ostream"*)*, align 8
  store %"class.std::basic_ostream"* %this, %"class.std::basic_ostream"** %this.addr, align 8, !tbaa !1213
  call void @llvm.dbg.declare(metadata %"class.std::basic_ostream"** %this.addr, metadata !2001, metadata !DIExpression()), !dbg !2004
  store %"class.std::basic_ostream"* (%"class.std::basic_ostream"*)* %__pf, %"class.std::basic_ostream"* (%"class.std::basic_ostream"*)** %__pf.addr, align 8, !tbaa !1213
  call void @llvm.dbg.declare(metadata %"class.std::basic_ostream"* (%"class.std::basic_ostream"*)** %__pf.addr, metadata !2003, metadata !DIExpression()), !dbg !2005
  %this1 = load %"class.std::basic_ostream"*, %"class.std::basic_ostream"** %this.addr, align 8
  %0 = load %"class.std::basic_ostream"* (%"class.std::basic_ostream"*)*, %"class.std::basic_ostream"* (%"class.std::basic_ostream"*)** %__pf.addr, align 8, !dbg !2006, !tbaa !1213
  %call = call dereferenceable(272) %"class.std::basic_ostream"* %0(%"class.std::basic_ostream"* dereferenceable(272) %this1), !dbg !2006
  ret %"class.std::basic_ostream"* %call, !dbg !2007
}

; Function Attrs: inlinehint uwtable
define available_externally dso_local dereferenceable(272) %"class.std::basic_ostream"* @_ZSt4endlIcSt11char_traitsIcEERSt13basic_ostreamIT_T0_ES6_(%"class.std::basic_ostream"* dereferenceable(272) %__os) #11 !dbg !2008 {
entry:
  %__os.addr = alloca %"class.std::basic_ostream"*, align 8
  store %"class.std::basic_ostream"* %__os, %"class.std::basic_ostream"** %__os.addr, align 8, !tbaa !1213
  call void @llvm.dbg.declare(metadata %"class.std::basic_ostream"** %__os.addr, metadata !2012, metadata !DIExpression()), !dbg !2014
  %0 = load %"class.std::basic_ostream"*, %"class.std::basic_ostream"** %__os.addr, align 8, !dbg !2015, !tbaa !1213
  %1 = load %"class.std::basic_ostream"*, %"class.std::basic_ostream"** %__os.addr, align 8, !dbg !2016, !tbaa !1213
  %2 = bitcast %"class.std::basic_ostream"* %1 to i8**, !dbg !2016
  %vtable = load i8*, i8** %2, align 8, !dbg !2016, !tbaa !2017
  %vbase.offset.ptr = getelementptr i8, i8* %vtable, i64 -24, !dbg !2016
  %3 = bitcast i8* %vbase.offset.ptr to i64*, !dbg !2016
  %vbase.offset = load i64, i64* %3, align 8, !dbg !2016
  %4 = bitcast %"class.std::basic_ostream"* %1 to i8*, !dbg !2016
  %add.ptr = getelementptr inbounds i8, i8* %4, i64 %vbase.offset, !dbg !2016
  %5 = bitcast i8* %add.ptr to %"class.std::basic_ios"*, !dbg !2016
  %call = call signext i8 @_ZNKSt9basic_iosIcSt11char_traitsIcEE5widenEc(%"class.std::basic_ios"* %5, i8 signext 10), !dbg !2019
  %call1 = call dereferenceable(272) %"class.std::basic_ostream"* @_ZNSo3putEc(%"class.std::basic_ostream"* %0, i8 signext %call), !dbg !2020
  %call2 = call dereferenceable(272) %"class.std::basic_ostream"* @_ZSt5flushIcSt11char_traitsIcEERSt13basic_ostreamIT_T0_ES6_(%"class.std::basic_ostream"* dereferenceable(272) %call1), !dbg !2021
  ret %"class.std::basic_ostream"* %call2, !dbg !2022
}

; Function Attrs: uwtable
define available_externally dso_local void @_ZNSt7__cxx1112basic_stringIcSt11char_traitsIcESaIcEEC2ERKS4_(%"class.std::__cxx11::basic_string"* %this, %"class.std::__cxx11::basic_string"* dereferenceable(32) %__str) unnamed_addr #3 align 2 personality i8* bitcast (i32 (...)* @__gxx_personality_v0 to i8*) !dbg !2023 {
entry:
  %this.addr = alloca %"class.std::__cxx11::basic_string"*, align 8
  %__str.addr = alloca %"class.std::__cxx11::basic_string"*, align 8
  %ref.tmp = alloca %"class.std::allocator", align 1
  %exn.slot = alloca i8*
  %ehselector.slot = alloca i32
  store %"class.std::__cxx11::basic_string"* %this, %"class.std::__cxx11::basic_string"** %this.addr, align 8, !tbaa !1213
  call void @llvm.dbg.declare(metadata %"class.std::__cxx11::basic_string"** %this.addr, metadata !2028, metadata !DIExpression()), !dbg !2030
  store %"class.std::__cxx11::basic_string"* %__str, %"class.std::__cxx11::basic_string"** %__str.addr, align 8, !tbaa !1213
  call void @llvm.dbg.declare(metadata %"class.std::__cxx11::basic_string"** %__str.addr, metadata !2029, metadata !DIExpression()), !dbg !2031
  %this1 = load %"class.std::__cxx11::basic_string"*, %"class.std::__cxx11::basic_string"** %this.addr, align 8
  %_M_dataplus = getelementptr inbounds %"class.std::__cxx11::basic_string", %"class.std::__cxx11::basic_string"* %this1, i32 0, i32 0, !dbg !2032
  %call = call i8* @_ZNSt7__cxx1112basic_stringIcSt11char_traitsIcESaIcEE13_M_local_dataEv(%"class.std::__cxx11::basic_string"* %this1), !dbg !2033
  %0 = bitcast %"class.std::allocator"* %ref.tmp to i8*, !dbg !2034
  call void @llvm.lifetime.start.p0i8(i64 1, i8* %0) #8, !dbg !2034
  %1 = load %"class.std::__cxx11::basic_string"*, %"class.std::__cxx11::basic_string"** %__str.addr, align 8, !dbg !2035, !tbaa !1213
  %call2 = call dereferenceable(1) %"class.std::allocator"* @_ZNKSt7__cxx1112basic_stringIcSt11char_traitsIcESaIcEE16_M_get_allocatorEv(%"class.std::__cxx11::basic_string"* %1), !dbg !2036
  call void @_ZN9__gnu_cxx14__alloc_traitsISaIcEcE17_S_select_on_copyERKS1_(%"class.std::allocator"* sret %ref.tmp, %"class.std::allocator"* dereferenceable(1) %call2), !dbg !2034
  invoke void @_ZNSt7__cxx1112basic_stringIcSt11char_traitsIcESaIcEE12_Alloc_hiderC2EPcOS3_(%"struct.std::__cxx11::basic_string<char, std::char_traits<char>, std::allocator<char> >::_Alloc_hider"* %_M_dataplus, i8* %call, %"class.std::allocator"* dereferenceable(1) %ref.tmp)
          to label %invoke.cont unwind label %lpad, !dbg !2032

invoke.cont:                                      ; preds = %entry
  call void @_ZNSaIcED2Ev(%"class.std::allocator"* %ref.tmp) #8, !dbg !2032
  %2 = bitcast %"class.std::allocator"* %ref.tmp to i8*, !dbg !2032
  call void @llvm.lifetime.end.p0i8(i64 1, i8* %2) #8, !dbg !2032
  %3 = load %"class.std::__cxx11::basic_string"*, %"class.std::__cxx11::basic_string"** %__str.addr, align 8, !dbg !2037, !tbaa !1213
  %call5 = invoke i8* @_ZNKSt7__cxx1112basic_stringIcSt11char_traitsIcESaIcEE7_M_dataEv(%"class.std::__cxx11::basic_string"* %3)
          to label %invoke.cont4 unwind label %lpad3, !dbg !2039

invoke.cont4:                                     ; preds = %invoke.cont
  %4 = load %"class.std::__cxx11::basic_string"*, %"class.std::__cxx11::basic_string"** %__str.addr, align 8, !dbg !2040, !tbaa !1213
  %call7 = invoke i8* @_ZNKSt7__cxx1112basic_stringIcSt11char_traitsIcESaIcEE7_M_dataEv(%"class.std::__cxx11::basic_string"* %4)
          to label %invoke.cont6 unwind label %lpad3, !dbg !2041

invoke.cont6:                                     ; preds = %invoke.cont4
  %5 = load %"class.std::__cxx11::basic_string"*, %"class.std::__cxx11::basic_string"** %__str.addr, align 8, !dbg !2042, !tbaa !1213
  %call8 = call i64 @_ZNKSt7__cxx1112basic_stringIcSt11char_traitsIcESaIcEE6lengthEv(%"class.std::__cxx11::basic_string"* %5) #8, !dbg !2043
  %add.ptr = getelementptr inbounds i8, i8* %call7, i64 %call8, !dbg !2044
  invoke void @_ZNSt7__cxx1112basic_stringIcSt11char_traitsIcESaIcEE12_M_constructIPcEEvT_S7_(%"class.std::__cxx11::basic_string"* %this1, i8* %call5, i8* %add.ptr)
          to label %invoke.cont9 unwind label %lpad3, !dbg !2045

invoke.cont9:                                     ; preds = %invoke.cont6
  ret void, !dbg !2046

lpad:                                             ; preds = %entry
  %6 = landingpad { i8*, i32 }
          cleanup, !dbg !2046
  %7 = extractvalue { i8*, i32 } %6, 0, !dbg !2046
  store i8* %7, i8** %exn.slot, align 8, !dbg !2046
  %8 = extractvalue { i8*, i32 } %6, 1, !dbg !2046
  store i32 %8, i32* %ehselector.slot, align 4, !dbg !2046
  call void @_ZNSaIcED2Ev(%"class.std::allocator"* %ref.tmp) #8, !dbg !2032
  %9 = bitcast %"class.std::allocator"* %ref.tmp to i8*, !dbg !2032
  call void @llvm.lifetime.end.p0i8(i64 1, i8* %9) #8, !dbg !2032
  br label %eh.resume, !dbg !2032

lpad3:                                            ; preds = %invoke.cont6, %invoke.cont4, %invoke.cont
  %10 = landingpad { i8*, i32 }
          cleanup, !dbg !2047
  %11 = extractvalue { i8*, i32 } %10, 0, !dbg !2047
  store i8* %11, i8** %exn.slot, align 8, !dbg !2047
  %12 = extractvalue { i8*, i32 } %10, 1, !dbg !2047
  store i32 %12, i32* %ehselector.slot, align 4, !dbg !2047
  call void bitcast (void (%"class.std::allocator"*)* @_ZNSaIcED2Ev to void (%"struct.std::__cxx11::basic_string<char, std::char_traits<char>, std::allocator<char> >::_Alloc_hider"*)*)(%"struct.std::__cxx11::basic_string<char, std::char_traits<char>, std::allocator<char> >::_Alloc_hider"* %_M_dataplus) #8, !dbg !2047
  br label %eh.resume, !dbg !2047

eh.resume:                                        ; preds = %lpad3, %lpad
  %exn = load i8*, i8** %exn.slot, align 8, !dbg !2032
  %sel = load i32, i32* %ehselector.slot, align 4, !dbg !2032
  %lpad.val = insertvalue { i8*, i32 } undef, i8* %exn, 0, !dbg !2032
  %lpad.val10 = insertvalue { i8*, i32 } %lpad.val, i32 %sel, 1, !dbg !2032
  resume { i8*, i32 } %lpad.val10, !dbg !2032
}

; Function Attrs: uwtable
define linkonce_odr dso_local void @_ZN9__gnu_cxx14__alloc_traitsISaIcEcE17_S_select_on_copyERKS1_(%"class.std::allocator"* noalias sret %agg.result, %"class.std::allocator"* dereferenceable(1) %__a) #3 comdat align 2 !dbg !2048 {
entry:
  %result.ptr = alloca i8*, align 8
  %__a.addr = alloca %"class.std::allocator"*, align 8
  %0 = bitcast %"class.std::allocator"* %agg.result to i8*
  store i8* %0, i8** %result.ptr, align 8
  store %"class.std::allocator"* %__a, %"class.std::allocator"** %__a.addr, align 8, !tbaa !1213
  call void @llvm.dbg.declare(metadata %"class.std::allocator"** %__a.addr, metadata !2050, metadata !DIExpression()), !dbg !2051
  %1 = load %"class.std::allocator"*, %"class.std::allocator"** %__a.addr, align 8, !dbg !2052, !tbaa !1213
  call void @_ZNSt16allocator_traitsISaIcEE37select_on_container_copy_constructionERKS0_(%"class.std::allocator"* sret %agg.result, %"class.std::allocator"* dereferenceable(1) %1), !dbg !2053
  ret void, !dbg !2054
}

; Function Attrs: nounwind uwtable
define available_externally dso_local dereferenceable(1) %"class.std::allocator"* @_ZNKSt7__cxx1112basic_stringIcSt11char_traitsIcESaIcEE16_M_get_allocatorEv(%"class.std::__cxx11::basic_string"* %this) #7 align 2 !dbg !2055 {
entry:
  %this.addr = alloca %"class.std::__cxx11::basic_string"*, align 8
  store %"class.std::__cxx11::basic_string"* %this, %"class.std::__cxx11::basic_string"** %this.addr, align 8, !tbaa !1213
  call void @llvm.dbg.declare(metadata %"class.std::__cxx11::basic_string"** %this.addr, metadata !2062, metadata !DIExpression()), !dbg !2063
  %this1 = load %"class.std::__cxx11::basic_string"*, %"class.std::__cxx11::basic_string"** %this.addr, align 8
  %_M_dataplus = getelementptr inbounds %"class.std::__cxx11::basic_string", %"class.std::__cxx11::basic_string"* %this1, i32 0, i32 0, !dbg !2064
  %0 = bitcast %"struct.std::__cxx11::basic_string<char, std::char_traits<char>, std::allocator<char> >::_Alloc_hider"* %_M_dataplus to %"class.std::allocator"*, !dbg !2064
  ret %"class.std::allocator"* %0, !dbg !2065
}

; Function Attrs: nounwind uwtable
define available_externally dso_local void @_ZNSt7__cxx1112basic_stringIcSt11char_traitsIcESaIcEE12_Alloc_hiderC2EPcOS3_(%"struct.std::__cxx11::basic_string<char, std::char_traits<char>, std::allocator<char> >::_Alloc_hider"* %this, i8* %__dat, %"class.std::allocator"* dereferenceable(1) %__a) unnamed_addr #7 align 2 !dbg !2066 {
entry:
  %this.addr = alloca %"struct.std::__cxx11::basic_string<char, std::char_traits<char>, std::allocator<char> >::_Alloc_hider"*, align 8
  %__dat.addr = alloca i8*, align 8
  %__a.addr = alloca %"class.std::allocator"*, align 8
  store %"struct.std::__cxx11::basic_string<char, std::char_traits<char>, std::allocator<char> >::_Alloc_hider"* %this, %"struct.std::__cxx11::basic_string<char, std::char_traits<char>, std::allocator<char> >::_Alloc_hider"** %this.addr, align 8, !tbaa !1213
  call void @llvm.dbg.declare(metadata %"struct.std::__cxx11::basic_string<char, std::char_traits<char>, std::allocator<char> >::_Alloc_hider"** %this.addr, metadata !2068, metadata !DIExpression()), !dbg !2071
  store i8* %__dat, i8** %__dat.addr, align 8, !tbaa !1213
  call void @llvm.dbg.declare(metadata i8** %__dat.addr, metadata !2069, metadata !DIExpression()), !dbg !2072
  store %"class.std::allocator"* %__a, %"class.std::allocator"** %__a.addr, align 8, !tbaa !1213
  call void @llvm.dbg.declare(metadata %"class.std::allocator"** %__a.addr, metadata !2070, metadata !DIExpression()), !dbg !2073
  %this1 = load %"struct.std::__cxx11::basic_string<char, std::char_traits<char>, std::allocator<char> >::_Alloc_hider"*, %"struct.std::__cxx11::basic_string<char, std::char_traits<char>, std::allocator<char> >::_Alloc_hider"** %this.addr, align 8
  %0 = bitcast %"struct.std::__cxx11::basic_string<char, std::char_traits<char>, std::allocator<char> >::_Alloc_hider"* %this1 to %"class.std::allocator"*, !dbg !2074
  %1 = load %"class.std::allocator"*, %"class.std::allocator"** %__a.addr, align 8, !dbg !2075, !tbaa !1213
  %call = call dereferenceable(1) %"class.std::allocator"* @_ZSt4moveIRSaIcEEONSt16remove_referenceIT_E4typeEOS3_(%"class.std::allocator"* dereferenceable(1) %1) #8, !dbg !2076
  call void @_ZNSaIcEC2ERKS_(%"class.std::allocator"* %0, %"class.std::allocator"* dereferenceable(1) %call) #8, !dbg !2077
  %_M_p = getelementptr inbounds %"struct.std::__cxx11::basic_string<char, std::char_traits<char>, std::allocator<char> >::_Alloc_hider", %"struct.std::__cxx11::basic_string<char, std::char_traits<char>, std::allocator<char> >::_Alloc_hider"* %this1, i32 0, i32 0, !dbg !2078
  %2 = load i8*, i8** %__dat.addr, align 8, !dbg !2079, !tbaa !1213
  store i8* %2, i8** %_M_p, align 8, !dbg !2078, !tbaa !1412
  ret void, !dbg !2080
}

; Function Attrs: uwtable
define linkonce_odr dso_local void @_ZNSt7__cxx1112basic_stringIcSt11char_traitsIcESaIcEE12_M_constructIPcEEvT_S7_(%"class.std::__cxx11::basic_string"* %this, i8* %__beg, i8* %__end) #3 comdat align 2 !dbg !2081 {
entry:
  %this.addr = alloca %"class.std::__cxx11::basic_string"*, align 8
  %__beg.addr = alloca i8*, align 8
  %__end.addr = alloca i8*, align 8
  %agg.tmp = alloca %"struct.std::__false_type", align 1
  store %"class.std::__cxx11::basic_string"* %this, %"class.std::__cxx11::basic_string"** %this.addr, align 8, !tbaa !1213
  call void @llvm.dbg.declare(metadata %"class.std::__cxx11::basic_string"** %this.addr, metadata !2088, metadata !DIExpression()), !dbg !2091
  store i8* %__beg, i8** %__beg.addr, align 8, !tbaa !1213
  call void @llvm.dbg.declare(metadata i8** %__beg.addr, metadata !2089, metadata !DIExpression()), !dbg !2092
  store i8* %__end, i8** %__end.addr, align 8, !tbaa !1213
  call void @llvm.dbg.declare(metadata i8** %__end.addr, metadata !2090, metadata !DIExpression()), !dbg !2093
  %this1 = load %"class.std::__cxx11::basic_string"*, %"class.std::__cxx11::basic_string"** %this.addr, align 8
  %0 = load i8*, i8** %__beg.addr, align 8, !dbg !2094, !tbaa !1213
  %1 = load i8*, i8** %__end.addr, align 8, !dbg !2095, !tbaa !1213
  call void @_ZNSt7__cxx1112basic_stringIcSt11char_traitsIcESaIcEE16_M_construct_auxIPcEEvT_S7_St12__false_type(%"class.std::__cxx11::basic_string"* %this1, i8* %0, i8* %1), !dbg !2096
  ret void, !dbg !2097
}

; Function Attrs: nounwind uwtable
define available_externally dso_local i64 @_ZNKSt7__cxx1112basic_stringIcSt11char_traitsIcESaIcEE6lengthEv(%"class.std::__cxx11::basic_string"* %this) #7 align 2 !dbg !2098 {
entry:
  %this.addr = alloca %"class.std::__cxx11::basic_string"*, align 8
  store %"class.std::__cxx11::basic_string"* %this, %"class.std::__cxx11::basic_string"** %this.addr, align 8, !tbaa !1213
  call void @llvm.dbg.declare(metadata %"class.std::__cxx11::basic_string"** %this.addr, metadata !2103, metadata !DIExpression()), !dbg !2104
  %this1 = load %"class.std::__cxx11::basic_string"*, %"class.std::__cxx11::basic_string"** %this.addr, align 8
  %_M_string_length = getelementptr inbounds %"class.std::__cxx11::basic_string", %"class.std::__cxx11::basic_string"* %this1, i32 0, i32 1, !dbg !2105
  %0 = load i64, i64* %_M_string_length, align 8, !dbg !2105, !tbaa !1904
  ret i64 %0, !dbg !2106
}

; Function Attrs: nounwind uwtable
define linkonce_odr dso_local void @_ZNSt16allocator_traitsISaIcEE37select_on_container_copy_constructionERKS0_(%"class.std::allocator"* noalias sret %agg.result, %"class.std::allocator"* dereferenceable(1) %__rhs) #7 comdat align 2 !dbg !2107 {
entry:
  %result.ptr = alloca i8*, align 8
  %__rhs.addr = alloca %"class.std::allocator"*, align 8
  %0 = bitcast %"class.std::allocator"* %agg.result to i8*
  store i8* %0, i8** %result.ptr, align 8
  store %"class.std::allocator"* %__rhs, %"class.std::allocator"** %__rhs.addr, align 8, !tbaa !1213
  call void @llvm.dbg.declare(metadata %"class.std::allocator"** %__rhs.addr, metadata !2109, metadata !DIExpression()), !dbg !2110
  %1 = load %"class.std::allocator"*, %"class.std::allocator"** %__rhs.addr, align 8, !dbg !2111, !tbaa !1213
  call void @_ZNSaIcEC2ERKS_(%"class.std::allocator"* %agg.result, %"class.std::allocator"* dereferenceable(1) %1) #8, !dbg !2111
  ret void, !dbg !2112
}

; Function Attrs: nounwind uwtable
define available_externally dso_local void @_ZNSaIcEC2ERKS_(%"class.std::allocator"* %this, %"class.std::allocator"* dereferenceable(1) %__a) unnamed_addr #7 align 2 !dbg !2113 {
entry:
  %this.addr = alloca %"class.std::allocator"*, align 8
  %__a.addr = alloca %"class.std::allocator"*, align 8
  store %"class.std::allocator"* %this, %"class.std::allocator"** %this.addr, align 8, !tbaa !1213
  call void @llvm.dbg.declare(metadata %"class.std::allocator"** %this.addr, metadata !2118, metadata !DIExpression()), !dbg !2120
  store %"class.std::allocator"* %__a, %"class.std::allocator"** %__a.addr, align 8, !tbaa !1213
  call void @llvm.dbg.declare(metadata %"class.std::allocator"** %__a.addr, metadata !2119, metadata !DIExpression()), !dbg !2121
  %this1 = load %"class.std::allocator"*, %"class.std::allocator"** %this.addr, align 8
  %0 = bitcast %"class.std::allocator"* %this1 to %"class.__gnu_cxx::new_allocator"*, !dbg !2122
  %1 = load %"class.std::allocator"*, %"class.std::allocator"** %__a.addr, align 8, !dbg !2123, !tbaa !1213
  %2 = bitcast %"class.std::allocator"* %1 to %"class.__gnu_cxx::new_allocator"*, !dbg !2123
  call void @_ZN9__gnu_cxx13new_allocatorIcEC2ERKS1_(%"class.__gnu_cxx::new_allocator"* %0, %"class.__gnu_cxx::new_allocator"* dereferenceable(1) %2) #8, !dbg !2124
  ret void, !dbg !2125
}

; Function Attrs: nounwind uwtable
define linkonce_odr dso_local dereferenceable(1) %"class.std::allocator"* @_ZSt4moveIRSaIcEEONSt16remove_referenceIT_E4typeEOS3_(%"class.std::allocator"* dereferenceable(1) %__t) #7 comdat !dbg !2126 {
entry:
  %__t.addr = alloca %"class.std::allocator"*, align 8
  store %"class.std::allocator"* %__t, %"class.std::allocator"** %__t.addr, align 8, !tbaa !1213
  call void @llvm.dbg.declare(metadata %"class.std::allocator"** %__t.addr, metadata !2135, metadata !DIExpression()), !dbg !2136
  %0 = load %"class.std::allocator"*, %"class.std::allocator"** %__t.addr, align 8, !dbg !2137, !tbaa !1213
  ret %"class.std::allocator"* %0, !dbg !2138
}

; Function Attrs: uwtable
define linkonce_odr dso_local void @_ZNSt7__cxx1112basic_stringIcSt11char_traitsIcESaIcEE16_M_construct_auxIPcEEvT_S7_St12__false_type(%"class.std::__cxx11::basic_string"* %this, i8* %__beg, i8* %__end) #3 comdat align 2 !dbg !2139 {
entry:
  %0 = alloca %"struct.std::__false_type", align 1
  %this.addr = alloca %"class.std::__cxx11::basic_string"*, align 8
  %__beg.addr = alloca i8*, align 8
  %__end.addr = alloca i8*, align 8
  %agg.tmp = alloca %"struct.std::forward_iterator_tag", align 1
  %ref.tmp = alloca %"struct.std::random_access_iterator_tag", align 1
  store %"class.std::__cxx11::basic_string"* %this, %"class.std::__cxx11::basic_string"** %this.addr, align 8, !tbaa !1213
  call void @llvm.dbg.declare(metadata %"class.std::__cxx11::basic_string"** %this.addr, metadata !2144, metadata !DIExpression()), !dbg !2148
  store i8* %__beg, i8** %__beg.addr, align 8, !tbaa !1213
  call void @llvm.dbg.declare(metadata i8** %__beg.addr, metadata !2145, metadata !DIExpression()), !dbg !2149
  store i8* %__end, i8** %__end.addr, align 8, !tbaa !1213
  call void @llvm.dbg.declare(metadata i8** %__end.addr, metadata !2146, metadata !DIExpression()), !dbg !2150
  call void @llvm.dbg.declare(metadata %"struct.std::__false_type"* %0, metadata !2147, metadata !DIExpression()), !dbg !2151
  %this1 = load %"class.std::__cxx11::basic_string"*, %"class.std::__cxx11::basic_string"** %this.addr, align 8
  %1 = load i8*, i8** %__beg.addr, align 8, !dbg !2152, !tbaa !1213
  %2 = load i8*, i8** %__end.addr, align 8, !dbg !2153, !tbaa !1213
  %3 = bitcast %"struct.std::random_access_iterator_tag"* %ref.tmp to i8*, !dbg !2154
  call void @llvm.lifetime.start.p0i8(i64 1, i8* %3) #8, !dbg !2154
  %4 = bitcast %"struct.std::random_access_iterator_tag"* %ref.tmp to %"struct.std::forward_iterator_tag"*, !dbg !2154
  call void @_ZNSt7__cxx1112basic_stringIcSt11char_traitsIcESaIcEE12_M_constructIPcEEvT_S7_St20forward_iterator_tag(%"class.std::__cxx11::basic_string"* %this1, i8* %1, i8* %2), !dbg !2155
  %5 = bitcast %"struct.std::random_access_iterator_tag"* %ref.tmp to i8*, !dbg !2155
  call void @llvm.lifetime.end.p0i8(i64 1, i8* %5) #8, !dbg !2155
  ret void, !dbg !2156
}

; Function Attrs: uwtable
define linkonce_odr dso_local void @_ZNSt7__cxx1112basic_stringIcSt11char_traitsIcESaIcEE12_M_constructIPcEEvT_S7_St20forward_iterator_tag(%"class.std::__cxx11::basic_string"* %this, i8* %__beg, i8* %__end) #3 comdat align 2 personality i8* bitcast (i32 (...)* @__gxx_personality_v0 to i8*) !dbg !2157 {
entry:
  %0 = alloca %"struct.std::forward_iterator_tag", align 1
  %this.addr = alloca %"class.std::__cxx11::basic_string"*, align 8
  %__beg.addr = alloca i8*, align 8
  %__end.addr = alloca i8*, align 8
  %__dnew = alloca i64, align 8
  %exn.slot = alloca i8*
  %ehselector.slot = alloca i32
  store %"class.std::__cxx11::basic_string"* %this, %"class.std::__cxx11::basic_string"** %this.addr, align 8, !tbaa !1213
  call void @llvm.dbg.declare(metadata %"class.std::__cxx11::basic_string"** %this.addr, metadata !2164, metadata !DIExpression()), !dbg !2169
  store i8* %__beg, i8** %__beg.addr, align 8, !tbaa !1213
  call void @llvm.dbg.declare(metadata i8** %__beg.addr, metadata !2165, metadata !DIExpression()), !dbg !2170
  store i8* %__end, i8** %__end.addr, align 8, !tbaa !1213
  call void @llvm.dbg.declare(metadata i8** %__end.addr, metadata !2166, metadata !DIExpression()), !dbg !2171
  call void @llvm.dbg.declare(metadata %"struct.std::forward_iterator_tag"* %0, metadata !2167, metadata !DIExpression()), !dbg !2172
  %this1 = load %"class.std::__cxx11::basic_string"*, %"class.std::__cxx11::basic_string"** %this.addr, align 8
  %1 = load i8*, i8** %__beg.addr, align 8, !dbg !2173, !tbaa !1213
  %call = call zeroext i1 @_ZN9__gnu_cxx17__is_null_pointerIcEEbPT_(i8* %1), !dbg !2175
  br i1 %call, label %land.lhs.true, label %if.end, !dbg !2176

land.lhs.true:                                    ; preds = %entry
  %2 = load i8*, i8** %__beg.addr, align 8, !dbg !2177, !tbaa !1213
  %3 = load i8*, i8** %__end.addr, align 8, !dbg !2178, !tbaa !1213
  %cmp = icmp ne i8* %2, %3, !dbg !2179
  br i1 %cmp, label %if.then, label %if.end, !dbg !2180

if.then:                                          ; preds = %land.lhs.true
  call void @_ZSt19__throw_logic_errorPKc(i8* getelementptr inbounds ([42 x i8], [42 x i8]* @.str.3, i64 0, i64 0)) #15, !dbg !2181
  unreachable, !dbg !2181

if.end:                                           ; preds = %land.lhs.true, %entry
  %4 = bitcast i64* %__dnew to i8*, !dbg !2182
  call void @llvm.lifetime.start.p0i8(i64 8, i8* %4) #8, !dbg !2182
  call void @llvm.dbg.declare(metadata i64* %__dnew, metadata !2168, metadata !DIExpression()), !dbg !2183
  %5 = load i8*, i8** %__beg.addr, align 8, !dbg !2184, !tbaa !1213
  %6 = load i8*, i8** %__end.addr, align 8, !dbg !2185, !tbaa !1213
  %call2 = call i64 @_ZSt8distanceIPcENSt15iterator_traitsIT_E15difference_typeES2_S2_(i8* %5, i8* %6), !dbg !2186
  store i64 %call2, i64* %__dnew, align 8, !dbg !2183, !tbaa !1205
  %7 = load i64, i64* %__dnew, align 8, !dbg !2187, !tbaa !1205
  %cmp3 = icmp ugt i64 %7, 15, !dbg !2189
  br i1 %cmp3, label %if.then4, label %if.end6, !dbg !2190

if.then4:                                         ; preds = %if.end
  %call5 = call i8* @_ZNSt7__cxx1112basic_stringIcSt11char_traitsIcESaIcEE9_M_createERmm(%"class.std::__cxx11::basic_string"* %this1, i64* dereferenceable(8) %__dnew, i64 0), !dbg !2191
  call void @_ZNSt7__cxx1112basic_stringIcSt11char_traitsIcESaIcEE7_M_dataEPc(%"class.std::__cxx11::basic_string"* %this1, i8* %call5), !dbg !2193
  %8 = load i64, i64* %__dnew, align 8, !dbg !2194, !tbaa !1205
  call void @_ZNSt7__cxx1112basic_stringIcSt11char_traitsIcESaIcEE11_M_capacityEm(%"class.std::__cxx11::basic_string"* %this1, i64 %8), !dbg !2195
  br label %if.end6, !dbg !2196

if.end6:                                          ; preds = %if.then4, %if.end
  %call7 = invoke i8* @_ZNKSt7__cxx1112basic_stringIcSt11char_traitsIcESaIcEE7_M_dataEv(%"class.std::__cxx11::basic_string"* %this1)
          to label %invoke.cont unwind label %lpad, !dbg !2197

invoke.cont:                                      ; preds = %if.end6
  %9 = load i8*, i8** %__beg.addr, align 8, !dbg !2199, !tbaa !1213
  %10 = load i8*, i8** %__end.addr, align 8, !dbg !2200, !tbaa !1213
  call void @_ZNSt7__cxx1112basic_stringIcSt11char_traitsIcESaIcEE13_S_copy_charsEPcS5_S5_(i8* %call7, i8* %9, i8* %10) #8, !dbg !2201
  br label %try.cont, !dbg !2202

lpad:                                             ; preds = %if.end6
  %11 = landingpad { i8*, i32 }
          catch i8* null, !dbg !2203
  %12 = extractvalue { i8*, i32 } %11, 0, !dbg !2203
  store i8* %12, i8** %exn.slot, align 8, !dbg !2203
  %13 = extractvalue { i8*, i32 } %11, 1, !dbg !2203
  store i32 %13, i32* %ehselector.slot, align 4, !dbg !2203
  br label %catch, !dbg !2203

catch:                                            ; preds = %lpad
  %exn = load i8*, i8** %exn.slot, align 8, !dbg !2202
  %14 = call i8* @__cxa_begin_catch(i8* %exn) #8, !dbg !2202
  invoke void @_ZNSt7__cxx1112basic_stringIcSt11char_traitsIcESaIcEE10_M_disposeEv(%"class.std::__cxx11::basic_string"* %this1)
          to label %invoke.cont9 unwind label %lpad8, !dbg !2204

invoke.cont9:                                     ; preds = %catch
  invoke void @__cxa_rethrow() #15
          to label %unreachable unwind label %lpad8, !dbg !2206

lpad8:                                            ; preds = %invoke.cont9, %catch
  %15 = landingpad { i8*, i32 }
          cleanup, !dbg !2207
  %16 = extractvalue { i8*, i32 } %15, 0, !dbg !2207
  store i8* %16, i8** %exn.slot, align 8, !dbg !2207
  %17 = extractvalue { i8*, i32 } %15, 1, !dbg !2207
  store i32 %17, i32* %ehselector.slot, align 4, !dbg !2207
  invoke void @__cxa_end_catch()
          to label %invoke.cont10 unwind label %terminate.lpad, !dbg !2208

invoke.cont10:                                    ; preds = %lpad8
  %18 = bitcast i64* %__dnew to i8*, !dbg !2209
  call void @llvm.lifetime.end.p0i8(i64 8, i8* %18) #8, !dbg !2209
  br label %eh.resume, !dbg !2209

try.cont:                                         ; preds = %invoke.cont
  %19 = load i64, i64* %__dnew, align 8, !dbg !2210, !tbaa !1205
  call void @_ZNSt7__cxx1112basic_stringIcSt11char_traitsIcESaIcEE13_M_set_lengthEm(%"class.std::__cxx11::basic_string"* %this1, i64 %19), !dbg !2211
  %20 = bitcast i64* %__dnew to i8*, !dbg !2209
  call void @llvm.lifetime.end.p0i8(i64 8, i8* %20) #8, !dbg !2209
  ret void, !dbg !2209

eh.resume:                                        ; preds = %invoke.cont10
  %exn11 = load i8*, i8** %exn.slot, align 8, !dbg !2209
  %sel = load i32, i32* %ehselector.slot, align 4, !dbg !2209
  %lpad.val = insertvalue { i8*, i32 } undef, i8* %exn11, 0, !dbg !2209
  %lpad.val12 = insertvalue { i8*, i32 } %lpad.val, i32 %sel, 1, !dbg !2209
  resume { i8*, i32 } %lpad.val12, !dbg !2209

terminate.lpad:                                   ; preds = %lpad8
  %21 = landingpad { i8*, i32 }
          catch i8* null, !dbg !2208
  %22 = extractvalue { i8*, i32 } %21, 0, !dbg !2208
  call void @__clang_call_terminate(i8* %22) #14, !dbg !2208
  unreachable, !dbg !2208

unreachable:                                      ; preds = %invoke.cont9
  unreachable
}

; Function Attrs: inlinehint nounwind uwtable
define linkonce_odr dso_local zeroext i1 @_ZN9__gnu_cxx17__is_null_pointerIcEEbPT_(i8* %__ptr) #9 comdat !dbg !2212 {
entry:
  %__ptr.addr = alloca i8*, align 8
  store i8* %__ptr, i8** %__ptr.addr, align 8, !tbaa !1213
  call void @llvm.dbg.declare(metadata i8** %__ptr.addr, metadata !2216, metadata !DIExpression()), !dbg !2219
  %0 = load i8*, i8** %__ptr.addr, align 8, !dbg !2220, !tbaa !1213
  %cmp = icmp eq i8* %0, null, !dbg !2221
  ret i1 %cmp, !dbg !2222
}

; Function Attrs: inlinehint uwtable
define linkonce_odr dso_local i64 @_ZSt8distanceIPcENSt15iterator_traitsIT_E15difference_typeES2_S2_(i8* %__first, i8* %__last) #11 comdat !dbg !2223 {
entry:
  %__first.addr = alloca i8*, align 8
  %__last.addr = alloca i8*, align 8
  %agg.tmp = alloca %"struct.std::random_access_iterator_tag", align 1
  %undef.agg.tmp = alloca %"struct.std::random_access_iterator_tag", align 1
  store i8* %__first, i8** %__first.addr, align 8, !tbaa !1213
  call void @llvm.dbg.declare(metadata i8** %__first.addr, metadata !2231, metadata !DIExpression()), !dbg !2235
  store i8* %__last, i8** %__last.addr, align 8, !tbaa !1213
  call void @llvm.dbg.declare(metadata i8** %__last.addr, metadata !2232, metadata !DIExpression()), !dbg !2236
  %0 = load i8*, i8** %__first.addr, align 8, !dbg !2237, !tbaa !1213
  %1 = load i8*, i8** %__last.addr, align 8, !dbg !2238, !tbaa !1213
  call void @_ZSt19__iterator_categoryIPcENSt15iterator_traitsIT_E17iterator_categoryERKS2_(i8** dereferenceable(8) %__first.addr), !dbg !2239
  %call = call i64 @_ZSt10__distanceIPcENSt15iterator_traitsIT_E15difference_typeES2_S2_St26random_access_iterator_tag(i8* %0, i8* %1), !dbg !2240
  ret i64 %call, !dbg !2241
}

; Function Attrs: nounwind uwtable
define available_externally dso_local void @_ZNSt7__cxx1112basic_stringIcSt11char_traitsIcESaIcEE13_S_copy_charsEPcS5_S5_(i8* %__p, i8* %__k1, i8* %__k2) #7 align 2 personality i8* bitcast (i32 (...)* @__gxx_personality_v0 to i8*) !dbg !2242 {
entry:
  %__p.addr = alloca i8*, align 8
  %__k1.addr = alloca i8*, align 8
  %__k2.addr = alloca i8*, align 8
  store i8* %__p, i8** %__p.addr, align 8, !tbaa !1213
  call void @llvm.dbg.declare(metadata i8** %__p.addr, metadata !2247, metadata !DIExpression()), !dbg !2250
  store i8* %__k1, i8** %__k1.addr, align 8, !tbaa !1213
  call void @llvm.dbg.declare(metadata i8** %__k1.addr, metadata !2248, metadata !DIExpression()), !dbg !2251
  store i8* %__k2, i8** %__k2.addr, align 8, !tbaa !1213
  call void @llvm.dbg.declare(metadata i8** %__k2.addr, metadata !2249, metadata !DIExpression()), !dbg !2252
  %0 = load i8*, i8** %__p.addr, align 8, !dbg !2253, !tbaa !1213
  %1 = load i8*, i8** %__k1.addr, align 8, !dbg !2254, !tbaa !1213
  %2 = load i8*, i8** %__k2.addr, align 8, !dbg !2255, !tbaa !1213
  %3 = load i8*, i8** %__k1.addr, align 8, !dbg !2256, !tbaa !1213
  %sub.ptr.lhs.cast = ptrtoint i8* %2 to i64, !dbg !2257
  %sub.ptr.rhs.cast = ptrtoint i8* %3 to i64, !dbg !2257
  %sub.ptr.sub = sub i64 %sub.ptr.lhs.cast, %sub.ptr.rhs.cast, !dbg !2257
  invoke void @_ZNSt7__cxx1112basic_stringIcSt11char_traitsIcESaIcEE7_S_copyEPcPKcm(i8* %0, i8* %1, i64 %sub.ptr.sub)
          to label %invoke.cont unwind label %terminate.lpad, !dbg !2258

invoke.cont:                                      ; preds = %entry
  ret void, !dbg !2259

terminate.lpad:                                   ; preds = %entry
  %4 = landingpad { i8*, i32 }
          catch i8* null, !dbg !2258
  %5 = extractvalue { i8*, i32 } %4, 0, !dbg !2258
  call void @__clang_call_terminate(i8* %5) #14, !dbg !2258
  unreachable, !dbg !2258
}

; Function Attrs: inlinehint nounwind uwtable
define linkonce_odr dso_local i64 @_ZSt10__distanceIPcENSt15iterator_traitsIT_E15difference_typeES2_S2_St26random_access_iterator_tag(i8* %__first, i8* %__last) #9 comdat !dbg !2260 {
entry:
  %0 = alloca %"struct.std::random_access_iterator_tag", align 1
  %__first.addr = alloca i8*, align 8
  %__last.addr = alloca i8*, align 8
  store i8* %__first, i8** %__first.addr, align 8, !tbaa !1213
  call void @llvm.dbg.declare(metadata i8** %__first.addr, metadata !2264, metadata !DIExpression()), !dbg !2269
  store i8* %__last, i8** %__last.addr, align 8, !tbaa !1213
  call void @llvm.dbg.declare(metadata i8** %__last.addr, metadata !2265, metadata !DIExpression()), !dbg !2270
  call void @llvm.dbg.declare(metadata %"struct.std::random_access_iterator_tag"* %0, metadata !2266, metadata !DIExpression()), !dbg !2271
  %1 = load i8*, i8** %__last.addr, align 8, !dbg !2272, !tbaa !1213
  %2 = load i8*, i8** %__first.addr, align 8, !dbg !2273, !tbaa !1213
  %sub.ptr.lhs.cast = ptrtoint i8* %1 to i64, !dbg !2274
  %sub.ptr.rhs.cast = ptrtoint i8* %2 to i64, !dbg !2274
  %sub.ptr.sub = sub i64 %sub.ptr.lhs.cast, %sub.ptr.rhs.cast, !dbg !2274
  ret i64 %sub.ptr.sub, !dbg !2275
}

; Function Attrs: inlinehint nounwind uwtable
define linkonce_odr dso_local void @_ZSt19__iterator_categoryIPcENSt15iterator_traitsIT_E17iterator_categoryERKS2_(i8** dereferenceable(8) %0) #9 comdat !dbg !2276 {
entry:
  %.addr = alloca i8**, align 8
  store i8** %0, i8*** %.addr, align 8, !tbaa !1213
  call void @llvm.dbg.declare(metadata i8*** %.addr, metadata !2283, metadata !DIExpression()), !dbg !2286
  ret void, !dbg !2287
}

declare dso_local dereferenceable(272) %"class.std::basic_ostream"* @_ZSt16__ostream_insertIcSt11char_traitsIcEERSt13basic_ostreamIT_T0_ES6_PKS3_l(%"class.std::basic_ostream"* dereferenceable(272), i8*, i64) #5

; Function Attrs: nounwind uwtable
define available_externally dso_local i8* @_ZNKSt7__cxx1112basic_stringIcSt11char_traitsIcESaIcEE4dataEv(%"class.std::__cxx11::basic_string"* %this) #7 align 2 personality i8* bitcast (i32 (...)* @__gxx_personality_v0 to i8*) !dbg !2288 {
entry:
  %this.addr = alloca %"class.std::__cxx11::basic_string"*, align 8
  store %"class.std::__cxx11::basic_string"* %this, %"class.std::__cxx11::basic_string"** %this.addr, align 8, !tbaa !1213
  call void @llvm.dbg.declare(metadata %"class.std::__cxx11::basic_string"** %this.addr, metadata !2293, metadata !DIExpression()), !dbg !2294
  %this1 = load %"class.std::__cxx11::basic_string"*, %"class.std::__cxx11::basic_string"** %this.addr, align 8
  %call = invoke i8* @_ZNKSt7__cxx1112basic_stringIcSt11char_traitsIcESaIcEE7_M_dataEv(%"class.std::__cxx11::basic_string"* %this1)
          to label %invoke.cont unwind label %terminate.lpad, !dbg !2295

invoke.cont:                                      ; preds = %entry
  ret i8* %call, !dbg !2296

terminate.lpad:                                   ; preds = %entry
  %0 = landingpad { i8*, i32 }
          catch i8* null, !dbg !2295
  %1 = extractvalue { i8*, i32 } %0, 0, !dbg !2295
  call void @__clang_call_terminate(i8* %1) #14, !dbg !2295
  unreachable, !dbg !2295
}

; Function Attrs: nounwind uwtable
define available_externally dso_local i64 @_ZNKSt7__cxx1112basic_stringIcSt11char_traitsIcESaIcEE4sizeEv(%"class.std::__cxx11::basic_string"* %this) #7 align 2 !dbg !2297 {
entry:
  %this.addr = alloca %"class.std::__cxx11::basic_string"*, align 8
  store %"class.std::__cxx11::basic_string"* %this, %"class.std::__cxx11::basic_string"** %this.addr, align 8, !tbaa !1213
  call void @llvm.dbg.declare(metadata %"class.std::__cxx11::basic_string"** %this.addr, metadata !2300, metadata !DIExpression()), !dbg !2301
  %this1 = load %"class.std::__cxx11::basic_string"*, %"class.std::__cxx11::basic_string"** %this.addr, align 8
  %_M_string_length = getelementptr inbounds %"class.std::__cxx11::basic_string", %"class.std::__cxx11::basic_string"* %this1, i32 0, i32 1, !dbg !2302
  %0 = load i64, i64* %_M_string_length, align 8, !dbg !2302, !tbaa !1904
  ret i64 %0, !dbg !2303
}

; Function Attrs: inlinehint uwtable
define available_externally dso_local dereferenceable(272) %"class.std::basic_ostream"* @_ZSt5flushIcSt11char_traitsIcEERSt13basic_ostreamIT_T0_ES6_(%"class.std::basic_ostream"* dereferenceable(272) %__os) #11 !dbg !2304 {
entry:
  %__os.addr = alloca %"class.std::basic_ostream"*, align 8
  store %"class.std::basic_ostream"* %__os, %"class.std::basic_ostream"** %__os.addr, align 8, !tbaa !1213
  call void @llvm.dbg.declare(metadata %"class.std::basic_ostream"** %__os.addr, metadata !2306, metadata !DIExpression()), !dbg !2307
  %0 = load %"class.std::basic_ostream"*, %"class.std::basic_ostream"** %__os.addr, align 8, !dbg !2308, !tbaa !1213
  %call = call dereferenceable(272) %"class.std::basic_ostream"* @_ZNSo5flushEv(%"class.std::basic_ostream"* %0), !dbg !2309
  ret %"class.std::basic_ostream"* %call, !dbg !2310
}

declare dso_local dereferenceable(272) %"class.std::basic_ostream"* @_ZNSo3putEc(%"class.std::basic_ostream"*, i8 signext) #5

; Function Attrs: uwtable
define available_externally dso_local signext i8 @_ZNKSt9basic_iosIcSt11char_traitsIcEE5widenEc(%"class.std::basic_ios"* %this, i8 signext %__c) #3 align 2 !dbg !2311 {
entry:
  %this.addr = alloca %"class.std::basic_ios"*, align 8
  %__c.addr = alloca i8, align 1
  store %"class.std::basic_ios"* %this, %"class.std::basic_ios"** %this.addr, align 8, !tbaa !1213
  call void @llvm.dbg.declare(metadata %"class.std::basic_ios"** %this.addr, metadata !2322, metadata !DIExpression()), !dbg !2325
  store i8 %__c, i8* %__c.addr, align 1, !tbaa !1637
  call void @llvm.dbg.declare(metadata i8* %__c.addr, metadata !2324, metadata !DIExpression()), !dbg !2326
  %this1 = load %"class.std::basic_ios"*, %"class.std::basic_ios"** %this.addr, align 8
  %_M_ctype = getelementptr inbounds %"class.std::basic_ios", %"class.std::basic_ios"* %this1, i32 0, i32 5, !dbg !2327
  %0 = load %"class.std::ctype"*, %"class.std::ctype"** %_M_ctype, align 8, !dbg !2327, !tbaa !2328
  %call = call dereferenceable(576) %"class.std::ctype"* @_ZSt13__check_facetISt5ctypeIcEERKT_PS3_(%"class.std::ctype"* %0), !dbg !2331
  %1 = load i8, i8* %__c.addr, align 1, !dbg !2332, !tbaa !1637
  %call2 = call signext i8 @_ZNKSt5ctypeIcE5widenEc(%"class.std::ctype"* %call, i8 signext %1), !dbg !2333
  ret i8 %call2, !dbg !2334
}

declare dso_local dereferenceable(272) %"class.std::basic_ostream"* @_ZNSo5flushEv(%"class.std::basic_ostream"*) #5

; Function Attrs: inlinehint uwtable
define linkonce_odr dso_local dereferenceable(576) %"class.std::ctype"* @_ZSt13__check_facetISt5ctypeIcEERKT_PS3_(%"class.std::ctype"* %__f) #11 comdat !dbg !2335 {
entry:
  %__f.addr = alloca %"class.std::ctype"*, align 8
  store %"class.std::ctype"* %__f, %"class.std::ctype"** %__f.addr, align 8, !tbaa !1213
  call void @llvm.dbg.declare(metadata %"class.std::ctype"** %__f.addr, metadata !2344, metadata !DIExpression()), !dbg !2347
  %0 = load %"class.std::ctype"*, %"class.std::ctype"** %__f.addr, align 8, !dbg !2348, !tbaa !1213
  %tobool = icmp ne %"class.std::ctype"* %0, null, !dbg !2348
  br i1 %tobool, label %if.end, label %if.then, !dbg !2350

if.then:                                          ; preds = %entry
  call void @_ZSt16__throw_bad_castv() #15, !dbg !2351
  unreachable, !dbg !2351

if.end:                                           ; preds = %entry
  %1 = load %"class.std::ctype"*, %"class.std::ctype"** %__f.addr, align 8, !dbg !2352, !tbaa !1213
  ret %"class.std::ctype"* %1, !dbg !2353
}

; Function Attrs: uwtable
define linkonce_odr dso_local signext i8 @_ZNKSt5ctypeIcE5widenEc(%"class.std::ctype"* %this, i8 signext %__c) #3 comdat align 2 !dbg !2354 {
entry:
  %retval = alloca i8, align 1
  %this.addr = alloca %"class.std::ctype"*, align 8
  %__c.addr = alloca i8, align 1
  store %"class.std::ctype"* %this, %"class.std::ctype"** %this.addr, align 8, !tbaa !1213
  call void @llvm.dbg.declare(metadata %"class.std::ctype"** %this.addr, metadata !2361, metadata !DIExpression()), !dbg !2363
  store i8 %__c, i8* %__c.addr, align 1, !tbaa !1637
  call void @llvm.dbg.declare(metadata i8* %__c.addr, metadata !2362, metadata !DIExpression()), !dbg !2364
  %this1 = load %"class.std::ctype"*, %"class.std::ctype"** %this.addr, align 8
  %_M_widen_ok = getelementptr inbounds %"class.std::ctype", %"class.std::ctype"* %this1, i32 0, i32 8, !dbg !2365
  %0 = load i8, i8* %_M_widen_ok, align 8, !dbg !2365, !tbaa !2367
  %tobool = icmp ne i8 %0, 0, !dbg !2365
  br i1 %tobool, label %if.then, label %if.end, !dbg !2369

if.then:                                          ; preds = %entry
  %_M_widen = getelementptr inbounds %"class.std::ctype", %"class.std::ctype"* %this1, i32 0, i32 9, !dbg !2370
  %1 = load i8, i8* %__c.addr, align 1, !dbg !2371, !tbaa !1637
  %idxprom = zext i8 %1 to i64, !dbg !2370
  %arrayidx = getelementptr inbounds [256 x i8], [256 x i8]* %_M_widen, i64 0, i64 %idxprom, !dbg !2370
  %2 = load i8, i8* %arrayidx, align 1, !dbg !2370, !tbaa !1637
  store i8 %2, i8* %retval, align 1, !dbg !2372
  br label %return, !dbg !2372

if.end:                                           ; preds = %entry
  call void @_ZNKSt5ctypeIcE13_M_widen_initEv(%"class.std::ctype"* %this1), !dbg !2373
  %3 = load i8, i8* %__c.addr, align 1, !dbg !2374, !tbaa !1637
  %4 = bitcast %"class.std::ctype"* %this1 to i8 (%"class.std::ctype"*, i8)***, !dbg !2375
  %vtable = load i8 (%"class.std::ctype"*, i8)**, i8 (%"class.std::ctype"*, i8)*** %4, align 8, !dbg !2375, !tbaa !2017
  %vfn = getelementptr inbounds i8 (%"class.std::ctype"*, i8)*, i8 (%"class.std::ctype"*, i8)** %vtable, i64 6, !dbg !2375
  %5 = load i8 (%"class.std::ctype"*, i8)*, i8 (%"class.std::ctype"*, i8)** %vfn, align 8, !dbg !2375
  %call = call signext i8 %5(%"class.std::ctype"* %this1, i8 signext %3), !dbg !2375
  store i8 %call, i8* %retval, align 1, !dbg !2376
  br label %return, !dbg !2376

return:                                           ; preds = %if.end, %if.then
  %6 = load i8, i8* %retval, align 1, !dbg !2377
  ret i8 %6, !dbg !2377
}

; Function Attrs: noreturn
declare dso_local void @_ZSt16__throw_bad_castv() #10

declare dso_local void @_ZNKSt5ctypeIcE13_M_widen_initEv(%"class.std::ctype"*) #5

; Function Attrs: uwtable
define internal void @_GLOBAL__sub_I_pthread_rwlock_yes.cpp() #3 section ".text.startup" !dbg !2378 {
entry:
  call void @__cxx_global_var_init(), !dbg !2380
  ret void
}

attributes #0 = { norecurse uwtable "correctly-rounded-divide-sqrt-fp-math"="false" "disable-tail-calls"="false" "frame-pointer"="none" "less-precise-fpmad"="false" "min-legal-vector-width"="0" "no-infs-fp-math"="false" "no-jump-tables"="false" "no-nans-fp-math"="false" "no-signed-zeros-fp-math"="false" "no-trapping-math"="false" "stack-protector-buffer-size"="8" "target-cpu"="x86-64" "target-features"="+cx8,+fxsr,+mmx,+sse,+sse2,+x87" "unsafe-fp-math"="false" "use-soft-float"="false" }
attributes #1 = { argmemonly nounwind willreturn }
attributes #2 = { nounwind readnone speculatable willreturn }
attributes #3 = { uwtable "correctly-rounded-divide-sqrt-fp-math"="false" "disable-tail-calls"="false" "frame-pointer"="none" "less-precise-fpmad"="false" "min-legal-vector-width"="0" "no-infs-fp-math"="false" "no-jump-tables"="false" "no-nans-fp-math"="false" "no-signed-zeros-fp-math"="false" "no-trapping-math"="false" "stack-protector-buffer-size"="8" "target-cpu"="x86-64" "target-features"="+cx8,+fxsr,+mmx,+sse,+sse2,+x87" "unsafe-fp-math"="false" "use-soft-float"="false" }
attributes #4 = { nounwind "correctly-rounded-divide-sqrt-fp-math"="false" "disable-tail-calls"="false" "frame-pointer"="none" "less-precise-fpmad"="false" "no-infs-fp-math"="false" "no-nans-fp-math"="false" "no-signed-zeros-fp-math"="false" "no-trapping-math"="false" "stack-protector-buffer-size"="8" "target-cpu"="x86-64" "target-features"="+cx8,+fxsr,+mmx,+sse,+sse2,+x87" "unsafe-fp-math"="false" "use-soft-float"="false" }
attributes #5 = { "correctly-rounded-divide-sqrt-fp-math"="false" "disable-tail-calls"="false" "frame-pointer"="none" "less-precise-fpmad"="false" "no-infs-fp-math"="false" "no-nans-fp-math"="false" "no-signed-zeros-fp-math"="false" "no-trapping-math"="false" "stack-protector-buffer-size"="8" "target-cpu"="x86-64" "target-features"="+cx8,+fxsr,+mmx,+sse,+sse2,+x87" "unsafe-fp-math"="false" "use-soft-float"="false" }
attributes #6 = { noreturn nounwind "correctly-rounded-divide-sqrt-fp-math"="false" "disable-tail-calls"="false" "frame-pointer"="none" "less-precise-fpmad"="false" "no-infs-fp-math"="false" "no-nans-fp-math"="false" "no-signed-zeros-fp-math"="false" "no-trapping-math"="false" "stack-protector-buffer-size"="8" "target-cpu"="x86-64" "target-features"="+cx8,+fxsr,+mmx,+sse,+sse2,+x87" "unsafe-fp-math"="false" "use-soft-float"="false" }
attributes #7 = { nounwind uwtable "correctly-rounded-divide-sqrt-fp-math"="false" "disable-tail-calls"="false" "frame-pointer"="none" "less-precise-fpmad"="false" "min-legal-vector-width"="0" "no-infs-fp-math"="false" "no-jump-tables"="false" "no-nans-fp-math"="false" "no-signed-zeros-fp-math"="false" "no-trapping-math"="false" "stack-protector-buffer-size"="8" "target-cpu"="x86-64" "target-features"="+cx8,+fxsr,+mmx,+sse,+sse2,+x87" "unsafe-fp-math"="false" "use-soft-float"="false" }
attributes #8 = { nounwind }
attributes #9 = { inlinehint nounwind uwtable "correctly-rounded-divide-sqrt-fp-math"="false" "disable-tail-calls"="false" "frame-pointer"="none" "less-precise-fpmad"="false" "min-legal-vector-width"="0" "no-infs-fp-math"="false" "no-jump-tables"="false" "no-nans-fp-math"="false" "no-signed-zeros-fp-math"="false" "no-trapping-math"="false" "stack-protector-buffer-size"="8" "target-cpu"="x86-64" "target-features"="+cx8,+fxsr,+mmx,+sse,+sse2,+x87" "unsafe-fp-math"="false" "use-soft-float"="false" }
attributes #10 = { noreturn "correctly-rounded-divide-sqrt-fp-math"="false" "disable-tail-calls"="false" "frame-pointer"="none" "less-precise-fpmad"="false" "no-infs-fp-math"="false" "no-nans-fp-math"="false" "no-signed-zeros-fp-math"="false" "no-trapping-math"="false" "stack-protector-buffer-size"="8" "target-cpu"="x86-64" "target-features"="+cx8,+fxsr,+mmx,+sse,+sse2,+x87" "unsafe-fp-math"="false" "use-soft-float"="false" }
attributes #11 = { inlinehint uwtable "correctly-rounded-divide-sqrt-fp-math"="false" "disable-tail-calls"="false" "frame-pointer"="none" "less-precise-fpmad"="false" "min-legal-vector-width"="0" "no-infs-fp-math"="false" "no-jump-tables"="false" "no-nans-fp-math"="false" "no-signed-zeros-fp-math"="false" "no-trapping-math"="false" "stack-protector-buffer-size"="8" "target-cpu"="x86-64" "target-features"="+cx8,+fxsr,+mmx,+sse,+sse2,+x87" "unsafe-fp-math"="false" "use-soft-float"="false" }
attributes #12 = { noinline noreturn nounwind }
attributes #13 = { nobuiltin nounwind "correctly-rounded-divide-sqrt-fp-math"="false" "disable-tail-calls"="false" "frame-pointer"="none" "less-precise-fpmad"="false" "no-infs-fp-math"="false" "no-nans-fp-math"="false" "no-signed-zeros-fp-math"="false" "no-trapping-math"="false" "stack-protector-buffer-size"="8" "target-cpu"="x86-64" "target-features"="+cx8,+fxsr,+mmx,+sse,+sse2,+x87" "unsafe-fp-math"="false" "use-soft-float"="false" }
attributes #14 = { noreturn nounwind }
attributes #15 = { noreturn }

!llvm.dbg.cu = !{!28}
!llvm.module.flags = !{!1159, !1160, !1161}
!llvm.ident = !{!1162}

!0 = !DIGlobalVariableExpression(var: !1, expr: !DIExpression())
!1 = distinct !DIGlobalVariable(name: "__ioinit", linkageName: "_ZStL8__ioinit", scope: !2, file: !3, line: 74, type: !4, isLocal: true, isDefinition: true)
!2 = !DINamespace(name: "std", scope: null)
!3 = !DIFile(filename: "/usr/lib64/gcc/x86_64-pc-linux-gnu/10.2.0/../../../../include/c++/10.2.0/iostream", directory: "")
!4 = distinct !DICompositeType(tag: DW_TAG_class_type, name: "Init", scope: !6, file: !5, line: 603, size: 8, flags: DIFlagTypePassByReference | DIFlagNonTrivial, elements: !7, identifier: "_ZTSNSt8ios_base4InitE")
!5 = !DIFile(filename: "/usr/lib64/gcc/x86_64-pc-linux-gnu/10.2.0/../../../../include/c++/10.2.0/bits/ios_base.h", directory: "")
!6 = !DICompositeType(tag: DW_TAG_class_type, name: "ios_base", scope: !2, file: !5, line: 228, flags: DIFlagFwdDecl, identifier: "_ZTSSt8ios_base")
!7 = !{!8, !12, !14, !18, !19, !24}
!8 = !DIDerivedType(tag: DW_TAG_member, name: "_S_refcount", scope: !4, file: !5, line: 616, baseType: !9, flags: DIFlagStaticMember)
!9 = !DIDerivedType(tag: DW_TAG_typedef, name: "_Atomic_word", file: !10, line: 32, baseType: !11)
!10 = !DIFile(filename: "/usr/lib64/gcc/x86_64-pc-linux-gnu/10.2.0/../../../../include/c++/10.2.0/x86_64-pc-linux-gnu/bits/atomic_word.h", directory: "")
!11 = !DIBasicType(name: "int", size: 32, encoding: DW_ATE_signed)
!12 = !DIDerivedType(tag: DW_TAG_member, name: "_S_synced_with_stdio", scope: !4, file: !5, line: 617, baseType: !13, flags: DIFlagStaticMember)
!13 = !DIBasicType(name: "bool", size: 8, encoding: DW_ATE_boolean)
!14 = !DISubprogram(name: "Init", scope: !4, file: !5, line: 607, type: !15, scopeLine: 607, flags: DIFlagPublic | DIFlagPrototyped, spFlags: DISPFlagOptimized)
!15 = !DISubroutineType(types: !16)
!16 = !{null, !17}
!17 = !DIDerivedType(tag: DW_TAG_pointer_type, baseType: !4, size: 64, flags: DIFlagArtificial | DIFlagObjectPointer)
!18 = !DISubprogram(name: "~Init", scope: !4, file: !5, line: 608, type: !15, scopeLine: 608, flags: DIFlagPublic | DIFlagPrototyped, spFlags: DISPFlagOptimized)
!19 = !DISubprogram(name: "Init", scope: !4, file: !5, line: 611, type: !20, scopeLine: 611, flags: DIFlagPublic | DIFlagPrototyped, spFlags: DISPFlagOptimized)
!20 = !DISubroutineType(types: !21)
!21 = !{null, !17, !22}
!22 = !DIDerivedType(tag: DW_TAG_reference_type, baseType: !23, size: 64)
!23 = !DIDerivedType(tag: DW_TAG_const_type, baseType: !4)
!24 = !DISubprogram(name: "operator=", linkageName: "_ZNSt8ios_base4InitaSERKS0_", scope: !4, file: !5, line: 612, type: !25, scopeLine: 612, flags: DIFlagPublic | DIFlagPrototyped, spFlags: DISPFlagOptimized)
!25 = !DISubroutineType(types: !26)
!26 = !{!27, !17, !22}
!27 = !DIDerivedType(tag: DW_TAG_reference_type, baseType: !4, size: 64)
!28 = distinct !DICompileUnit(language: DW_LANG_C_plus_plus_14, file: !29, producer: "clang version 10.0.1 ", isOptimized: true, runtimeVersion: 0, emissionKind: FullDebug, enums: !30, retainedTypes: !39, globals: !236, imports: !237, splitDebugInlining: false, nameTableKind: None)
!29 = !DIFile(filename: "integration/pthreadrace/pthread-rwlock-yes.cpp", directory: "/home/brad/Code/OpenRace/tests/data")
!30 = !{!31}
!31 = !DICompositeType(tag: DW_TAG_enumeration_type, scope: !33, file: !32, line: 169, baseType: !36, size: 32, elements: !37, identifier: "_ZTSNSt7__cxx1112basic_stringIcSt11char_traitsIcESaIcEEUt_E")
!32 = !DIFile(filename: "/usr/lib64/gcc/x86_64-pc-linux-gnu/10.2.0/../../../../include/c++/10.2.0/bits/basic_string.h", directory: "")
!33 = !DICompositeType(tag: DW_TAG_class_type, name: "basic_string<char, std::char_traits<char>, std::allocator<char> >", scope: !35, file: !34, line: 1618, flags: DIFlagFwdDecl, identifier: "_ZTSNSt7__cxx1112basic_stringIcSt11char_traitsIcESaIcEEE")
!34 = !DIFile(filename: "/usr/lib64/gcc/x86_64-pc-linux-gnu/10.2.0/../../../../include/c++/10.2.0/bits/basic_string.tcc", directory: "")
!35 = !DINamespace(name: "__cxx11", scope: !2, exportSymbols: true)
!36 = !DIBasicType(name: "unsigned int", size: 32, encoding: DW_ATE_unsigned)
!37 = !{!38}
!38 = !DIEnumerator(name: "_S_local_capacity", value: 15, isUnsigned: true)
!39 = !{!40, !41, !49, !55, !92, !152, !204, !208, !228, !232, !235, !78, !33}
!40 = !DIDerivedType(tag: DW_TAG_pointer_type, baseType: null, size: 64)
!41 = !DISubprogram(name: "perror", scope: !42, file: !42, line: 780, type: !43, flags: DIFlagPrototyped, spFlags: DISPFlagOptimized, retainedNodes: !48)
!42 = !DIFile(filename: "/usr/include/stdio.h", directory: "")
!43 = !DISubroutineType(types: !44)
!44 = !{null, !45}
!45 = !DIDerivedType(tag: DW_TAG_pointer_type, baseType: !46, size: 64)
!46 = !DIDerivedType(tag: DW_TAG_const_type, baseType: !47)
!47 = !DIBasicType(name: "char", size: 8, encoding: DW_ATE_signed_char)
!48 = !{}
!49 = !DISubprogram(name: "pthread_join", scope: !50, file: !50, line: 217, type: !51, flags: DIFlagPrototyped, spFlags: DISPFlagOptimized, retainedNodes: !48)
!50 = !DIFile(filename: "/usr/include/pthread.h", directory: "")
!51 = !DISubroutineType(types: !52)
!52 = !{!11, !53, !54}
!53 = !DIBasicType(name: "long unsigned int", size: 64, encoding: DW_ATE_unsigned)
!54 = !DIDerivedType(tag: DW_TAG_pointer_type, baseType: !40, size: 64)
!55 = !DISubprogram(name: "pthread_rwlock_init", scope: !50, file: !50, line: 904, type: !56, flags: DIFlagPrototyped, spFlags: DISPFlagOptimized, retainedNodes: !48)
!56 = !DISubroutineType(types: !57)
!57 = !{!11, !58, !89}
!58 = !DIDerivedType(tag: DW_TAG_pointer_type, baseType: !59, size: 64)
!59 = distinct !DICompositeType(tag: DW_TAG_union_type, file: !60, line: 86, size: 448, flags: DIFlagTypePassByValue, elements: !61, identifier: "_ZTS16pthread_rwlock_t")
!60 = !DIFile(filename: "/usr/include/bits/pthreadtypes.h", directory: "")
!61 = !{!62, !83, !87}
!62 = !DIDerivedType(tag: DW_TAG_member, name: "__data", scope: !59, file: !60, line: 88, baseType: !63, size: 448)
!63 = distinct !DICompositeType(tag: DW_TAG_structure_type, name: "__pthread_rwlock_arch_t", file: !64, line: 23, size: 448, flags: DIFlagTypePassByValue, elements: !65, identifier: "_ZTS23__pthread_rwlock_arch_t")
!64 = !DIFile(filename: "/usr/include/bits/struct_rwlock.h", directory: "")
!65 = !{!66, !67, !68, !69, !70, !71, !72, !73, !74, !76, !81, !82}
!66 = !DIDerivedType(tag: DW_TAG_member, name: "__readers", scope: !63, file: !64, line: 25, baseType: !36, size: 32)
!67 = !DIDerivedType(tag: DW_TAG_member, name: "__writers", scope: !63, file: !64, line: 26, baseType: !36, size: 32, offset: 32)
!68 = !DIDerivedType(tag: DW_TAG_member, name: "__wrphase_futex", scope: !63, file: !64, line: 27, baseType: !36, size: 32, offset: 64)
!69 = !DIDerivedType(tag: DW_TAG_member, name: "__writers_futex", scope: !63, file: !64, line: 28, baseType: !36, size: 32, offset: 96)
!70 = !DIDerivedType(tag: DW_TAG_member, name: "__pad3", scope: !63, file: !64, line: 29, baseType: !36, size: 32, offset: 128)
!71 = !DIDerivedType(tag: DW_TAG_member, name: "__pad4", scope: !63, file: !64, line: 30, baseType: !36, size: 32, offset: 160)
!72 = !DIDerivedType(tag: DW_TAG_member, name: "__cur_writer", scope: !63, file: !64, line: 32, baseType: !11, size: 32, offset: 192)
!73 = !DIDerivedType(tag: DW_TAG_member, name: "__shared", scope: !63, file: !64, line: 33, baseType: !11, size: 32, offset: 224)
!74 = !DIDerivedType(tag: DW_TAG_member, name: "__rwelision", scope: !63, file: !64, line: 34, baseType: !75, size: 8, offset: 256)
!75 = !DIBasicType(name: "signed char", size: 8, encoding: DW_ATE_signed_char)
!76 = !DIDerivedType(tag: DW_TAG_member, name: "__pad1", scope: !63, file: !64, line: 39, baseType: !77, size: 56, offset: 264)
!77 = !DICompositeType(tag: DW_TAG_array_type, baseType: !78, size: 56, elements: !79)
!78 = !DIBasicType(name: "unsigned char", size: 8, encoding: DW_ATE_unsigned_char)
!79 = !{!80}
!80 = !DISubrange(count: 7)
!81 = !DIDerivedType(tag: DW_TAG_member, name: "__pad2", scope: !63, file: !64, line: 42, baseType: !53, size: 64, offset: 320)
!82 = !DIDerivedType(tag: DW_TAG_member, name: "__flags", scope: !63, file: !64, line: 45, baseType: !36, size: 32, offset: 384)
!83 = !DIDerivedType(tag: DW_TAG_member, name: "__size", scope: !59, file: !60, line: 89, baseType: !84, size: 448)
!84 = !DICompositeType(tag: DW_TAG_array_type, baseType: !47, size: 448, elements: !85)
!85 = !{!86}
!86 = !DISubrange(count: 56)
!87 = !DIDerivedType(tag: DW_TAG_member, name: "__align", scope: !59, file: !60, line: 90, baseType: !88, size: 64)
!88 = !DIBasicType(name: "long int", size: 64, encoding: DW_ATE_signed)
!89 = !DIDerivedType(tag: DW_TAG_pointer_type, baseType: !90, size: 64)
!90 = !DIDerivedType(tag: DW_TAG_const_type, baseType: !91)
!91 = !DICompositeType(tag: DW_TAG_union_type, file: !60, line: 93, flags: DIFlagFwdDecl, identifier: "_ZTS20pthread_rwlockattr_t")
!92 = !DIDerivedType(tag: DW_TAG_typedef, name: "size_type", scope: !33, file: !32, line: 88, baseType: !93)
!93 = !DIDerivedType(tag: DW_TAG_typedef, name: "size_type", scope: !95, file: !94, line: 59, baseType: !126)
!94 = !DIFile(filename: "/usr/lib64/gcc/x86_64-pc-linux-gnu/10.2.0/../../../../include/c++/10.2.0/ext/alloc_traits.h", directory: "")
!95 = distinct !DICompositeType(tag: DW_TAG_structure_type, name: "__alloc_traits<std::allocator<char>, char>", scope: !96, file: !94, line: 48, size: 8, flags: DIFlagTypePassByValue, elements: !97, templateParams: !150, identifier: "_ZTSN9__gnu_cxx14__alloc_traitsISaIcEcEE")
!96 = !DINamespace(name: "__gnu_cxx", scope: null)
!97 = !{!98, !134, !139, !143, !146, !147, !148, !149}
!98 = !DIDerivedType(tag: DW_TAG_inheritance, scope: !95, baseType: !99, extraData: i32 0)
!99 = distinct !DICompositeType(tag: DW_TAG_structure_type, name: "allocator_traits<std::allocator<char> >", scope: !2, file: !100, line: 407, size: 8, flags: DIFlagTypePassByValue, elements: !101, templateParams: !132, identifier: "_ZTSSt16allocator_traitsISaIcEE")
!100 = !DIFile(filename: "/usr/lib64/gcc/x86_64-pc-linux-gnu/10.2.0/../../../../include/c++/10.2.0/bits/alloc_traits.h", directory: "")
!101 = !{!102, !114, !120, !123, !129}
!102 = !DISubprogram(name: "allocate", linkageName: "_ZNSt16allocator_traitsISaIcEE8allocateERS0_m", scope: !99, file: !100, line: 459, type: !103, scopeLine: 459, flags: DIFlagPrototyped | DIFlagStaticMember, spFlags: DISPFlagOptimized)
!103 = !DISubroutineType(types: !104)
!104 = !{!105, !107, !111}
!105 = !DIDerivedType(tag: DW_TAG_typedef, name: "pointer", scope: !99, file: !100, line: 416, baseType: !106)
!106 = !DIDerivedType(tag: DW_TAG_pointer_type, baseType: !47, size: 64)
!107 = !DIDerivedType(tag: DW_TAG_reference_type, baseType: !108, size: 64)
!108 = !DIDerivedType(tag: DW_TAG_typedef, name: "allocator_type", scope: !99, file: !100, line: 410, baseType: !109)
!109 = !DICompositeType(tag: DW_TAG_class_type, name: "allocator<char>", scope: !2, file: !110, line: 249, flags: DIFlagFwdDecl, identifier: "_ZTSSaIcE")
!110 = !DIFile(filename: "/usr/lib64/gcc/x86_64-pc-linux-gnu/10.2.0/../../../../include/c++/10.2.0/bits/allocator.h", directory: "")
!111 = !DIDerivedType(tag: DW_TAG_typedef, name: "size_type", file: !100, line: 431, baseType: !112)
!112 = !DIDerivedType(tag: DW_TAG_typedef, name: "size_t", scope: !2, file: !113, line: 260, baseType: !53)
!113 = !DIFile(filename: "/usr/lib64/gcc/x86_64-pc-linux-gnu/10.2.0/../../../../include/c++/10.2.0/x86_64-pc-linux-gnu/bits/c++config.h", directory: "")
!114 = !DISubprogram(name: "allocate", linkageName: "_ZNSt16allocator_traitsISaIcEE8allocateERS0_mPKv", scope: !99, file: !100, line: 473, type: !115, scopeLine: 473, flags: DIFlagPrototyped | DIFlagStaticMember, spFlags: DISPFlagOptimized)
!115 = !DISubroutineType(types: !116)
!116 = !{!105, !107, !111, !117}
!117 = !DIDerivedType(tag: DW_TAG_typedef, name: "const_void_pointer", file: !100, line: 425, baseType: !118)
!118 = !DIDerivedType(tag: DW_TAG_pointer_type, baseType: !119, size: 64)
!119 = !DIDerivedType(tag: DW_TAG_const_type, baseType: null)
!120 = !DISubprogram(name: "deallocate", linkageName: "_ZNSt16allocator_traitsISaIcEE10deallocateERS0_Pcm", scope: !99, file: !100, line: 491, type: !121, scopeLine: 491, flags: DIFlagPrototyped | DIFlagStaticMember, spFlags: DISPFlagOptimized)
!121 = !DISubroutineType(types: !122)
!122 = !{null, !107, !105, !111}
!123 = !DISubprogram(name: "max_size", linkageName: "_ZNSt16allocator_traitsISaIcEE8max_sizeERKS0_", scope: !99, file: !100, line: 543, type: !124, scopeLine: 543, flags: DIFlagPrototyped | DIFlagStaticMember, spFlags: DISPFlagOptimized)
!124 = !DISubroutineType(types: !125)
!125 = !{!126, !127}
!126 = !DIDerivedType(tag: DW_TAG_typedef, name: "size_type", scope: !99, file: !100, line: 431, baseType: !112)
!127 = !DIDerivedType(tag: DW_TAG_reference_type, baseType: !128, size: 64)
!128 = !DIDerivedType(tag: DW_TAG_const_type, baseType: !108)
!129 = !DISubprogram(name: "select_on_container_copy_construction", linkageName: "_ZNSt16allocator_traitsISaIcEE37select_on_container_copy_constructionERKS0_", scope: !99, file: !100, line: 558, type: !130, scopeLine: 558, flags: DIFlagPrototyped | DIFlagStaticMember, spFlags: DISPFlagOptimized)
!130 = !DISubroutineType(types: !131)
!131 = !{!108, !127}
!132 = !{!133}
!133 = !DITemplateTypeParameter(name: "_Alloc", type: !109)
!134 = !DISubprogram(name: "_S_select_on_copy", linkageName: "_ZN9__gnu_cxx14__alloc_traitsISaIcEcE17_S_select_on_copyERKS1_", scope: !95, file: !94, line: 97, type: !135, scopeLine: 97, flags: DIFlagPrototyped | DIFlagStaticMember, spFlags: DISPFlagOptimized)
!135 = !DISubroutineType(types: !136)
!136 = !{!109, !137}
!137 = !DIDerivedType(tag: DW_TAG_reference_type, baseType: !138, size: 64)
!138 = !DIDerivedType(tag: DW_TAG_const_type, baseType: !109)
!139 = !DISubprogram(name: "_S_on_swap", linkageName: "_ZN9__gnu_cxx14__alloc_traitsISaIcEcE10_S_on_swapERS1_S3_", scope: !95, file: !94, line: 100, type: !140, scopeLine: 100, flags: DIFlagPrototyped | DIFlagStaticMember, spFlags: DISPFlagOptimized)
!140 = !DISubroutineType(types: !141)
!141 = !{null, !142, !142}
!142 = !DIDerivedType(tag: DW_TAG_reference_type, baseType: !109, size: 64)
!143 = !DISubprogram(name: "_S_propagate_on_copy_assign", linkageName: "_ZN9__gnu_cxx14__alloc_traitsISaIcEcE27_S_propagate_on_copy_assignEv", scope: !95, file: !94, line: 103, type: !144, scopeLine: 103, flags: DIFlagPrototyped | DIFlagStaticMember, spFlags: DISPFlagOptimized)
!144 = !DISubroutineType(types: !145)
!145 = !{!13}
!146 = !DISubprogram(name: "_S_propagate_on_move_assign", linkageName: "_ZN9__gnu_cxx14__alloc_traitsISaIcEcE27_S_propagate_on_move_assignEv", scope: !95, file: !94, line: 106, type: !144, scopeLine: 106, flags: DIFlagPrototyped | DIFlagStaticMember, spFlags: DISPFlagOptimized)
!147 = !DISubprogram(name: "_S_propagate_on_swap", linkageName: "_ZN9__gnu_cxx14__alloc_traitsISaIcEcE20_S_propagate_on_swapEv", scope: !95, file: !94, line: 109, type: !144, scopeLine: 109, flags: DIFlagPrototyped | DIFlagStaticMember, spFlags: DISPFlagOptimized)
!148 = !DISubprogram(name: "_S_always_equal", linkageName: "_ZN9__gnu_cxx14__alloc_traitsISaIcEcE15_S_always_equalEv", scope: !95, file: !94, line: 112, type: !144, scopeLine: 112, flags: DIFlagPrototyped | DIFlagStaticMember, spFlags: DISPFlagOptimized)
!149 = !DISubprogram(name: "_S_nothrow_move", linkageName: "_ZN9__gnu_cxx14__alloc_traitsISaIcEcE15_S_nothrow_moveEv", scope: !95, file: !94, line: 115, type: !144, scopeLine: 115, flags: DIFlagPrototyped | DIFlagStaticMember, spFlags: DISPFlagOptimized)
!150 = !{!133, !151}
!151 = !DITemplateTypeParameter(type: !47)
!152 = !DIDerivedType(tag: DW_TAG_pointer_type, baseType: !153, size: 64)
!153 = !DIDerivedType(tag: DW_TAG_typedef, name: "char_type", scope: !155, file: !154, line: 311, baseType: !47)
!154 = !DIFile(filename: "/usr/lib64/gcc/x86_64-pc-linux-gnu/10.2.0/../../../../include/c++/10.2.0/bits/char_traits.h", directory: "")
!155 = distinct !DICompositeType(tag: DW_TAG_structure_type, name: "char_traits<char>", scope: !2, file: !154, line: 309, size: 8, flags: DIFlagTypePassByValue, elements: !156, templateParams: !202, identifier: "_ZTSSt11char_traitsIcE")
!156 = !{!157, !163, !166, !167, !171, !174, !177, !180, !181, !184, !190, !193, !196, !199}
!157 = !DISubprogram(name: "assign", linkageName: "_ZNSt11char_traitsIcE6assignERcRKc", scope: !155, file: !154, line: 321, type: !158, scopeLine: 321, flags: DIFlagPrototyped | DIFlagStaticMember, spFlags: DISPFlagOptimized)
!158 = !DISubroutineType(types: !159)
!159 = !{null, !160, !161}
!160 = !DIDerivedType(tag: DW_TAG_reference_type, baseType: !153, size: 64)
!161 = !DIDerivedType(tag: DW_TAG_reference_type, baseType: !162, size: 64)
!162 = !DIDerivedType(tag: DW_TAG_const_type, baseType: !153)
!163 = !DISubprogram(name: "eq", linkageName: "_ZNSt11char_traitsIcE2eqERKcS2_", scope: !155, file: !154, line: 325, type: !164, scopeLine: 325, flags: DIFlagPrototyped | DIFlagStaticMember, spFlags: DISPFlagOptimized)
!164 = !DISubroutineType(types: !165)
!165 = !{!13, !161, !161}
!166 = !DISubprogram(name: "lt", linkageName: "_ZNSt11char_traitsIcE2ltERKcS2_", scope: !155, file: !154, line: 329, type: !164, scopeLine: 329, flags: DIFlagPrototyped | DIFlagStaticMember, spFlags: DISPFlagOptimized)
!167 = !DISubprogram(name: "compare", linkageName: "_ZNSt11char_traitsIcE7compareEPKcS2_m", scope: !155, file: !154, line: 337, type: !168, scopeLine: 337, flags: DIFlagPrototyped | DIFlagStaticMember, spFlags: DISPFlagOptimized)
!168 = !DISubroutineType(types: !169)
!169 = !{!11, !170, !170, !112}
!170 = !DIDerivedType(tag: DW_TAG_pointer_type, baseType: !162, size: 64)
!171 = !DISubprogram(name: "length", linkageName: "_ZNSt11char_traitsIcE6lengthEPKc", scope: !155, file: !154, line: 351, type: !172, scopeLine: 351, flags: DIFlagPrototyped | DIFlagStaticMember, spFlags: DISPFlagOptimized)
!172 = !DISubroutineType(types: !173)
!173 = !{!112, !170}
!174 = !DISubprogram(name: "find", linkageName: "_ZNSt11char_traitsIcE4findEPKcmRS1_", scope: !155, file: !154, line: 361, type: !175, scopeLine: 361, flags: DIFlagPrototyped | DIFlagStaticMember, spFlags: DISPFlagOptimized)
!175 = !DISubroutineType(types: !176)
!176 = !{!170, !170, !112, !161}
!177 = !DISubprogram(name: "move", linkageName: "_ZNSt11char_traitsIcE4moveEPcPKcm", scope: !155, file: !154, line: 375, type: !178, scopeLine: 375, flags: DIFlagPrototyped | DIFlagStaticMember, spFlags: DISPFlagOptimized)
!178 = !DISubroutineType(types: !179)
!179 = !{!152, !152, !170, !112}
!180 = !DISubprogram(name: "copy", linkageName: "_ZNSt11char_traitsIcE4copyEPcPKcm", scope: !155, file: !154, line: 387, type: !178, scopeLine: 387, flags: DIFlagPrototyped | DIFlagStaticMember, spFlags: DISPFlagOptimized)
!181 = !DISubprogram(name: "assign", linkageName: "_ZNSt11char_traitsIcE6assignEPcmc", scope: !155, file: !154, line: 399, type: !182, scopeLine: 399, flags: DIFlagPrototyped | DIFlagStaticMember, spFlags: DISPFlagOptimized)
!182 = !DISubroutineType(types: !183)
!183 = !{!152, !152, !112, !153}
!184 = !DISubprogram(name: "to_char_type", linkageName: "_ZNSt11char_traitsIcE12to_char_typeERKi", scope: !155, file: !154, line: 411, type: !185, scopeLine: 411, flags: DIFlagPrototyped | DIFlagStaticMember, spFlags: DISPFlagOptimized)
!185 = !DISubroutineType(types: !186)
!186 = !{!153, !187}
!187 = !DIDerivedType(tag: DW_TAG_reference_type, baseType: !188, size: 64)
!188 = !DIDerivedType(tag: DW_TAG_const_type, baseType: !189)
!189 = !DIDerivedType(tag: DW_TAG_typedef, name: "int_type", scope: !155, file: !154, line: 312, baseType: !11)
!190 = !DISubprogram(name: "to_int_type", linkageName: "_ZNSt11char_traitsIcE11to_int_typeERKc", scope: !155, file: !154, line: 417, type: !191, scopeLine: 417, flags: DIFlagPrototyped | DIFlagStaticMember, spFlags: DISPFlagOptimized)
!191 = !DISubroutineType(types: !192)
!192 = !{!189, !161}
!193 = !DISubprogram(name: "eq_int_type", linkageName: "_ZNSt11char_traitsIcE11eq_int_typeERKiS2_", scope: !155, file: !154, line: 421, type: !194, scopeLine: 421, flags: DIFlagPrototyped | DIFlagStaticMember, spFlags: DISPFlagOptimized)
!194 = !DISubroutineType(types: !195)
!195 = !{!13, !187, !187}
!196 = !DISubprogram(name: "eof", linkageName: "_ZNSt11char_traitsIcE3eofEv", scope: !155, file: !154, line: 425, type: !197, scopeLine: 425, flags: DIFlagPrototyped | DIFlagStaticMember, spFlags: DISPFlagOptimized)
!197 = !DISubroutineType(types: !198)
!198 = !{!189}
!199 = !DISubprogram(name: "not_eof", linkageName: "_ZNSt11char_traitsIcE7not_eofERKi", scope: !155, file: !154, line: 429, type: !200, scopeLine: 429, flags: DIFlagPrototyped | DIFlagStaticMember, spFlags: DISPFlagOptimized)
!200 = !DISubroutineType(types: !201)
!201 = !{!189, !187}
!202 = !{!203}
!203 = !DITemplateTypeParameter(name: "_CharT", type: !47)
!204 = !DISubprogram(name: "operator delete", linkageName: "_ZdlPv", scope: !205, file: !205, line: 130, type: !206, flags: DIFlagPrototyped, spFlags: DISPFlagOptimized, retainedNodes: !48)
!205 = !DIFile(filename: "/usr/lib64/gcc/x86_64-pc-linux-gnu/10.2.0/../../../../include/c++/10.2.0/new", directory: "")
!206 = !DISubroutineType(types: !207)
!207 = !{null, !40}
!208 = !DIDerivedType(tag: DW_TAG_pointer_type, baseType: !209, size: 64)
!209 = distinct !DICompositeType(tag: DW_TAG_class_type, name: "BulletinRWLock", file: !29, line: 12, size: 704, flags: DIFlagTypePassByReference | DIFlagNonTrivial, elements: !210, identifier: "_ZTS14BulletinRWLock")
!210 = !{!211, !213, !216, !220, !221, !224}
!211 = !DIDerivedType(tag: DW_TAG_member, name: "rwlock_", scope: !209, file: !29, line: 14, baseType: !212, size: 448)
!212 = !DIDerivedType(tag: DW_TAG_typedef, name: "pthread_rwlock_t", file: !60, line: 91, baseType: !59)
!213 = !DIDerivedType(tag: DW_TAG_member, name: "message_", scope: !209, file: !29, line: 15, baseType: !214, size: 256, offset: 448)
!214 = !DIDerivedType(tag: DW_TAG_typedef, name: "string", scope: !2, file: !215, line: 79, baseType: !33)
!215 = !DIFile(filename: "/usr/lib64/gcc/x86_64-pc-linux-gnu/10.2.0/../../../../include/c++/10.2.0/bits/stringfwd.h", directory: "")
!216 = !DISubprogram(name: "BulletinRWLock", scope: !209, file: !29, line: 18, type: !217, scopeLine: 18, flags: DIFlagPublic | DIFlagPrototyped, spFlags: DISPFlagOptimized)
!217 = !DISubroutineType(types: !218)
!218 = !{null, !219}
!219 = !DIDerivedType(tag: DW_TAG_pointer_type, baseType: !209, size: 64, flags: DIFlagArtificial | DIFlagObjectPointer)
!220 = !DISubprogram(name: "~BulletinRWLock", scope: !209, file: !29, line: 20, type: !217, scopeLine: 20, flags: DIFlagPublic | DIFlagPrototyped, spFlags: DISPFlagOptimized)
!221 = !DISubprogram(name: "Read", linkageName: "_ZN14BulletinRWLock4ReadB5cxx11Ev", scope: !209, file: !29, line: 22, type: !222, scopeLine: 22, flags: DIFlagPublic | DIFlagPrototyped, spFlags: DISPFlagOptimized)
!222 = !DISubroutineType(types: !223)
!223 = !{!214, !219}
!224 = !DISubprogram(name: "Update", linkageName: "_ZN14BulletinRWLock6UpdateENSt7__cxx1112basic_stringIcSt11char_traitsIcESaIcEEE", scope: !209, file: !29, line: 28, type: !225, scopeLine: 28, flags: DIFlagPublic | DIFlagPrototyped, spFlags: DISPFlagOptimized)
!225 = !DISubroutineType(types: !226)
!226 = !{null, !219, !227}
!227 = !DIDerivedType(tag: DW_TAG_const_type, baseType: !214)
!228 = !DISubprogram(name: "sleep", scope: !229, file: !229, line: 453, type: !230, flags: DIFlagPrototyped, spFlags: DISPFlagOptimized, retainedNodes: !48)
!229 = !DIFile(filename: "/usr/include/unistd.h", directory: "")
!230 = !DISubroutineType(types: !231)
!231 = !{!36, !36}
!232 = !DISubprogram(name: "pthread_rwlock_wrlock", scope: !50, file: !50, line: 935, type: !233, flags: DIFlagPrototyped, spFlags: DISPFlagOptimized, retainedNodes: !48)
!233 = !DISubroutineType(types: !234)
!234 = !{!11, !58}
!235 = !DISubprogram(name: "pthread_rwlock_unlock", scope: !50, file: !50, line: 957, type: !233, flags: DIFlagPrototyped, spFlags: DISPFlagOptimized, retainedNodes: !48)
!236 = !{!0}
!237 = !{!238, !255, !258, !263, !323, !331, !335, !342, !346, !350, !352, !354, !358, !365, !369, !375, !381, !383, !387, !391, !395, !399, !410, !412, !416, !420, !424, !426, !431, !435, !439, !441, !443, !447, !456, !460, !464, !468, !470, !476, !478, !485, !490, !494, !498, !502, !506, !510, !512, !514, !518, !522, !526, !528, !532, !536, !538, !540, !544, !549, !554, !559, !560, !561, !562, !563, !564, !565, !566, !567, !568, !569, !623, !627, !631, !636, !640, !643, !646, !649, !651, !653, !655, !658, !661, !664, !667, !670, !673, !677, !680, !683, !686, !688, !690, !692, !694, !697, !700, !703, !706, !709, !711, !715, !719, !724, !730, !732, !734, !736, !738, !740, !742, !744, !746, !748, !750, !752, !754, !756, !760, !764, !770, !774, !779, !781, !786, !790, !794, !803, !807, !811, !815, !817, !821, !825, !829, !833, !837, !841, !845, !849, !851, !855, !859, !863, !869, !873, !877, !879, !883, !887, !893, !895, !899, !903, !907, !911, !915, !919, !923, !924, !925, !926, !928, !929, !930, !931, !932, !933, !934, !938, !943, !948, !952, !954, !956, !958, !960, !967, !971, !975, !979, !983, !987, !992, !996, !998, !1002, !1008, !1012, !1017, !1019, !1022, !1024, !1028, !1030, !1032, !1034, !1036, !1040, !1042, !1044, !1048, !1052, !1056, !1060, !1064, !1068, !1070, !1074, !1078, !1082, !1086, !1088, !1090, !1094, !1098, !1099, !1100, !1101, !1102, !1103, !1109, !1112, !1113, !1115, !1117, !1119, !1121, !1125, !1127, !1129, !1131, !1133, !1135, !1137, !1139, !1141, !1145, !1149, !1151, !1155}
!238 = !DIImportedEntity(tag: DW_TAG_imported_declaration, scope: !2, entity: !239, file: !254, line: 64)
!239 = !DIDerivedType(tag: DW_TAG_typedef, name: "mbstate_t", file: !240, line: 6, baseType: !241)
!240 = !DIFile(filename: "/usr/include/bits/types/mbstate_t.h", directory: "")
!241 = !DIDerivedType(tag: DW_TAG_typedef, name: "__mbstate_t", file: !242, line: 21, baseType: !243)
!242 = !DIFile(filename: "/usr/include/bits/types/__mbstate_t.h", directory: "")
!243 = distinct !DICompositeType(tag: DW_TAG_structure_type, file: !242, line: 13, size: 64, flags: DIFlagTypePassByValue, elements: !244, identifier: "_ZTS11__mbstate_t")
!244 = !{!245, !246}
!245 = !DIDerivedType(tag: DW_TAG_member, name: "__count", scope: !243, file: !242, line: 15, baseType: !11, size: 32)
!246 = !DIDerivedType(tag: DW_TAG_member, name: "__value", scope: !243, file: !242, line: 20, baseType: !247, size: 32, offset: 32)
!247 = distinct !DICompositeType(tag: DW_TAG_union_type, scope: !243, file: !242, line: 16, size: 32, flags: DIFlagTypePassByValue, elements: !248, identifier: "_ZTSN11__mbstate_tUt_E")
!248 = !{!249, !250}
!249 = !DIDerivedType(tag: DW_TAG_member, name: "__wch", scope: !247, file: !242, line: 18, baseType: !36, size: 32)
!250 = !DIDerivedType(tag: DW_TAG_member, name: "__wchb", scope: !247, file: !242, line: 19, baseType: !251, size: 32)
!251 = !DICompositeType(tag: DW_TAG_array_type, baseType: !47, size: 32, elements: !252)
!252 = !{!253}
!253 = !DISubrange(count: 4)
!254 = !DIFile(filename: "/usr/lib64/gcc/x86_64-pc-linux-gnu/10.2.0/../../../../include/c++/10.2.0/cwchar", directory: "")
!255 = !DIImportedEntity(tag: DW_TAG_imported_declaration, scope: !2, entity: !256, file: !254, line: 141)
!256 = !DIDerivedType(tag: DW_TAG_typedef, name: "wint_t", file: !257, line: 20, baseType: !36)
!257 = !DIFile(filename: "/usr/include/bits/types/wint_t.h", directory: "")
!258 = !DIImportedEntity(tag: DW_TAG_imported_declaration, scope: !2, entity: !259, file: !254, line: 143)
!259 = !DISubprogram(name: "btowc", scope: !260, file: !260, line: 318, type: !261, flags: DIFlagPrototyped, spFlags: DISPFlagOptimized)
!260 = !DIFile(filename: "/usr/include/wchar.h", directory: "")
!261 = !DISubroutineType(types: !262)
!262 = !{!256, !11}
!263 = !DIImportedEntity(tag: DW_TAG_imported_declaration, scope: !2, entity: !264, file: !254, line: 144)
!264 = !DISubprogram(name: "fgetwc", scope: !260, file: !260, line: 729, type: !265, flags: DIFlagPrototyped, spFlags: DISPFlagOptimized)
!265 = !DISubroutineType(types: !266)
!266 = !{!256, !267}
!267 = !DIDerivedType(tag: DW_TAG_pointer_type, baseType: !268, size: 64)
!268 = !DIDerivedType(tag: DW_TAG_typedef, name: "__FILE", file: !269, line: 5, baseType: !270)
!269 = !DIFile(filename: "/usr/include/bits/types/__FILE.h", directory: "")
!270 = distinct !DICompositeType(tag: DW_TAG_structure_type, name: "_IO_FILE", file: !271, line: 49, size: 1728, flags: DIFlagTypePassByValue, elements: !272, identifier: "_ZTS8_IO_FILE")
!271 = !DIFile(filename: "/usr/include/bits/types/struct_FILE.h", directory: "")
!272 = !{!273, !274, !275, !276, !277, !278, !279, !280, !281, !282, !283, !284, !285, !288, !290, !291, !292, !295, !297, !298, !302, !305, !307, !310, !313, !314, !315, !318, !319}
!273 = !DIDerivedType(tag: DW_TAG_member, name: "_flags", scope: !270, file: !271, line: 51, baseType: !11, size: 32)
!274 = !DIDerivedType(tag: DW_TAG_member, name: "_IO_read_ptr", scope: !270, file: !271, line: 54, baseType: !106, size: 64, offset: 64)
!275 = !DIDerivedType(tag: DW_TAG_member, name: "_IO_read_end", scope: !270, file: !271, line: 55, baseType: !106, size: 64, offset: 128)
!276 = !DIDerivedType(tag: DW_TAG_member, name: "_IO_read_base", scope: !270, file: !271, line: 56, baseType: !106, size: 64, offset: 192)
!277 = !DIDerivedType(tag: DW_TAG_member, name: "_IO_write_base", scope: !270, file: !271, line: 57, baseType: !106, size: 64, offset: 256)
!278 = !DIDerivedType(tag: DW_TAG_member, name: "_IO_write_ptr", scope: !270, file: !271, line: 58, baseType: !106, size: 64, offset: 320)
!279 = !DIDerivedType(tag: DW_TAG_member, name: "_IO_write_end", scope: !270, file: !271, line: 59, baseType: !106, size: 64, offset: 384)
!280 = !DIDerivedType(tag: DW_TAG_member, name: "_IO_buf_base", scope: !270, file: !271, line: 60, baseType: !106, size: 64, offset: 448)
!281 = !DIDerivedType(tag: DW_TAG_member, name: "_IO_buf_end", scope: !270, file: !271, line: 61, baseType: !106, size: 64, offset: 512)
!282 = !DIDerivedType(tag: DW_TAG_member, name: "_IO_save_base", scope: !270, file: !271, line: 64, baseType: !106, size: 64, offset: 576)
!283 = !DIDerivedType(tag: DW_TAG_member, name: "_IO_backup_base", scope: !270, file: !271, line: 65, baseType: !106, size: 64, offset: 640)
!284 = !DIDerivedType(tag: DW_TAG_member, name: "_IO_save_end", scope: !270, file: !271, line: 66, baseType: !106, size: 64, offset: 704)
!285 = !DIDerivedType(tag: DW_TAG_member, name: "_markers", scope: !270, file: !271, line: 68, baseType: !286, size: 64, offset: 768)
!286 = !DIDerivedType(tag: DW_TAG_pointer_type, baseType: !287, size: 64)
!287 = !DICompositeType(tag: DW_TAG_structure_type, name: "_IO_marker", file: !271, line: 36, flags: DIFlagFwdDecl, identifier: "_ZTS10_IO_marker")
!288 = !DIDerivedType(tag: DW_TAG_member, name: "_chain", scope: !270, file: !271, line: 70, baseType: !289, size: 64, offset: 832)
!289 = !DIDerivedType(tag: DW_TAG_pointer_type, baseType: !270, size: 64)
!290 = !DIDerivedType(tag: DW_TAG_member, name: "_fileno", scope: !270, file: !271, line: 72, baseType: !11, size: 32, offset: 896)
!291 = !DIDerivedType(tag: DW_TAG_member, name: "_flags2", scope: !270, file: !271, line: 73, baseType: !11, size: 32, offset: 928)
!292 = !DIDerivedType(tag: DW_TAG_member, name: "_old_offset", scope: !270, file: !271, line: 74, baseType: !293, size: 64, offset: 960)
!293 = !DIDerivedType(tag: DW_TAG_typedef, name: "__off_t", file: !294, line: 152, baseType: !88)
!294 = !DIFile(filename: "/usr/include/bits/types.h", directory: "")
!295 = !DIDerivedType(tag: DW_TAG_member, name: "_cur_column", scope: !270, file: !271, line: 77, baseType: !296, size: 16, offset: 1024)
!296 = !DIBasicType(name: "unsigned short", size: 16, encoding: DW_ATE_unsigned)
!297 = !DIDerivedType(tag: DW_TAG_member, name: "_vtable_offset", scope: !270, file: !271, line: 78, baseType: !75, size: 8, offset: 1040)
!298 = !DIDerivedType(tag: DW_TAG_member, name: "_shortbuf", scope: !270, file: !271, line: 79, baseType: !299, size: 8, offset: 1048)
!299 = !DICompositeType(tag: DW_TAG_array_type, baseType: !47, size: 8, elements: !300)
!300 = !{!301}
!301 = !DISubrange(count: 1)
!302 = !DIDerivedType(tag: DW_TAG_member, name: "_lock", scope: !270, file: !271, line: 81, baseType: !303, size: 64, offset: 1088)
!303 = !DIDerivedType(tag: DW_TAG_pointer_type, baseType: !304, size: 64)
!304 = !DIDerivedType(tag: DW_TAG_typedef, name: "_IO_lock_t", file: !271, line: 43, baseType: null)
!305 = !DIDerivedType(tag: DW_TAG_member, name: "_offset", scope: !270, file: !271, line: 89, baseType: !306, size: 64, offset: 1152)
!306 = !DIDerivedType(tag: DW_TAG_typedef, name: "__off64_t", file: !294, line: 153, baseType: !88)
!307 = !DIDerivedType(tag: DW_TAG_member, name: "_codecvt", scope: !270, file: !271, line: 91, baseType: !308, size: 64, offset: 1216)
!308 = !DIDerivedType(tag: DW_TAG_pointer_type, baseType: !309, size: 64)
!309 = !DICompositeType(tag: DW_TAG_structure_type, name: "_IO_codecvt", file: !271, line: 37, flags: DIFlagFwdDecl, identifier: "_ZTS11_IO_codecvt")
!310 = !DIDerivedType(tag: DW_TAG_member, name: "_wide_data", scope: !270, file: !271, line: 92, baseType: !311, size: 64, offset: 1280)
!311 = !DIDerivedType(tag: DW_TAG_pointer_type, baseType: !312, size: 64)
!312 = !DICompositeType(tag: DW_TAG_structure_type, name: "_IO_wide_data", file: !271, line: 38, flags: DIFlagFwdDecl, identifier: "_ZTS13_IO_wide_data")
!313 = !DIDerivedType(tag: DW_TAG_member, name: "_freeres_list", scope: !270, file: !271, line: 93, baseType: !289, size: 64, offset: 1344)
!314 = !DIDerivedType(tag: DW_TAG_member, name: "_freeres_buf", scope: !270, file: !271, line: 94, baseType: !40, size: 64, offset: 1408)
!315 = !DIDerivedType(tag: DW_TAG_member, name: "__pad5", scope: !270, file: !271, line: 95, baseType: !316, size: 64, offset: 1472)
!316 = !DIDerivedType(tag: DW_TAG_typedef, name: "size_t", file: !317, line: 46, baseType: !53)
!317 = !DIFile(filename: "OpenRace-env/install/lib/clang/10.0.1/include/stddef.h", directory: "/home/brad/Code")
!318 = !DIDerivedType(tag: DW_TAG_member, name: "_mode", scope: !270, file: !271, line: 96, baseType: !11, size: 32, offset: 1536)
!319 = !DIDerivedType(tag: DW_TAG_member, name: "_unused2", scope: !270, file: !271, line: 98, baseType: !320, size: 160, offset: 1568)
!320 = !DICompositeType(tag: DW_TAG_array_type, baseType: !47, size: 160, elements: !321)
!321 = !{!322}
!322 = !DISubrange(count: 20)
!323 = !DIImportedEntity(tag: DW_TAG_imported_declaration, scope: !2, entity: !324, file: !254, line: 145)
!324 = !DISubprogram(name: "fgetws", scope: !260, file: !260, line: 758, type: !325, flags: DIFlagPrototyped, spFlags: DISPFlagOptimized)
!325 = !DISubroutineType(types: !326)
!326 = !{!327, !329, !11, !330}
!327 = !DIDerivedType(tag: DW_TAG_pointer_type, baseType: !328, size: 64)
!328 = !DIBasicType(name: "wchar_t", size: 32, encoding: DW_ATE_signed)
!329 = !DIDerivedType(tag: DW_TAG_restrict_type, baseType: !327)
!330 = !DIDerivedType(tag: DW_TAG_restrict_type, baseType: !267)
!331 = !DIImportedEntity(tag: DW_TAG_imported_declaration, scope: !2, entity: !332, file: !254, line: 146)
!332 = !DISubprogram(name: "fputwc", scope: !260, file: !260, line: 743, type: !333, flags: DIFlagPrototyped, spFlags: DISPFlagOptimized)
!333 = !DISubroutineType(types: !334)
!334 = !{!256, !328, !267}
!335 = !DIImportedEntity(tag: DW_TAG_imported_declaration, scope: !2, entity: !336, file: !254, line: 147)
!336 = !DISubprogram(name: "fputws", scope: !260, file: !260, line: 765, type: !337, flags: DIFlagPrototyped, spFlags: DISPFlagOptimized)
!337 = !DISubroutineType(types: !338)
!338 = !{!11, !339, !330}
!339 = !DIDerivedType(tag: DW_TAG_restrict_type, baseType: !340)
!340 = !DIDerivedType(tag: DW_TAG_pointer_type, baseType: !341, size: 64)
!341 = !DIDerivedType(tag: DW_TAG_const_type, baseType: !328)
!342 = !DIImportedEntity(tag: DW_TAG_imported_declaration, scope: !2, entity: !343, file: !254, line: 148)
!343 = !DISubprogram(name: "fwide", scope: !260, file: !260, line: 573, type: !344, flags: DIFlagPrototyped, spFlags: DISPFlagOptimized)
!344 = !DISubroutineType(types: !345)
!345 = !{!11, !267, !11}
!346 = !DIImportedEntity(tag: DW_TAG_imported_declaration, scope: !2, entity: !347, file: !254, line: 149)
!347 = !DISubprogram(name: "fwprintf", scope: !260, file: !260, line: 580, type: !348, flags: DIFlagPrototyped, spFlags: DISPFlagOptimized)
!348 = !DISubroutineType(types: !349)
!349 = !{!11, !330, !339, null}
!350 = !DIImportedEntity(tag: DW_TAG_imported_declaration, scope: !2, entity: !351, file: !254, line: 150)
!351 = !DISubprogram(name: "fwscanf", linkageName: "__isoc99_fwscanf", scope: !260, file: !260, line: 642, type: !348, flags: DIFlagPrototyped, spFlags: DISPFlagOptimized)
!352 = !DIImportedEntity(tag: DW_TAG_imported_declaration, scope: !2, entity: !353, file: !254, line: 151)
!353 = !DISubprogram(name: "getwc", scope: !260, file: !260, line: 730, type: !265, flags: DIFlagPrototyped, spFlags: DISPFlagOptimized)
!354 = !DIImportedEntity(tag: DW_TAG_imported_declaration, scope: !2, entity: !355, file: !254, line: 152)
!355 = !DISubprogram(name: "getwchar", scope: !260, file: !260, line: 736, type: !356, flags: DIFlagPrototyped, spFlags: DISPFlagOptimized)
!356 = !DISubroutineType(types: !357)
!357 = !{!256}
!358 = !DIImportedEntity(tag: DW_TAG_imported_declaration, scope: !2, entity: !359, file: !254, line: 153)
!359 = !DISubprogram(name: "mbrlen", scope: !260, file: !260, line: 329, type: !360, flags: DIFlagPrototyped, spFlags: DISPFlagOptimized)
!360 = !DISubroutineType(types: !361)
!361 = !{!316, !362, !316, !363}
!362 = !DIDerivedType(tag: DW_TAG_restrict_type, baseType: !45)
!363 = !DIDerivedType(tag: DW_TAG_restrict_type, baseType: !364)
!364 = !DIDerivedType(tag: DW_TAG_pointer_type, baseType: !239, size: 64)
!365 = !DIImportedEntity(tag: DW_TAG_imported_declaration, scope: !2, entity: !366, file: !254, line: 154)
!366 = !DISubprogram(name: "mbrtowc", scope: !260, file: !260, line: 296, type: !367, flags: DIFlagPrototyped, spFlags: DISPFlagOptimized)
!367 = !DISubroutineType(types: !368)
!368 = !{!316, !329, !362, !316, !363}
!369 = !DIImportedEntity(tag: DW_TAG_imported_declaration, scope: !2, entity: !370, file: !254, line: 155)
!370 = !DISubprogram(name: "mbsinit", scope: !260, file: !260, line: 292, type: !371, flags: DIFlagPrototyped, spFlags: DISPFlagOptimized)
!371 = !DISubroutineType(types: !372)
!372 = !{!11, !373}
!373 = !DIDerivedType(tag: DW_TAG_pointer_type, baseType: !374, size: 64)
!374 = !DIDerivedType(tag: DW_TAG_const_type, baseType: !239)
!375 = !DIImportedEntity(tag: DW_TAG_imported_declaration, scope: !2, entity: !376, file: !254, line: 156)
!376 = !DISubprogram(name: "mbsrtowcs", scope: !260, file: !260, line: 337, type: !377, flags: DIFlagPrototyped, spFlags: DISPFlagOptimized)
!377 = !DISubroutineType(types: !378)
!378 = !{!316, !329, !379, !316, !363}
!379 = !DIDerivedType(tag: DW_TAG_restrict_type, baseType: !380)
!380 = !DIDerivedType(tag: DW_TAG_pointer_type, baseType: !45, size: 64)
!381 = !DIImportedEntity(tag: DW_TAG_imported_declaration, scope: !2, entity: !382, file: !254, line: 157)
!382 = !DISubprogram(name: "putwc", scope: !260, file: !260, line: 744, type: !333, flags: DIFlagPrototyped, spFlags: DISPFlagOptimized)
!383 = !DIImportedEntity(tag: DW_TAG_imported_declaration, scope: !2, entity: !384, file: !254, line: 158)
!384 = !DISubprogram(name: "putwchar", scope: !260, file: !260, line: 750, type: !385, flags: DIFlagPrototyped, spFlags: DISPFlagOptimized)
!385 = !DISubroutineType(types: !386)
!386 = !{!256, !328}
!387 = !DIImportedEntity(tag: DW_TAG_imported_declaration, scope: !2, entity: !388, file: !254, line: 160)
!388 = !DISubprogram(name: "swprintf", scope: !260, file: !260, line: 590, type: !389, flags: DIFlagPrototyped, spFlags: DISPFlagOptimized)
!389 = !DISubroutineType(types: !390)
!390 = !{!11, !329, !316, !339, null}
!391 = !DIImportedEntity(tag: DW_TAG_imported_declaration, scope: !2, entity: !392, file: !254, line: 162)
!392 = !DISubprogram(name: "swscanf", linkageName: "__isoc99_swscanf", scope: !260, file: !260, line: 649, type: !393, flags: DIFlagPrototyped, spFlags: DISPFlagOptimized)
!393 = !DISubroutineType(types: !394)
!394 = !{!11, !339, !339, null}
!395 = !DIImportedEntity(tag: DW_TAG_imported_declaration, scope: !2, entity: !396, file: !254, line: 163)
!396 = !DISubprogram(name: "ungetwc", scope: !260, file: !260, line: 773, type: !397, flags: DIFlagPrototyped, spFlags: DISPFlagOptimized)
!397 = !DISubroutineType(types: !398)
!398 = !{!256, !256, !267}
!399 = !DIImportedEntity(tag: DW_TAG_imported_declaration, scope: !2, entity: !400, file: !254, line: 164)
!400 = !DISubprogram(name: "vfwprintf", scope: !260, file: !260, line: 598, type: !401, flags: DIFlagPrototyped, spFlags: DISPFlagOptimized)
!401 = !DISubroutineType(types: !402)
!402 = !{!11, !330, !339, !403}
!403 = !DIDerivedType(tag: DW_TAG_pointer_type, baseType: !404, size: 64)
!404 = distinct !DICompositeType(tag: DW_TAG_structure_type, name: "__va_list_tag", file: !29, size: 192, flags: DIFlagTypePassByValue, elements: !405, identifier: "_ZTS13__va_list_tag")
!405 = !{!406, !407, !408, !409}
!406 = !DIDerivedType(tag: DW_TAG_member, name: "gp_offset", scope: !404, file: !29, baseType: !36, size: 32)
!407 = !DIDerivedType(tag: DW_TAG_member, name: "fp_offset", scope: !404, file: !29, baseType: !36, size: 32, offset: 32)
!408 = !DIDerivedType(tag: DW_TAG_member, name: "overflow_arg_area", scope: !404, file: !29, baseType: !40, size: 64, offset: 64)
!409 = !DIDerivedType(tag: DW_TAG_member, name: "reg_save_area", scope: !404, file: !29, baseType: !40, size: 64, offset: 128)
!410 = !DIImportedEntity(tag: DW_TAG_imported_declaration, scope: !2, entity: !411, file: !254, line: 166)
!411 = !DISubprogram(name: "vfwscanf", linkageName: "__isoc99_vfwscanf", scope: !260, file: !260, line: 696, type: !401, flags: DIFlagPrototyped, spFlags: DISPFlagOptimized)
!412 = !DIImportedEntity(tag: DW_TAG_imported_declaration, scope: !2, entity: !413, file: !254, line: 169)
!413 = !DISubprogram(name: "vswprintf", scope: !260, file: !260, line: 611, type: !414, flags: DIFlagPrototyped, spFlags: DISPFlagOptimized)
!414 = !DISubroutineType(types: !415)
!415 = !{!11, !329, !316, !339, !403}
!416 = !DIImportedEntity(tag: DW_TAG_imported_declaration, scope: !2, entity: !417, file: !254, line: 172)
!417 = !DISubprogram(name: "vswscanf", linkageName: "__isoc99_vswscanf", scope: !260, file: !260, line: 703, type: !418, flags: DIFlagPrototyped, spFlags: DISPFlagOptimized)
!418 = !DISubroutineType(types: !419)
!419 = !{!11, !339, !339, !403}
!420 = !DIImportedEntity(tag: DW_TAG_imported_declaration, scope: !2, entity: !421, file: !254, line: 174)
!421 = !DISubprogram(name: "vwprintf", scope: !260, file: !260, line: 606, type: !422, flags: DIFlagPrototyped, spFlags: DISPFlagOptimized)
!422 = !DISubroutineType(types: !423)
!423 = !{!11, !339, !403}
!424 = !DIImportedEntity(tag: DW_TAG_imported_declaration, scope: !2, entity: !425, file: !254, line: 176)
!425 = !DISubprogram(name: "vwscanf", linkageName: "__isoc99_vwscanf", scope: !260, file: !260, line: 700, type: !422, flags: DIFlagPrototyped, spFlags: DISPFlagOptimized)
!426 = !DIImportedEntity(tag: DW_TAG_imported_declaration, scope: !2, entity: !427, file: !254, line: 178)
!427 = !DISubprogram(name: "wcrtomb", scope: !260, file: !260, line: 301, type: !428, flags: DIFlagPrototyped, spFlags: DISPFlagOptimized)
!428 = !DISubroutineType(types: !429)
!429 = !{!316, !430, !328, !363}
!430 = !DIDerivedType(tag: DW_TAG_restrict_type, baseType: !106)
!431 = !DIImportedEntity(tag: DW_TAG_imported_declaration, scope: !2, entity: !432, file: !254, line: 179)
!432 = !DISubprogram(name: "wcscat", scope: !260, file: !260, line: 97, type: !433, flags: DIFlagPrototyped, spFlags: DISPFlagOptimized)
!433 = !DISubroutineType(types: !434)
!434 = !{!327, !329, !339}
!435 = !DIImportedEntity(tag: DW_TAG_imported_declaration, scope: !2, entity: !436, file: !254, line: 180)
!436 = !DISubprogram(name: "wcscmp", scope: !260, file: !260, line: 106, type: !437, flags: DIFlagPrototyped, spFlags: DISPFlagOptimized)
!437 = !DISubroutineType(types: !438)
!438 = !{!11, !340, !340}
!439 = !DIImportedEntity(tag: DW_TAG_imported_declaration, scope: !2, entity: !440, file: !254, line: 181)
!440 = !DISubprogram(name: "wcscoll", scope: !260, file: !260, line: 131, type: !437, flags: DIFlagPrototyped, spFlags: DISPFlagOptimized)
!441 = !DIImportedEntity(tag: DW_TAG_imported_declaration, scope: !2, entity: !442, file: !254, line: 182)
!442 = !DISubprogram(name: "wcscpy", scope: !260, file: !260, line: 87, type: !433, flags: DIFlagPrototyped, spFlags: DISPFlagOptimized)
!443 = !DIImportedEntity(tag: DW_TAG_imported_declaration, scope: !2, entity: !444, file: !254, line: 183)
!444 = !DISubprogram(name: "wcscspn", scope: !260, file: !260, line: 187, type: !445, flags: DIFlagPrototyped, spFlags: DISPFlagOptimized)
!445 = !DISubroutineType(types: !446)
!446 = !{!316, !340, !340}
!447 = !DIImportedEntity(tag: DW_TAG_imported_declaration, scope: !2, entity: !448, file: !254, line: 184)
!448 = !DISubprogram(name: "wcsftime", scope: !260, file: !260, line: 837, type: !449, flags: DIFlagPrototyped, spFlags: DISPFlagOptimized)
!449 = !DISubroutineType(types: !450)
!450 = !{!316, !329, !316, !339, !451}
!451 = !DIDerivedType(tag: DW_TAG_restrict_type, baseType: !452)
!452 = !DIDerivedType(tag: DW_TAG_pointer_type, baseType: !453, size: 64)
!453 = !DIDerivedType(tag: DW_TAG_const_type, baseType: !454)
!454 = !DICompositeType(tag: DW_TAG_structure_type, name: "tm", file: !455, line: 7, flags: DIFlagFwdDecl, identifier: "_ZTS2tm")
!455 = !DIFile(filename: "/usr/include/bits/types/struct_tm.h", directory: "")
!456 = !DIImportedEntity(tag: DW_TAG_imported_declaration, scope: !2, entity: !457, file: !254, line: 185)
!457 = !DISubprogram(name: "wcslen", scope: !260, file: !260, line: 222, type: !458, flags: DIFlagPrototyped, spFlags: DISPFlagOptimized)
!458 = !DISubroutineType(types: !459)
!459 = !{!316, !340}
!460 = !DIImportedEntity(tag: DW_TAG_imported_declaration, scope: !2, entity: !461, file: !254, line: 186)
!461 = !DISubprogram(name: "wcsncat", scope: !260, file: !260, line: 101, type: !462, flags: DIFlagPrototyped, spFlags: DISPFlagOptimized)
!462 = !DISubroutineType(types: !463)
!463 = !{!327, !329, !339, !316}
!464 = !DIImportedEntity(tag: DW_TAG_imported_declaration, scope: !2, entity: !465, file: !254, line: 187)
!465 = !DISubprogram(name: "wcsncmp", scope: !260, file: !260, line: 109, type: !466, flags: DIFlagPrototyped, spFlags: DISPFlagOptimized)
!466 = !DISubroutineType(types: !467)
!467 = !{!11, !340, !340, !316}
!468 = !DIImportedEntity(tag: DW_TAG_imported_declaration, scope: !2, entity: !469, file: !254, line: 188)
!469 = !DISubprogram(name: "wcsncpy", scope: !260, file: !260, line: 92, type: !462, flags: DIFlagPrototyped, spFlags: DISPFlagOptimized)
!470 = !DIImportedEntity(tag: DW_TAG_imported_declaration, scope: !2, entity: !471, file: !254, line: 189)
!471 = !DISubprogram(name: "wcsrtombs", scope: !260, file: !260, line: 343, type: !472, flags: DIFlagPrototyped, spFlags: DISPFlagOptimized)
!472 = !DISubroutineType(types: !473)
!473 = !{!316, !430, !474, !316, !363}
!474 = !DIDerivedType(tag: DW_TAG_restrict_type, baseType: !475)
!475 = !DIDerivedType(tag: DW_TAG_pointer_type, baseType: !340, size: 64)
!476 = !DIImportedEntity(tag: DW_TAG_imported_declaration, scope: !2, entity: !477, file: !254, line: 190)
!477 = !DISubprogram(name: "wcsspn", scope: !260, file: !260, line: 191, type: !445, flags: DIFlagPrototyped, spFlags: DISPFlagOptimized)
!478 = !DIImportedEntity(tag: DW_TAG_imported_declaration, scope: !2, entity: !479, file: !254, line: 191)
!479 = !DISubprogram(name: "wcstod", scope: !260, file: !260, line: 377, type: !480, flags: DIFlagPrototyped, spFlags: DISPFlagOptimized)
!480 = !DISubroutineType(types: !481)
!481 = !{!482, !339, !483}
!482 = !DIBasicType(name: "double", size: 64, encoding: DW_ATE_float)
!483 = !DIDerivedType(tag: DW_TAG_restrict_type, baseType: !484)
!484 = !DIDerivedType(tag: DW_TAG_pointer_type, baseType: !327, size: 64)
!485 = !DIImportedEntity(tag: DW_TAG_imported_declaration, scope: !2, entity: !486, file: !254, line: 193)
!486 = !DISubprogram(name: "wcstof", scope: !260, file: !260, line: 382, type: !487, flags: DIFlagPrototyped, spFlags: DISPFlagOptimized)
!487 = !DISubroutineType(types: !488)
!488 = !{!489, !339, !483}
!489 = !DIBasicType(name: "float", size: 32, encoding: DW_ATE_float)
!490 = !DIImportedEntity(tag: DW_TAG_imported_declaration, scope: !2, entity: !491, file: !254, line: 195)
!491 = !DISubprogram(name: "wcstok", scope: !260, file: !260, line: 217, type: !492, flags: DIFlagPrototyped, spFlags: DISPFlagOptimized)
!492 = !DISubroutineType(types: !493)
!493 = !{!327, !329, !339, !483}
!494 = !DIImportedEntity(tag: DW_TAG_imported_declaration, scope: !2, entity: !495, file: !254, line: 196)
!495 = !DISubprogram(name: "wcstol", scope: !260, file: !260, line: 428, type: !496, flags: DIFlagPrototyped, spFlags: DISPFlagOptimized)
!496 = !DISubroutineType(types: !497)
!497 = !{!88, !339, !483, !11}
!498 = !DIImportedEntity(tag: DW_TAG_imported_declaration, scope: !2, entity: !499, file: !254, line: 197)
!499 = !DISubprogram(name: "wcstoul", scope: !260, file: !260, line: 433, type: !500, flags: DIFlagPrototyped, spFlags: DISPFlagOptimized)
!500 = !DISubroutineType(types: !501)
!501 = !{!53, !339, !483, !11}
!502 = !DIImportedEntity(tag: DW_TAG_imported_declaration, scope: !2, entity: !503, file: !254, line: 198)
!503 = !DISubprogram(name: "wcsxfrm", scope: !260, file: !260, line: 135, type: !504, flags: DIFlagPrototyped, spFlags: DISPFlagOptimized)
!504 = !DISubroutineType(types: !505)
!505 = !{!316, !329, !339, !316}
!506 = !DIImportedEntity(tag: DW_TAG_imported_declaration, scope: !2, entity: !507, file: !254, line: 199)
!507 = !DISubprogram(name: "wctob", scope: !260, file: !260, line: 324, type: !508, flags: DIFlagPrototyped, spFlags: DISPFlagOptimized)
!508 = !DISubroutineType(types: !509)
!509 = !{!11, !256}
!510 = !DIImportedEntity(tag: DW_TAG_imported_declaration, scope: !2, entity: !511, file: !254, line: 200)
!511 = !DISubprogram(name: "wmemcmp", scope: !260, file: !260, line: 258, type: !466, flags: DIFlagPrototyped, spFlags: DISPFlagOptimized)
!512 = !DIImportedEntity(tag: DW_TAG_imported_declaration, scope: !2, entity: !513, file: !254, line: 201)
!513 = !DISubprogram(name: "wmemcpy", scope: !260, file: !260, line: 262, type: !462, flags: DIFlagPrototyped, spFlags: DISPFlagOptimized)
!514 = !DIImportedEntity(tag: DW_TAG_imported_declaration, scope: !2, entity: !515, file: !254, line: 202)
!515 = !DISubprogram(name: "wmemmove", scope: !260, file: !260, line: 267, type: !516, flags: DIFlagPrototyped, spFlags: DISPFlagOptimized)
!516 = !DISubroutineType(types: !517)
!517 = !{!327, !327, !340, !316}
!518 = !DIImportedEntity(tag: DW_TAG_imported_declaration, scope: !2, entity: !519, file: !254, line: 203)
!519 = !DISubprogram(name: "wmemset", scope: !260, file: !260, line: 271, type: !520, flags: DIFlagPrototyped, spFlags: DISPFlagOptimized)
!520 = !DISubroutineType(types: !521)
!521 = !{!327, !327, !328, !316}
!522 = !DIImportedEntity(tag: DW_TAG_imported_declaration, scope: !2, entity: !523, file: !254, line: 204)
!523 = !DISubprogram(name: "wprintf", scope: !260, file: !260, line: 587, type: !524, flags: DIFlagPrototyped, spFlags: DISPFlagOptimized)
!524 = !DISubroutineType(types: !525)
!525 = !{!11, !339, null}
!526 = !DIImportedEntity(tag: DW_TAG_imported_declaration, scope: !2, entity: !527, file: !254, line: 205)
!527 = !DISubprogram(name: "wscanf", linkageName: "__isoc99_wscanf", scope: !260, file: !260, line: 646, type: !524, flags: DIFlagPrototyped, spFlags: DISPFlagOptimized)
!528 = !DIImportedEntity(tag: DW_TAG_imported_declaration, scope: !2, entity: !529, file: !254, line: 206)
!529 = !DISubprogram(name: "wcschr", scope: !260, file: !260, line: 164, type: !530, flags: DIFlagPrototyped, spFlags: DISPFlagOptimized)
!530 = !DISubroutineType(types: !531)
!531 = !{!327, !340, !328}
!532 = !DIImportedEntity(tag: DW_TAG_imported_declaration, scope: !2, entity: !533, file: !254, line: 207)
!533 = !DISubprogram(name: "wcspbrk", scope: !260, file: !260, line: 201, type: !534, flags: DIFlagPrototyped, spFlags: DISPFlagOptimized)
!534 = !DISubroutineType(types: !535)
!535 = !{!327, !340, !340}
!536 = !DIImportedEntity(tag: DW_TAG_imported_declaration, scope: !2, entity: !537, file: !254, line: 208)
!537 = !DISubprogram(name: "wcsrchr", scope: !260, file: !260, line: 174, type: !530, flags: DIFlagPrototyped, spFlags: DISPFlagOptimized)
!538 = !DIImportedEntity(tag: DW_TAG_imported_declaration, scope: !2, entity: !539, file: !254, line: 209)
!539 = !DISubprogram(name: "wcsstr", scope: !260, file: !260, line: 212, type: !534, flags: DIFlagPrototyped, spFlags: DISPFlagOptimized)
!540 = !DIImportedEntity(tag: DW_TAG_imported_declaration, scope: !2, entity: !541, file: !254, line: 210)
!541 = !DISubprogram(name: "wmemchr", scope: !260, file: !260, line: 253, type: !542, flags: DIFlagPrototyped, spFlags: DISPFlagOptimized)
!542 = !DISubroutineType(types: !543)
!543 = !{!327, !340, !328, !316}
!544 = !DIImportedEntity(tag: DW_TAG_imported_declaration, scope: !96, entity: !545, file: !254, line: 251)
!545 = !DISubprogram(name: "wcstold", scope: !260, file: !260, line: 384, type: !546, flags: DIFlagPrototyped, spFlags: DISPFlagOptimized)
!546 = !DISubroutineType(types: !547)
!547 = !{!548, !339, !483}
!548 = !DIBasicType(name: "long double", size: 128, encoding: DW_ATE_float)
!549 = !DIImportedEntity(tag: DW_TAG_imported_declaration, scope: !96, entity: !550, file: !254, line: 260)
!550 = !DISubprogram(name: "wcstoll", scope: !260, file: !260, line: 441, type: !551, flags: DIFlagPrototyped, spFlags: DISPFlagOptimized)
!551 = !DISubroutineType(types: !552)
!552 = !{!553, !339, !483, !11}
!553 = !DIBasicType(name: "long long int", size: 64, encoding: DW_ATE_signed)
!554 = !DIImportedEntity(tag: DW_TAG_imported_declaration, scope: !96, entity: !555, file: !254, line: 261)
!555 = !DISubprogram(name: "wcstoull", scope: !260, file: !260, line: 448, type: !556, flags: DIFlagPrototyped, spFlags: DISPFlagOptimized)
!556 = !DISubroutineType(types: !557)
!557 = !{!558, !339, !483, !11}
!558 = !DIBasicType(name: "long long unsigned int", size: 64, encoding: DW_ATE_unsigned)
!559 = !DIImportedEntity(tag: DW_TAG_imported_declaration, scope: !2, entity: !545, file: !254, line: 267)
!560 = !DIImportedEntity(tag: DW_TAG_imported_declaration, scope: !2, entity: !550, file: !254, line: 268)
!561 = !DIImportedEntity(tag: DW_TAG_imported_declaration, scope: !2, entity: !555, file: !254, line: 269)
!562 = !DIImportedEntity(tag: DW_TAG_imported_declaration, scope: !2, entity: !486, file: !254, line: 283)
!563 = !DIImportedEntity(tag: DW_TAG_imported_declaration, scope: !2, entity: !411, file: !254, line: 286)
!564 = !DIImportedEntity(tag: DW_TAG_imported_declaration, scope: !2, entity: !417, file: !254, line: 289)
!565 = !DIImportedEntity(tag: DW_TAG_imported_declaration, scope: !2, entity: !425, file: !254, line: 292)
!566 = !DIImportedEntity(tag: DW_TAG_imported_declaration, scope: !2, entity: !545, file: !254, line: 296)
!567 = !DIImportedEntity(tag: DW_TAG_imported_declaration, scope: !2, entity: !550, file: !254, line: 297)
!568 = !DIImportedEntity(tag: DW_TAG_imported_declaration, scope: !2, entity: !555, file: !254, line: 298)
!569 = !DIImportedEntity(tag: DW_TAG_imported_declaration, scope: !2, entity: !570, file: !571, line: 58)
!570 = distinct !DICompositeType(tag: DW_TAG_class_type, name: "exception_ptr", scope: !572, file: !571, line: 80, size: 64, flags: DIFlagTypePassByReference | DIFlagNonTrivial, elements: !573, identifier: "_ZTSNSt15__exception_ptr13exception_ptrE")
!571 = !DIFile(filename: "/usr/lib64/gcc/x86_64-pc-linux-gnu/10.2.0/../../../../include/c++/10.2.0/bits/exception_ptr.h", directory: "")
!572 = !DINamespace(name: "__exception_ptr", scope: !2)
!573 = !{!574, !575, !579, !582, !583, !588, !589, !593, !598, !602, !606, !609, !610, !613, !616}
!574 = !DIDerivedType(tag: DW_TAG_member, name: "_M_exception_object", scope: !570, file: !571, line: 82, baseType: !40, size: 64)
!575 = !DISubprogram(name: "exception_ptr", scope: !570, file: !571, line: 84, type: !576, scopeLine: 84, flags: DIFlagExplicit | DIFlagPrototyped, spFlags: DISPFlagOptimized)
!576 = !DISubroutineType(types: !577)
!577 = !{null, !578, !40}
!578 = !DIDerivedType(tag: DW_TAG_pointer_type, baseType: !570, size: 64, flags: DIFlagArtificial | DIFlagObjectPointer)
!579 = !DISubprogram(name: "_M_addref", linkageName: "_ZNSt15__exception_ptr13exception_ptr9_M_addrefEv", scope: !570, file: !571, line: 86, type: !580, scopeLine: 86, flags: DIFlagPrototyped, spFlags: DISPFlagOptimized)
!580 = !DISubroutineType(types: !581)
!581 = !{null, !578}
!582 = !DISubprogram(name: "_M_release", linkageName: "_ZNSt15__exception_ptr13exception_ptr10_M_releaseEv", scope: !570, file: !571, line: 87, type: !580, scopeLine: 87, flags: DIFlagPrototyped, spFlags: DISPFlagOptimized)
!583 = !DISubprogram(name: "_M_get", linkageName: "_ZNKSt15__exception_ptr13exception_ptr6_M_getEv", scope: !570, file: !571, line: 89, type: !584, scopeLine: 89, flags: DIFlagPrototyped, spFlags: DISPFlagOptimized)
!584 = !DISubroutineType(types: !585)
!585 = !{!40, !586}
!586 = !DIDerivedType(tag: DW_TAG_pointer_type, baseType: !587, size: 64, flags: DIFlagArtificial | DIFlagObjectPointer)
!587 = !DIDerivedType(tag: DW_TAG_const_type, baseType: !570)
!588 = !DISubprogram(name: "exception_ptr", scope: !570, file: !571, line: 97, type: !580, scopeLine: 97, flags: DIFlagPublic | DIFlagPrototyped, spFlags: DISPFlagOptimized)
!589 = !DISubprogram(name: "exception_ptr", scope: !570, file: !571, line: 99, type: !590, scopeLine: 99, flags: DIFlagPublic | DIFlagPrototyped, spFlags: DISPFlagOptimized)
!590 = !DISubroutineType(types: !591)
!591 = !{null, !578, !592}
!592 = !DIDerivedType(tag: DW_TAG_reference_type, baseType: !587, size: 64)
!593 = !DISubprogram(name: "exception_ptr", scope: !570, file: !571, line: 102, type: !594, scopeLine: 102, flags: DIFlagPublic | DIFlagPrototyped, spFlags: DISPFlagOptimized)
!594 = !DISubroutineType(types: !595)
!595 = !{null, !578, !596}
!596 = !DIDerivedType(tag: DW_TAG_typedef, name: "nullptr_t", scope: !2, file: !113, line: 264, baseType: !597)
!597 = !DIBasicType(tag: DW_TAG_unspecified_type, name: "decltype(nullptr)")
!598 = !DISubprogram(name: "exception_ptr", scope: !570, file: !571, line: 106, type: !599, scopeLine: 106, flags: DIFlagPublic | DIFlagPrototyped, spFlags: DISPFlagOptimized)
!599 = !DISubroutineType(types: !600)
!600 = !{null, !578, !601}
!601 = !DIDerivedType(tag: DW_TAG_rvalue_reference_type, baseType: !570, size: 64)
!602 = !DISubprogram(name: "operator=", linkageName: "_ZNSt15__exception_ptr13exception_ptraSERKS0_", scope: !570, file: !571, line: 119, type: !603, scopeLine: 119, flags: DIFlagPublic | DIFlagPrototyped, spFlags: DISPFlagOptimized)
!603 = !DISubroutineType(types: !604)
!604 = !{!605, !578, !592}
!605 = !DIDerivedType(tag: DW_TAG_reference_type, baseType: !570, size: 64)
!606 = !DISubprogram(name: "operator=", linkageName: "_ZNSt15__exception_ptr13exception_ptraSEOS0_", scope: !570, file: !571, line: 123, type: !607, scopeLine: 123, flags: DIFlagPublic | DIFlagPrototyped, spFlags: DISPFlagOptimized)
!607 = !DISubroutineType(types: !608)
!608 = !{!605, !578, !601}
!609 = !DISubprogram(name: "~exception_ptr", scope: !570, file: !571, line: 130, type: !580, scopeLine: 130, flags: DIFlagPublic | DIFlagPrototyped, spFlags: DISPFlagOptimized)
!610 = !DISubprogram(name: "swap", linkageName: "_ZNSt15__exception_ptr13exception_ptr4swapERS0_", scope: !570, file: !571, line: 133, type: !611, scopeLine: 133, flags: DIFlagPublic | DIFlagPrototyped, spFlags: DISPFlagOptimized)
!611 = !DISubroutineType(types: !612)
!612 = !{null, !578, !605}
!613 = !DISubprogram(name: "operator bool", linkageName: "_ZNKSt15__exception_ptr13exception_ptrcvbEv", scope: !570, file: !571, line: 145, type: !614, scopeLine: 145, flags: DIFlagPublic | DIFlagExplicit | DIFlagPrototyped, spFlags: DISPFlagOptimized)
!614 = !DISubroutineType(types: !615)
!615 = !{!13, !586}
!616 = !DISubprogram(name: "__cxa_exception_type", linkageName: "_ZNKSt15__exception_ptr13exception_ptr20__cxa_exception_typeEv", scope: !570, file: !571, line: 154, type: !617, scopeLine: 154, flags: DIFlagPublic | DIFlagPrototyped, spFlags: DISPFlagOptimized)
!617 = !DISubroutineType(types: !618)
!618 = !{!619, !586}
!619 = !DIDerivedType(tag: DW_TAG_pointer_type, baseType: !620, size: 64)
!620 = !DIDerivedType(tag: DW_TAG_const_type, baseType: !621)
!621 = !DICompositeType(tag: DW_TAG_class_type, name: "type_info", scope: !2, file: !622, line: 88, flags: DIFlagFwdDecl, identifier: "_ZTSSt9type_info")
!622 = !DIFile(filename: "/usr/lib64/gcc/x86_64-pc-linux-gnu/10.2.0/../../../../include/c++/10.2.0/typeinfo", directory: "")
!623 = !DIImportedEntity(tag: DW_TAG_imported_declaration, scope: !572, entity: !624, file: !571, line: 74)
!624 = !DISubprogram(name: "rethrow_exception", linkageName: "_ZSt17rethrow_exceptionNSt15__exception_ptr13exception_ptrE", scope: !2, file: !571, line: 70, type: !625, flags: DIFlagPrototyped | DIFlagNoReturn, spFlags: DISPFlagOptimized)
!625 = !DISubroutineType(types: !626)
!626 = !{null, !570}
!627 = !DIImportedEntity(tag: DW_TAG_imported_module, scope: !628, entity: !629, file: !630, line: 58)
!628 = !DINamespace(name: "__gnu_debug", scope: null)
!629 = !DINamespace(name: "__debug", scope: !2)
!630 = !DIFile(filename: "/usr/lib64/gcc/x86_64-pc-linux-gnu/10.2.0/../../../../include/c++/10.2.0/debug/debug.h", directory: "")
!631 = !DIImportedEntity(tag: DW_TAG_imported_declaration, scope: !2, entity: !632, file: !635, line: 47)
!632 = !DIDerivedType(tag: DW_TAG_typedef, name: "int8_t", file: !633, line: 24, baseType: !634)
!633 = !DIFile(filename: "/usr/include/bits/stdint-intn.h", directory: "")
!634 = !DIDerivedType(tag: DW_TAG_typedef, name: "__int8_t", file: !294, line: 37, baseType: !75)
!635 = !DIFile(filename: "/usr/lib64/gcc/x86_64-pc-linux-gnu/10.2.0/../../../../include/c++/10.2.0/cstdint", directory: "")
!636 = !DIImportedEntity(tag: DW_TAG_imported_declaration, scope: !2, entity: !637, file: !635, line: 48)
!637 = !DIDerivedType(tag: DW_TAG_typedef, name: "int16_t", file: !633, line: 25, baseType: !638)
!638 = !DIDerivedType(tag: DW_TAG_typedef, name: "__int16_t", file: !294, line: 39, baseType: !639)
!639 = !DIBasicType(name: "short", size: 16, encoding: DW_ATE_signed)
!640 = !DIImportedEntity(tag: DW_TAG_imported_declaration, scope: !2, entity: !641, file: !635, line: 49)
!641 = !DIDerivedType(tag: DW_TAG_typedef, name: "int32_t", file: !633, line: 26, baseType: !642)
!642 = !DIDerivedType(tag: DW_TAG_typedef, name: "__int32_t", file: !294, line: 41, baseType: !11)
!643 = !DIImportedEntity(tag: DW_TAG_imported_declaration, scope: !2, entity: !644, file: !635, line: 50)
!644 = !DIDerivedType(tag: DW_TAG_typedef, name: "int64_t", file: !633, line: 27, baseType: !645)
!645 = !DIDerivedType(tag: DW_TAG_typedef, name: "__int64_t", file: !294, line: 44, baseType: !88)
!646 = !DIImportedEntity(tag: DW_TAG_imported_declaration, scope: !2, entity: !647, file: !635, line: 52)
!647 = !DIDerivedType(tag: DW_TAG_typedef, name: "int_fast8_t", file: !648, line: 58, baseType: !75)
!648 = !DIFile(filename: "/usr/include/stdint.h", directory: "")
!649 = !DIImportedEntity(tag: DW_TAG_imported_declaration, scope: !2, entity: !650, file: !635, line: 53)
!650 = !DIDerivedType(tag: DW_TAG_typedef, name: "int_fast16_t", file: !648, line: 60, baseType: !88)
!651 = !DIImportedEntity(tag: DW_TAG_imported_declaration, scope: !2, entity: !652, file: !635, line: 54)
!652 = !DIDerivedType(tag: DW_TAG_typedef, name: "int_fast32_t", file: !648, line: 61, baseType: !88)
!653 = !DIImportedEntity(tag: DW_TAG_imported_declaration, scope: !2, entity: !654, file: !635, line: 55)
!654 = !DIDerivedType(tag: DW_TAG_typedef, name: "int_fast64_t", file: !648, line: 62, baseType: !88)
!655 = !DIImportedEntity(tag: DW_TAG_imported_declaration, scope: !2, entity: !656, file: !635, line: 57)
!656 = !DIDerivedType(tag: DW_TAG_typedef, name: "int_least8_t", file: !648, line: 43, baseType: !657)
!657 = !DIDerivedType(tag: DW_TAG_typedef, name: "__int_least8_t", file: !294, line: 52, baseType: !634)
!658 = !DIImportedEntity(tag: DW_TAG_imported_declaration, scope: !2, entity: !659, file: !635, line: 58)
!659 = !DIDerivedType(tag: DW_TAG_typedef, name: "int_least16_t", file: !648, line: 44, baseType: !660)
!660 = !DIDerivedType(tag: DW_TAG_typedef, name: "__int_least16_t", file: !294, line: 54, baseType: !638)
!661 = !DIImportedEntity(tag: DW_TAG_imported_declaration, scope: !2, entity: !662, file: !635, line: 59)
!662 = !DIDerivedType(tag: DW_TAG_typedef, name: "int_least32_t", file: !648, line: 45, baseType: !663)
!663 = !DIDerivedType(tag: DW_TAG_typedef, name: "__int_least32_t", file: !294, line: 56, baseType: !642)
!664 = !DIImportedEntity(tag: DW_TAG_imported_declaration, scope: !2, entity: !665, file: !635, line: 60)
!665 = !DIDerivedType(tag: DW_TAG_typedef, name: "int_least64_t", file: !648, line: 46, baseType: !666)
!666 = !DIDerivedType(tag: DW_TAG_typedef, name: "__int_least64_t", file: !294, line: 58, baseType: !645)
!667 = !DIImportedEntity(tag: DW_TAG_imported_declaration, scope: !2, entity: !668, file: !635, line: 62)
!668 = !DIDerivedType(tag: DW_TAG_typedef, name: "intmax_t", file: !648, line: 101, baseType: !669)
!669 = !DIDerivedType(tag: DW_TAG_typedef, name: "__intmax_t", file: !294, line: 72, baseType: !88)
!670 = !DIImportedEntity(tag: DW_TAG_imported_declaration, scope: !2, entity: !671, file: !635, line: 63)
!671 = !DIDerivedType(tag: DW_TAG_typedef, name: "intptr_t", file: !229, line: 267, baseType: !672)
!672 = !DIDerivedType(tag: DW_TAG_typedef, name: "__intptr_t", file: !294, line: 207, baseType: !88)
!673 = !DIImportedEntity(tag: DW_TAG_imported_declaration, scope: !2, entity: !674, file: !635, line: 65)
!674 = !DIDerivedType(tag: DW_TAG_typedef, name: "uint8_t", file: !675, line: 24, baseType: !676)
!675 = !DIFile(filename: "/usr/include/bits/stdint-uintn.h", directory: "")
!676 = !DIDerivedType(tag: DW_TAG_typedef, name: "__uint8_t", file: !294, line: 38, baseType: !78)
!677 = !DIImportedEntity(tag: DW_TAG_imported_declaration, scope: !2, entity: !678, file: !635, line: 66)
!678 = !DIDerivedType(tag: DW_TAG_typedef, name: "uint16_t", file: !675, line: 25, baseType: !679)
!679 = !DIDerivedType(tag: DW_TAG_typedef, name: "__uint16_t", file: !294, line: 40, baseType: !296)
!680 = !DIImportedEntity(tag: DW_TAG_imported_declaration, scope: !2, entity: !681, file: !635, line: 67)
!681 = !DIDerivedType(tag: DW_TAG_typedef, name: "uint32_t", file: !675, line: 26, baseType: !682)
!682 = !DIDerivedType(tag: DW_TAG_typedef, name: "__uint32_t", file: !294, line: 42, baseType: !36)
!683 = !DIImportedEntity(tag: DW_TAG_imported_declaration, scope: !2, entity: !684, file: !635, line: 68)
!684 = !DIDerivedType(tag: DW_TAG_typedef, name: "uint64_t", file: !675, line: 27, baseType: !685)
!685 = !DIDerivedType(tag: DW_TAG_typedef, name: "__uint64_t", file: !294, line: 45, baseType: !53)
!686 = !DIImportedEntity(tag: DW_TAG_imported_declaration, scope: !2, entity: !687, file: !635, line: 70)
!687 = !DIDerivedType(tag: DW_TAG_typedef, name: "uint_fast8_t", file: !648, line: 71, baseType: !78)
!688 = !DIImportedEntity(tag: DW_TAG_imported_declaration, scope: !2, entity: !689, file: !635, line: 71)
!689 = !DIDerivedType(tag: DW_TAG_typedef, name: "uint_fast16_t", file: !648, line: 73, baseType: !53)
!690 = !DIImportedEntity(tag: DW_TAG_imported_declaration, scope: !2, entity: !691, file: !635, line: 72)
!691 = !DIDerivedType(tag: DW_TAG_typedef, name: "uint_fast32_t", file: !648, line: 74, baseType: !53)
!692 = !DIImportedEntity(tag: DW_TAG_imported_declaration, scope: !2, entity: !693, file: !635, line: 73)
!693 = !DIDerivedType(tag: DW_TAG_typedef, name: "uint_fast64_t", file: !648, line: 75, baseType: !53)
!694 = !DIImportedEntity(tag: DW_TAG_imported_declaration, scope: !2, entity: !695, file: !635, line: 75)
!695 = !DIDerivedType(tag: DW_TAG_typedef, name: "uint_least8_t", file: !648, line: 49, baseType: !696)
!696 = !DIDerivedType(tag: DW_TAG_typedef, name: "__uint_least8_t", file: !294, line: 53, baseType: !676)
!697 = !DIImportedEntity(tag: DW_TAG_imported_declaration, scope: !2, entity: !698, file: !635, line: 76)
!698 = !DIDerivedType(tag: DW_TAG_typedef, name: "uint_least16_t", file: !648, line: 50, baseType: !699)
!699 = !DIDerivedType(tag: DW_TAG_typedef, name: "__uint_least16_t", file: !294, line: 55, baseType: !679)
!700 = !DIImportedEntity(tag: DW_TAG_imported_declaration, scope: !2, entity: !701, file: !635, line: 77)
!701 = !DIDerivedType(tag: DW_TAG_typedef, name: "uint_least32_t", file: !648, line: 51, baseType: !702)
!702 = !DIDerivedType(tag: DW_TAG_typedef, name: "__uint_least32_t", file: !294, line: 57, baseType: !682)
!703 = !DIImportedEntity(tag: DW_TAG_imported_declaration, scope: !2, entity: !704, file: !635, line: 78)
!704 = !DIDerivedType(tag: DW_TAG_typedef, name: "uint_least64_t", file: !648, line: 52, baseType: !705)
!705 = !DIDerivedType(tag: DW_TAG_typedef, name: "__uint_least64_t", file: !294, line: 59, baseType: !685)
!706 = !DIImportedEntity(tag: DW_TAG_imported_declaration, scope: !2, entity: !707, file: !635, line: 80)
!707 = !DIDerivedType(tag: DW_TAG_typedef, name: "uintmax_t", file: !648, line: 102, baseType: !708)
!708 = !DIDerivedType(tag: DW_TAG_typedef, name: "__uintmax_t", file: !294, line: 73, baseType: !53)
!709 = !DIImportedEntity(tag: DW_TAG_imported_declaration, scope: !2, entity: !710, file: !635, line: 81)
!710 = !DIDerivedType(tag: DW_TAG_typedef, name: "uintptr_t", file: !648, line: 90, baseType: !53)
!711 = !DIImportedEntity(tag: DW_TAG_imported_declaration, scope: !2, entity: !712, file: !714, line: 53)
!712 = !DICompositeType(tag: DW_TAG_structure_type, name: "lconv", file: !713, line: 51, flags: DIFlagFwdDecl, identifier: "_ZTS5lconv")
!713 = !DIFile(filename: "/usr/include/locale.h", directory: "")
!714 = !DIFile(filename: "/usr/lib64/gcc/x86_64-pc-linux-gnu/10.2.0/../../../../include/c++/10.2.0/clocale", directory: "")
!715 = !DIImportedEntity(tag: DW_TAG_imported_declaration, scope: !2, entity: !716, file: !714, line: 54)
!716 = !DISubprogram(name: "setlocale", scope: !713, file: !713, line: 122, type: !717, flags: DIFlagPrototyped, spFlags: DISPFlagOptimized)
!717 = !DISubroutineType(types: !718)
!718 = !{!106, !11, !45}
!719 = !DIImportedEntity(tag: DW_TAG_imported_declaration, scope: !2, entity: !720, file: !714, line: 55)
!720 = !DISubprogram(name: "localeconv", scope: !713, file: !713, line: 125, type: !721, flags: DIFlagPrototyped, spFlags: DISPFlagOptimized)
!721 = !DISubroutineType(types: !722)
!722 = !{!723}
!723 = !DIDerivedType(tag: DW_TAG_pointer_type, baseType: !712, size: 64)
!724 = !DIImportedEntity(tag: DW_TAG_imported_declaration, scope: !2, entity: !725, file: !729, line: 64)
!725 = !DISubprogram(name: "isalnum", scope: !726, file: !726, line: 108, type: !727, flags: DIFlagPrototyped, spFlags: DISPFlagOptimized)
!726 = !DIFile(filename: "/usr/include/ctype.h", directory: "")
!727 = !DISubroutineType(types: !728)
!728 = !{!11, !11}
!729 = !DIFile(filename: "/usr/lib64/gcc/x86_64-pc-linux-gnu/10.2.0/../../../../include/c++/10.2.0/cctype", directory: "")
!730 = !DIImportedEntity(tag: DW_TAG_imported_declaration, scope: !2, entity: !731, file: !729, line: 65)
!731 = !DISubprogram(name: "isalpha", scope: !726, file: !726, line: 109, type: !727, flags: DIFlagPrototyped, spFlags: DISPFlagOptimized)
!732 = !DIImportedEntity(tag: DW_TAG_imported_declaration, scope: !2, entity: !733, file: !729, line: 66)
!733 = !DISubprogram(name: "iscntrl", scope: !726, file: !726, line: 110, type: !727, flags: DIFlagPrototyped, spFlags: DISPFlagOptimized)
!734 = !DIImportedEntity(tag: DW_TAG_imported_declaration, scope: !2, entity: !735, file: !729, line: 67)
!735 = !DISubprogram(name: "isdigit", scope: !726, file: !726, line: 111, type: !727, flags: DIFlagPrototyped, spFlags: DISPFlagOptimized)
!736 = !DIImportedEntity(tag: DW_TAG_imported_declaration, scope: !2, entity: !737, file: !729, line: 68)
!737 = !DISubprogram(name: "isgraph", scope: !726, file: !726, line: 113, type: !727, flags: DIFlagPrototyped, spFlags: DISPFlagOptimized)
!738 = !DIImportedEntity(tag: DW_TAG_imported_declaration, scope: !2, entity: !739, file: !729, line: 69)
!739 = !DISubprogram(name: "islower", scope: !726, file: !726, line: 112, type: !727, flags: DIFlagPrototyped, spFlags: DISPFlagOptimized)
!740 = !DIImportedEntity(tag: DW_TAG_imported_declaration, scope: !2, entity: !741, file: !729, line: 70)
!741 = !DISubprogram(name: "isprint", scope: !726, file: !726, line: 114, type: !727, flags: DIFlagPrototyped, spFlags: DISPFlagOptimized)
!742 = !DIImportedEntity(tag: DW_TAG_imported_declaration, scope: !2, entity: !743, file: !729, line: 71)
!743 = !DISubprogram(name: "ispunct", scope: !726, file: !726, line: 115, type: !727, flags: DIFlagPrototyped, spFlags: DISPFlagOptimized)
!744 = !DIImportedEntity(tag: DW_TAG_imported_declaration, scope: !2, entity: !745, file: !729, line: 72)
!745 = !DISubprogram(name: "isspace", scope: !726, file: !726, line: 116, type: !727, flags: DIFlagPrototyped, spFlags: DISPFlagOptimized)
!746 = !DIImportedEntity(tag: DW_TAG_imported_declaration, scope: !2, entity: !747, file: !729, line: 73)
!747 = !DISubprogram(name: "isupper", scope: !726, file: !726, line: 117, type: !727, flags: DIFlagPrototyped, spFlags: DISPFlagOptimized)
!748 = !DIImportedEntity(tag: DW_TAG_imported_declaration, scope: !2, entity: !749, file: !729, line: 74)
!749 = !DISubprogram(name: "isxdigit", scope: !726, file: !726, line: 118, type: !727, flags: DIFlagPrototyped, spFlags: DISPFlagOptimized)
!750 = !DIImportedEntity(tag: DW_TAG_imported_declaration, scope: !2, entity: !751, file: !729, line: 75)
!751 = !DISubprogram(name: "tolower", scope: !726, file: !726, line: 122, type: !727, flags: DIFlagPrototyped, spFlags: DISPFlagOptimized)
!752 = !DIImportedEntity(tag: DW_TAG_imported_declaration, scope: !2, entity: !753, file: !729, line: 76)
!753 = !DISubprogram(name: "toupper", scope: !726, file: !726, line: 125, type: !727, flags: DIFlagPrototyped, spFlags: DISPFlagOptimized)
!754 = !DIImportedEntity(tag: DW_TAG_imported_declaration, scope: !2, entity: !755, file: !729, line: 87)
!755 = !DISubprogram(name: "isblank", scope: !726, file: !726, line: 130, type: !727, flags: DIFlagPrototyped, spFlags: DISPFlagOptimized)
!756 = !DIImportedEntity(tag: DW_TAG_imported_declaration, scope: !2, entity: !757, file: !759, line: 52)
!757 = !DISubprogram(name: "abs", scope: !758, file: !758, line: 840, type: !727, flags: DIFlagPrototyped, spFlags: DISPFlagOptimized)
!758 = !DIFile(filename: "/usr/include/stdlib.h", directory: "")
!759 = !DIFile(filename: "/usr/lib64/gcc/x86_64-pc-linux-gnu/10.2.0/../../../../include/c++/10.2.0/bits/std_abs.h", directory: "")
!760 = !DIImportedEntity(tag: DW_TAG_imported_declaration, scope: !2, entity: !761, file: !763, line: 127)
!761 = !DIDerivedType(tag: DW_TAG_typedef, name: "div_t", file: !758, line: 62, baseType: !762)
!762 = !DICompositeType(tag: DW_TAG_structure_type, file: !758, line: 58, flags: DIFlagFwdDecl, identifier: "_ZTS5div_t")
!763 = !DIFile(filename: "/usr/lib64/gcc/x86_64-pc-linux-gnu/10.2.0/../../../../include/c++/10.2.0/cstdlib", directory: "")
!764 = !DIImportedEntity(tag: DW_TAG_imported_declaration, scope: !2, entity: !765, file: !763, line: 128)
!765 = !DIDerivedType(tag: DW_TAG_typedef, name: "ldiv_t", file: !758, line: 70, baseType: !766)
!766 = distinct !DICompositeType(tag: DW_TAG_structure_type, file: !758, line: 66, size: 128, flags: DIFlagTypePassByValue, elements: !767, identifier: "_ZTS6ldiv_t")
!767 = !{!768, !769}
!768 = !DIDerivedType(tag: DW_TAG_member, name: "quot", scope: !766, file: !758, line: 68, baseType: !88, size: 64)
!769 = !DIDerivedType(tag: DW_TAG_member, name: "rem", scope: !766, file: !758, line: 69, baseType: !88, size: 64, offset: 64)
!770 = !DIImportedEntity(tag: DW_TAG_imported_declaration, scope: !2, entity: !771, file: !763, line: 130)
!771 = !DISubprogram(name: "abort", scope: !758, file: !758, line: 591, type: !772, flags: DIFlagPrototyped | DIFlagNoReturn, spFlags: DISPFlagOptimized)
!772 = !DISubroutineType(types: !773)
!773 = !{null}
!774 = !DIImportedEntity(tag: DW_TAG_imported_declaration, scope: !2, entity: !775, file: !763, line: 134)
!775 = !DISubprogram(name: "atexit", scope: !758, file: !758, line: 595, type: !776, flags: DIFlagPrototyped, spFlags: DISPFlagOptimized)
!776 = !DISubroutineType(types: !777)
!777 = !{!11, !778}
!778 = !DIDerivedType(tag: DW_TAG_pointer_type, baseType: !772, size: 64)
!779 = !DIImportedEntity(tag: DW_TAG_imported_declaration, scope: !2, entity: !780, file: !763, line: 137)
!780 = !DISubprogram(name: "at_quick_exit", scope: !758, file: !758, line: 600, type: !776, flags: DIFlagPrototyped, spFlags: DISPFlagOptimized)
!781 = !DIImportedEntity(tag: DW_TAG_imported_declaration, scope: !2, entity: !782, file: !763, line: 140)
!782 = !DISubprogram(name: "atof", scope: !783, file: !783, line: 25, type: !784, flags: DIFlagPrototyped, spFlags: DISPFlagOptimized)
!783 = !DIFile(filename: "/usr/include/bits/stdlib-float.h", directory: "")
!784 = !DISubroutineType(types: !785)
!785 = !{!482, !45}
!786 = !DIImportedEntity(tag: DW_TAG_imported_declaration, scope: !2, entity: !787, file: !763, line: 141)
!787 = !DISubprogram(name: "atoi", scope: !758, file: !758, line: 361, type: !788, flags: DIFlagPrototyped, spFlags: DISPFlagOptimized)
!788 = !DISubroutineType(types: !789)
!789 = !{!11, !45}
!790 = !DIImportedEntity(tag: DW_TAG_imported_declaration, scope: !2, entity: !791, file: !763, line: 142)
!791 = !DISubprogram(name: "atol", scope: !758, file: !758, line: 366, type: !792, flags: DIFlagPrototyped, spFlags: DISPFlagOptimized)
!792 = !DISubroutineType(types: !793)
!793 = !{!88, !45}
!794 = !DIImportedEntity(tag: DW_TAG_imported_declaration, scope: !2, entity: !795, file: !763, line: 143)
!795 = !DISubprogram(name: "bsearch", scope: !796, file: !796, line: 20, type: !797, flags: DIFlagPrototyped, spFlags: DISPFlagOptimized)
!796 = !DIFile(filename: "/usr/include/bits/stdlib-bsearch.h", directory: "")
!797 = !DISubroutineType(types: !798)
!798 = !{!40, !118, !118, !316, !316, !799}
!799 = !DIDerivedType(tag: DW_TAG_typedef, name: "__compar_fn_t", file: !758, line: 808, baseType: !800)
!800 = !DIDerivedType(tag: DW_TAG_pointer_type, baseType: !801, size: 64)
!801 = !DISubroutineType(types: !802)
!802 = !{!11, !118, !118}
!803 = !DIImportedEntity(tag: DW_TAG_imported_declaration, scope: !2, entity: !804, file: !763, line: 144)
!804 = !DISubprogram(name: "calloc", scope: !758, file: !758, line: 542, type: !805, flags: DIFlagPrototyped, spFlags: DISPFlagOptimized)
!805 = !DISubroutineType(types: !806)
!806 = !{!40, !316, !316}
!807 = !DIImportedEntity(tag: DW_TAG_imported_declaration, scope: !2, entity: !808, file: !763, line: 145)
!808 = !DISubprogram(name: "div", scope: !758, file: !758, line: 852, type: !809, flags: DIFlagPrototyped, spFlags: DISPFlagOptimized)
!809 = !DISubroutineType(types: !810)
!810 = !{!761, !11, !11}
!811 = !DIImportedEntity(tag: DW_TAG_imported_declaration, scope: !2, entity: !812, file: !763, line: 146)
!812 = !DISubprogram(name: "exit", scope: !758, file: !758, line: 617, type: !813, flags: DIFlagPrototyped | DIFlagNoReturn, spFlags: DISPFlagOptimized)
!813 = !DISubroutineType(types: !814)
!814 = !{null, !11}
!815 = !DIImportedEntity(tag: DW_TAG_imported_declaration, scope: !2, entity: !816, file: !763, line: 147)
!816 = !DISubprogram(name: "free", scope: !758, file: !758, line: 565, type: !206, flags: DIFlagPrototyped, spFlags: DISPFlagOptimized)
!817 = !DIImportedEntity(tag: DW_TAG_imported_declaration, scope: !2, entity: !818, file: !763, line: 148)
!818 = !DISubprogram(name: "getenv", scope: !758, file: !758, line: 634, type: !819, flags: DIFlagPrototyped, spFlags: DISPFlagOptimized)
!819 = !DISubroutineType(types: !820)
!820 = !{!106, !45}
!821 = !DIImportedEntity(tag: DW_TAG_imported_declaration, scope: !2, entity: !822, file: !763, line: 149)
!822 = !DISubprogram(name: "labs", scope: !758, file: !758, line: 841, type: !823, flags: DIFlagPrototyped, spFlags: DISPFlagOptimized)
!823 = !DISubroutineType(types: !824)
!824 = !{!88, !88}
!825 = !DIImportedEntity(tag: DW_TAG_imported_declaration, scope: !2, entity: !826, file: !763, line: 150)
!826 = !DISubprogram(name: "ldiv", scope: !758, file: !758, line: 854, type: !827, flags: DIFlagPrototyped, spFlags: DISPFlagOptimized)
!827 = !DISubroutineType(types: !828)
!828 = !{!765, !88, !88}
!829 = !DIImportedEntity(tag: DW_TAG_imported_declaration, scope: !2, entity: !830, file: !763, line: 151)
!830 = !DISubprogram(name: "malloc", scope: !758, file: !758, line: 539, type: !831, flags: DIFlagPrototyped, spFlags: DISPFlagOptimized)
!831 = !DISubroutineType(types: !832)
!832 = !{!40, !316}
!833 = !DIImportedEntity(tag: DW_TAG_imported_declaration, scope: !2, entity: !834, file: !763, line: 153)
!834 = !DISubprogram(name: "mblen", scope: !758, file: !758, line: 922, type: !835, flags: DIFlagPrototyped, spFlags: DISPFlagOptimized)
!835 = !DISubroutineType(types: !836)
!836 = !{!11, !45, !316}
!837 = !DIImportedEntity(tag: DW_TAG_imported_declaration, scope: !2, entity: !838, file: !763, line: 154)
!838 = !DISubprogram(name: "mbstowcs", scope: !758, file: !758, line: 933, type: !839, flags: DIFlagPrototyped, spFlags: DISPFlagOptimized)
!839 = !DISubroutineType(types: !840)
!840 = !{!316, !329, !362, !316}
!841 = !DIImportedEntity(tag: DW_TAG_imported_declaration, scope: !2, entity: !842, file: !763, line: 155)
!842 = !DISubprogram(name: "mbtowc", scope: !758, file: !758, line: 925, type: !843, flags: DIFlagPrototyped, spFlags: DISPFlagOptimized)
!843 = !DISubroutineType(types: !844)
!844 = !{!11, !329, !362, !316}
!845 = !DIImportedEntity(tag: DW_TAG_imported_declaration, scope: !2, entity: !846, file: !763, line: 157)
!846 = !DISubprogram(name: "qsort", scope: !758, file: !758, line: 830, type: !847, flags: DIFlagPrototyped, spFlags: DISPFlagOptimized)
!847 = !DISubroutineType(types: !848)
!848 = !{null, !40, !316, !316, !799}
!849 = !DIImportedEntity(tag: DW_TAG_imported_declaration, scope: !2, entity: !850, file: !763, line: 160)
!850 = !DISubprogram(name: "quick_exit", scope: !758, file: !758, line: 623, type: !813, flags: DIFlagPrototyped | DIFlagNoReturn, spFlags: DISPFlagOptimized)
!851 = !DIImportedEntity(tag: DW_TAG_imported_declaration, scope: !2, entity: !852, file: !763, line: 163)
!852 = !DISubprogram(name: "rand", scope: !758, file: !758, line: 453, type: !853, flags: DIFlagPrototyped, spFlags: DISPFlagOptimized)
!853 = !DISubroutineType(types: !854)
!854 = !{!11}
!855 = !DIImportedEntity(tag: DW_TAG_imported_declaration, scope: !2, entity: !856, file: !763, line: 164)
!856 = !DISubprogram(name: "realloc", scope: !758, file: !758, line: 550, type: !857, flags: DIFlagPrototyped, spFlags: DISPFlagOptimized)
!857 = !DISubroutineType(types: !858)
!858 = !{!40, !40, !316}
!859 = !DIImportedEntity(tag: DW_TAG_imported_declaration, scope: !2, entity: !860, file: !763, line: 165)
!860 = !DISubprogram(name: "srand", scope: !758, file: !758, line: 455, type: !861, flags: DIFlagPrototyped, spFlags: DISPFlagOptimized)
!861 = !DISubroutineType(types: !862)
!862 = !{null, !36}
!863 = !DIImportedEntity(tag: DW_TAG_imported_declaration, scope: !2, entity: !864, file: !763, line: 166)
!864 = !DISubprogram(name: "strtod", scope: !758, file: !758, line: 117, type: !865, flags: DIFlagPrototyped, spFlags: DISPFlagOptimized)
!865 = !DISubroutineType(types: !866)
!866 = !{!482, !362, !867}
!867 = !DIDerivedType(tag: DW_TAG_restrict_type, baseType: !868)
!868 = !DIDerivedType(tag: DW_TAG_pointer_type, baseType: !106, size: 64)
!869 = !DIImportedEntity(tag: DW_TAG_imported_declaration, scope: !2, entity: !870, file: !763, line: 167)
!870 = !DISubprogram(name: "strtol", scope: !758, file: !758, line: 176, type: !871, flags: DIFlagPrototyped, spFlags: DISPFlagOptimized)
!871 = !DISubroutineType(types: !872)
!872 = !{!88, !362, !867, !11}
!873 = !DIImportedEntity(tag: DW_TAG_imported_declaration, scope: !2, entity: !874, file: !763, line: 168)
!874 = !DISubprogram(name: "strtoul", scope: !758, file: !758, line: 180, type: !875, flags: DIFlagPrototyped, spFlags: DISPFlagOptimized)
!875 = !DISubroutineType(types: !876)
!876 = !{!53, !362, !867, !11}
!877 = !DIImportedEntity(tag: DW_TAG_imported_declaration, scope: !2, entity: !878, file: !763, line: 169)
!878 = !DISubprogram(name: "system", scope: !758, file: !758, line: 784, type: !788, flags: DIFlagPrototyped, spFlags: DISPFlagOptimized)
!879 = !DIImportedEntity(tag: DW_TAG_imported_declaration, scope: !2, entity: !880, file: !763, line: 171)
!880 = !DISubprogram(name: "wcstombs", scope: !758, file: !758, line: 937, type: !881, flags: DIFlagPrototyped, spFlags: DISPFlagOptimized)
!881 = !DISubroutineType(types: !882)
!882 = !{!316, !430, !339, !316}
!883 = !DIImportedEntity(tag: DW_TAG_imported_declaration, scope: !2, entity: !884, file: !763, line: 172)
!884 = !DISubprogram(name: "wctomb", scope: !758, file: !758, line: 929, type: !885, flags: DIFlagPrototyped, spFlags: DISPFlagOptimized)
!885 = !DISubroutineType(types: !886)
!886 = !{!11, !106, !328}
!887 = !DIImportedEntity(tag: DW_TAG_imported_declaration, scope: !96, entity: !888, file: !763, line: 200)
!888 = !DIDerivedType(tag: DW_TAG_typedef, name: "lldiv_t", file: !758, line: 80, baseType: !889)
!889 = distinct !DICompositeType(tag: DW_TAG_structure_type, file: !758, line: 76, size: 128, flags: DIFlagTypePassByValue, elements: !890, identifier: "_ZTS7lldiv_t")
!890 = !{!891, !892}
!891 = !DIDerivedType(tag: DW_TAG_member, name: "quot", scope: !889, file: !758, line: 78, baseType: !553, size: 64)
!892 = !DIDerivedType(tag: DW_TAG_member, name: "rem", scope: !889, file: !758, line: 79, baseType: !553, size: 64, offset: 64)
!893 = !DIImportedEntity(tag: DW_TAG_imported_declaration, scope: !96, entity: !894, file: !763, line: 206)
!894 = !DISubprogram(name: "_Exit", scope: !758, file: !758, line: 629, type: !813, flags: DIFlagPrototyped | DIFlagNoReturn, spFlags: DISPFlagOptimized)
!895 = !DIImportedEntity(tag: DW_TAG_imported_declaration, scope: !96, entity: !896, file: !763, line: 210)
!896 = !DISubprogram(name: "llabs", scope: !758, file: !758, line: 844, type: !897, flags: DIFlagPrototyped, spFlags: DISPFlagOptimized)
!897 = !DISubroutineType(types: !898)
!898 = !{!553, !553}
!899 = !DIImportedEntity(tag: DW_TAG_imported_declaration, scope: !96, entity: !900, file: !763, line: 216)
!900 = !DISubprogram(name: "lldiv", scope: !758, file: !758, line: 858, type: !901, flags: DIFlagPrototyped, spFlags: DISPFlagOptimized)
!901 = !DISubroutineType(types: !902)
!902 = !{!888, !553, !553}
!903 = !DIImportedEntity(tag: DW_TAG_imported_declaration, scope: !96, entity: !904, file: !763, line: 227)
!904 = !DISubprogram(name: "atoll", scope: !758, file: !758, line: 373, type: !905, flags: DIFlagPrototyped, spFlags: DISPFlagOptimized)
!905 = !DISubroutineType(types: !906)
!906 = !{!553, !45}
!907 = !DIImportedEntity(tag: DW_TAG_imported_declaration, scope: !96, entity: !908, file: !763, line: 228)
!908 = !DISubprogram(name: "strtoll", scope: !758, file: !758, line: 200, type: !909, flags: DIFlagPrototyped, spFlags: DISPFlagOptimized)
!909 = !DISubroutineType(types: !910)
!910 = !{!553, !362, !867, !11}
!911 = !DIImportedEntity(tag: DW_TAG_imported_declaration, scope: !96, entity: !912, file: !763, line: 229)
!912 = !DISubprogram(name: "strtoull", scope: !758, file: !758, line: 205, type: !913, flags: DIFlagPrototyped, spFlags: DISPFlagOptimized)
!913 = !DISubroutineType(types: !914)
!914 = !{!558, !362, !867, !11}
!915 = !DIImportedEntity(tag: DW_TAG_imported_declaration, scope: !96, entity: !916, file: !763, line: 231)
!916 = !DISubprogram(name: "strtof", scope: !758, file: !758, line: 123, type: !917, flags: DIFlagPrototyped, spFlags: DISPFlagOptimized)
!917 = !DISubroutineType(types: !918)
!918 = !{!489, !362, !867}
!919 = !DIImportedEntity(tag: DW_TAG_imported_declaration, scope: !96, entity: !920, file: !763, line: 232)
!920 = !DISubprogram(name: "strtold", scope: !758, file: !758, line: 126, type: !921, flags: DIFlagPrototyped, spFlags: DISPFlagOptimized)
!921 = !DISubroutineType(types: !922)
!922 = !{!548, !362, !867}
!923 = !DIImportedEntity(tag: DW_TAG_imported_declaration, scope: !2, entity: !888, file: !763, line: 240)
!924 = !DIImportedEntity(tag: DW_TAG_imported_declaration, scope: !2, entity: !894, file: !763, line: 242)
!925 = !DIImportedEntity(tag: DW_TAG_imported_declaration, scope: !2, entity: !896, file: !763, line: 244)
!926 = !DIImportedEntity(tag: DW_TAG_imported_declaration, scope: !2, entity: !927, file: !763, line: 245)
!927 = !DISubprogram(name: "div", linkageName: "_ZN9__gnu_cxx3divExx", scope: !96, file: !763, line: 213, type: !901, flags: DIFlagPrototyped, spFlags: DISPFlagOptimized)
!928 = !DIImportedEntity(tag: DW_TAG_imported_declaration, scope: !2, entity: !900, file: !763, line: 246)
!929 = !DIImportedEntity(tag: DW_TAG_imported_declaration, scope: !2, entity: !904, file: !763, line: 248)
!930 = !DIImportedEntity(tag: DW_TAG_imported_declaration, scope: !2, entity: !916, file: !763, line: 249)
!931 = !DIImportedEntity(tag: DW_TAG_imported_declaration, scope: !2, entity: !908, file: !763, line: 250)
!932 = !DIImportedEntity(tag: DW_TAG_imported_declaration, scope: !2, entity: !912, file: !763, line: 251)
!933 = !DIImportedEntity(tag: DW_TAG_imported_declaration, scope: !2, entity: !920, file: !763, line: 252)
!934 = !DIImportedEntity(tag: DW_TAG_imported_declaration, scope: !2, entity: !935, file: !937, line: 98)
!935 = !DIDerivedType(tag: DW_TAG_typedef, name: "FILE", file: !936, line: 7, baseType: !270)
!936 = !DIFile(filename: "/usr/include/bits/types/FILE.h", directory: "")
!937 = !DIFile(filename: "/usr/lib64/gcc/x86_64-pc-linux-gnu/10.2.0/../../../../include/c++/10.2.0/cstdio", directory: "")
!938 = !DIImportedEntity(tag: DW_TAG_imported_declaration, scope: !2, entity: !939, file: !937, line: 99)
!939 = !DIDerivedType(tag: DW_TAG_typedef, name: "fpos_t", file: !42, line: 84, baseType: !940)
!940 = !DIDerivedType(tag: DW_TAG_typedef, name: "__fpos_t", file: !941, line: 14, baseType: !942)
!941 = !DIFile(filename: "/usr/include/bits/types/__fpos_t.h", directory: "")
!942 = !DICompositeType(tag: DW_TAG_structure_type, name: "_G_fpos_t", file: !941, line: 10, flags: DIFlagFwdDecl, identifier: "_ZTS9_G_fpos_t")
!943 = !DIImportedEntity(tag: DW_TAG_imported_declaration, scope: !2, entity: !944, file: !937, line: 101)
!944 = !DISubprogram(name: "clearerr", scope: !42, file: !42, line: 762, type: !945, flags: DIFlagPrototyped, spFlags: DISPFlagOptimized)
!945 = !DISubroutineType(types: !946)
!946 = !{null, !947}
!947 = !DIDerivedType(tag: DW_TAG_pointer_type, baseType: !935, size: 64)
!948 = !DIImportedEntity(tag: DW_TAG_imported_declaration, scope: !2, entity: !949, file: !937, line: 102)
!949 = !DISubprogram(name: "fclose", scope: !42, file: !42, line: 213, type: !950, flags: DIFlagPrototyped, spFlags: DISPFlagOptimized)
!950 = !DISubroutineType(types: !951)
!951 = !{!11, !947}
!952 = !DIImportedEntity(tag: DW_TAG_imported_declaration, scope: !2, entity: !953, file: !937, line: 103)
!953 = !DISubprogram(name: "feof", scope: !42, file: !42, line: 764, type: !950, flags: DIFlagPrototyped, spFlags: DISPFlagOptimized)
!954 = !DIImportedEntity(tag: DW_TAG_imported_declaration, scope: !2, entity: !955, file: !937, line: 104)
!955 = !DISubprogram(name: "ferror", scope: !42, file: !42, line: 766, type: !950, flags: DIFlagPrototyped, spFlags: DISPFlagOptimized)
!956 = !DIImportedEntity(tag: DW_TAG_imported_declaration, scope: !2, entity: !957, file: !937, line: 105)
!957 = !DISubprogram(name: "fflush", scope: !42, file: !42, line: 218, type: !950, flags: DIFlagPrototyped, spFlags: DISPFlagOptimized)
!958 = !DIImportedEntity(tag: DW_TAG_imported_declaration, scope: !2, entity: !959, file: !937, line: 106)
!959 = !DISubprogram(name: "fgetc", scope: !42, file: !42, line: 489, type: !950, flags: DIFlagPrototyped, spFlags: DISPFlagOptimized)
!960 = !DIImportedEntity(tag: DW_TAG_imported_declaration, scope: !2, entity: !961, file: !937, line: 107)
!961 = !DISubprogram(name: "fgetpos", scope: !42, file: !42, line: 736, type: !962, flags: DIFlagPrototyped, spFlags: DISPFlagOptimized)
!962 = !DISubroutineType(types: !963)
!963 = !{!11, !964, !965}
!964 = !DIDerivedType(tag: DW_TAG_restrict_type, baseType: !947)
!965 = !DIDerivedType(tag: DW_TAG_restrict_type, baseType: !966)
!966 = !DIDerivedType(tag: DW_TAG_pointer_type, baseType: !939, size: 64)
!967 = !DIImportedEntity(tag: DW_TAG_imported_declaration, scope: !2, entity: !968, file: !937, line: 108)
!968 = !DISubprogram(name: "fgets", scope: !42, file: !42, line: 568, type: !969, flags: DIFlagPrototyped, spFlags: DISPFlagOptimized)
!969 = !DISubroutineType(types: !970)
!970 = !{!106, !430, !11, !964}
!971 = !DIImportedEntity(tag: DW_TAG_imported_declaration, scope: !2, entity: !972, file: !937, line: 109)
!972 = !DISubprogram(name: "fopen", scope: !42, file: !42, line: 246, type: !973, flags: DIFlagPrototyped, spFlags: DISPFlagOptimized)
!973 = !DISubroutineType(types: !974)
!974 = !{!947, !362, !362}
!975 = !DIImportedEntity(tag: DW_TAG_imported_declaration, scope: !2, entity: !976, file: !937, line: 110)
!976 = !DISubprogram(name: "fprintf", scope: !42, file: !42, line: 326, type: !977, flags: DIFlagPrototyped, spFlags: DISPFlagOptimized)
!977 = !DISubroutineType(types: !978)
!978 = !{!11, !964, !362, null}
!979 = !DIImportedEntity(tag: DW_TAG_imported_declaration, scope: !2, entity: !980, file: !937, line: 111)
!980 = !DISubprogram(name: "fputc", scope: !42, file: !42, line: 525, type: !981, flags: DIFlagPrototyped, spFlags: DISPFlagOptimized)
!981 = !DISubroutineType(types: !982)
!982 = !{!11, !11, !947}
!983 = !DIImportedEntity(tag: DW_TAG_imported_declaration, scope: !2, entity: !984, file: !937, line: 112)
!984 = !DISubprogram(name: "fputs", scope: !42, file: !42, line: 631, type: !985, flags: DIFlagPrototyped, spFlags: DISPFlagOptimized)
!985 = !DISubroutineType(types: !986)
!986 = !{!11, !362, !964}
!987 = !DIImportedEntity(tag: DW_TAG_imported_declaration, scope: !2, entity: !988, file: !937, line: 113)
!988 = !DISubprogram(name: "fread", scope: !42, file: !42, line: 651, type: !989, flags: DIFlagPrototyped, spFlags: DISPFlagOptimized)
!989 = !DISubroutineType(types: !990)
!990 = !{!316, !991, !316, !316, !964}
!991 = !DIDerivedType(tag: DW_TAG_restrict_type, baseType: !40)
!992 = !DIImportedEntity(tag: DW_TAG_imported_declaration, scope: !2, entity: !993, file: !937, line: 114)
!993 = !DISubprogram(name: "freopen", scope: !42, file: !42, line: 252, type: !994, flags: DIFlagPrototyped, spFlags: DISPFlagOptimized)
!994 = !DISubroutineType(types: !995)
!995 = !{!947, !362, !362, !964}
!996 = !DIImportedEntity(tag: DW_TAG_imported_declaration, scope: !2, entity: !997, file: !937, line: 115)
!997 = !DISubprogram(name: "fscanf", linkageName: "__isoc99_fscanf", scope: !42, file: !42, line: 410, type: !977, flags: DIFlagPrototyped, spFlags: DISPFlagOptimized)
!998 = !DIImportedEntity(tag: DW_TAG_imported_declaration, scope: !2, entity: !999, file: !937, line: 116)
!999 = !DISubprogram(name: "fseek", scope: !42, file: !42, line: 689, type: !1000, flags: DIFlagPrototyped, spFlags: DISPFlagOptimized)
!1000 = !DISubroutineType(types: !1001)
!1001 = !{!11, !947, !88, !11}
!1002 = !DIImportedEntity(tag: DW_TAG_imported_declaration, scope: !2, entity: !1003, file: !937, line: 117)
!1003 = !DISubprogram(name: "fsetpos", scope: !42, file: !42, line: 741, type: !1004, flags: DIFlagPrototyped, spFlags: DISPFlagOptimized)
!1004 = !DISubroutineType(types: !1005)
!1005 = !{!11, !947, !1006}
!1006 = !DIDerivedType(tag: DW_TAG_pointer_type, baseType: !1007, size: 64)
!1007 = !DIDerivedType(tag: DW_TAG_const_type, baseType: !939)
!1008 = !DIImportedEntity(tag: DW_TAG_imported_declaration, scope: !2, entity: !1009, file: !937, line: 118)
!1009 = !DISubprogram(name: "ftell", scope: !42, file: !42, line: 694, type: !1010, flags: DIFlagPrototyped, spFlags: DISPFlagOptimized)
!1010 = !DISubroutineType(types: !1011)
!1011 = !{!88, !947}
!1012 = !DIImportedEntity(tag: DW_TAG_imported_declaration, scope: !2, entity: !1013, file: !937, line: 119)
!1013 = !DISubprogram(name: "fwrite", scope: !42, file: !42, line: 657, type: !1014, flags: DIFlagPrototyped, spFlags: DISPFlagOptimized)
!1014 = !DISubroutineType(types: !1015)
!1015 = !{!316, !1016, !316, !316, !964}
!1016 = !DIDerivedType(tag: DW_TAG_restrict_type, baseType: !118)
!1017 = !DIImportedEntity(tag: DW_TAG_imported_declaration, scope: !2, entity: !1018, file: !937, line: 120)
!1018 = !DISubprogram(name: "getc", scope: !42, file: !42, line: 490, type: !950, flags: DIFlagPrototyped, spFlags: DISPFlagOptimized)
!1019 = !DIImportedEntity(tag: DW_TAG_imported_declaration, scope: !2, entity: !1020, file: !937, line: 121)
!1020 = !DISubprogram(name: "getchar", scope: !1021, file: !1021, line: 47, type: !853, flags: DIFlagPrototyped, spFlags: DISPFlagOptimized)
!1021 = !DIFile(filename: "/usr/include/bits/stdio.h", directory: "")
!1022 = !DIImportedEntity(tag: DW_TAG_imported_declaration, scope: !2, entity: !1023, file: !937, line: 126)
!1023 = !DISubprogram(name: "perror", scope: !42, file: !42, line: 780, type: !43, flags: DIFlagPrototyped, spFlags: DISPFlagOptimized)
!1024 = !DIImportedEntity(tag: DW_TAG_imported_declaration, scope: !2, entity: !1025, file: !937, line: 127)
!1025 = !DISubprogram(name: "printf", scope: !42, file: !42, line: 332, type: !1026, flags: DIFlagPrototyped, spFlags: DISPFlagOptimized)
!1026 = !DISubroutineType(types: !1027)
!1027 = !{!11, !362, null}
!1028 = !DIImportedEntity(tag: DW_TAG_imported_declaration, scope: !2, entity: !1029, file: !937, line: 128)
!1029 = !DISubprogram(name: "putc", scope: !42, file: !42, line: 526, type: !981, flags: DIFlagPrototyped, spFlags: DISPFlagOptimized)
!1030 = !DIImportedEntity(tag: DW_TAG_imported_declaration, scope: !2, entity: !1031, file: !937, line: 129)
!1031 = !DISubprogram(name: "putchar", scope: !1021, file: !1021, line: 82, type: !727, flags: DIFlagPrototyped, spFlags: DISPFlagOptimized)
!1032 = !DIImportedEntity(tag: DW_TAG_imported_declaration, scope: !2, entity: !1033, file: !937, line: 130)
!1033 = !DISubprogram(name: "puts", scope: !42, file: !42, line: 637, type: !788, flags: DIFlagPrototyped, spFlags: DISPFlagOptimized)
!1034 = !DIImportedEntity(tag: DW_TAG_imported_declaration, scope: !2, entity: !1035, file: !937, line: 131)
!1035 = !DISubprogram(name: "remove", scope: !42, file: !42, line: 146, type: !788, flags: DIFlagPrototyped, spFlags: DISPFlagOptimized)
!1036 = !DIImportedEntity(tag: DW_TAG_imported_declaration, scope: !2, entity: !1037, file: !937, line: 132)
!1037 = !DISubprogram(name: "rename", scope: !42, file: !42, line: 148, type: !1038, flags: DIFlagPrototyped, spFlags: DISPFlagOptimized)
!1038 = !DISubroutineType(types: !1039)
!1039 = !{!11, !45, !45}
!1040 = !DIImportedEntity(tag: DW_TAG_imported_declaration, scope: !2, entity: !1041, file: !937, line: 133)
!1041 = !DISubprogram(name: "rewind", scope: !42, file: !42, line: 699, type: !945, flags: DIFlagPrototyped, spFlags: DISPFlagOptimized)
!1042 = !DIImportedEntity(tag: DW_TAG_imported_declaration, scope: !2, entity: !1043, file: !937, line: 134)
!1043 = !DISubprogram(name: "scanf", linkageName: "__isoc99_scanf", scope: !42, file: !42, line: 413, type: !1026, flags: DIFlagPrototyped, spFlags: DISPFlagOptimized)
!1044 = !DIImportedEntity(tag: DW_TAG_imported_declaration, scope: !2, entity: !1045, file: !937, line: 135)
!1045 = !DISubprogram(name: "setbuf", scope: !42, file: !42, line: 304, type: !1046, flags: DIFlagPrototyped, spFlags: DISPFlagOptimized)
!1046 = !DISubroutineType(types: !1047)
!1047 = !{null, !964, !430}
!1048 = !DIImportedEntity(tag: DW_TAG_imported_declaration, scope: !2, entity: !1049, file: !937, line: 136)
!1049 = !DISubprogram(name: "setvbuf", scope: !42, file: !42, line: 308, type: !1050, flags: DIFlagPrototyped, spFlags: DISPFlagOptimized)
!1050 = !DISubroutineType(types: !1051)
!1051 = !{!11, !964, !430, !11, !316}
!1052 = !DIImportedEntity(tag: DW_TAG_imported_declaration, scope: !2, entity: !1053, file: !937, line: 137)
!1053 = !DISubprogram(name: "sprintf", scope: !42, file: !42, line: 334, type: !1054, flags: DIFlagPrototyped, spFlags: DISPFlagOptimized)
!1054 = !DISubroutineType(types: !1055)
!1055 = !{!11, !430, !362, null}
!1056 = !DIImportedEntity(tag: DW_TAG_imported_declaration, scope: !2, entity: !1057, file: !937, line: 138)
!1057 = !DISubprogram(name: "sscanf", linkageName: "__isoc99_sscanf", scope: !42, file: !42, line: 415, type: !1058, flags: DIFlagPrototyped, spFlags: DISPFlagOptimized)
!1058 = !DISubroutineType(types: !1059)
!1059 = !{!11, !362, !362, null}
!1060 = !DIImportedEntity(tag: DW_TAG_imported_declaration, scope: !2, entity: !1061, file: !937, line: 139)
!1061 = !DISubprogram(name: "tmpfile", scope: !42, file: !42, line: 173, type: !1062, flags: DIFlagPrototyped, spFlags: DISPFlagOptimized)
!1062 = !DISubroutineType(types: !1063)
!1063 = !{!947}
!1064 = !DIImportedEntity(tag: DW_TAG_imported_declaration, scope: !2, entity: !1065, file: !937, line: 141)
!1065 = !DISubprogram(name: "tmpnam", scope: !42, file: !42, line: 187, type: !1066, flags: DIFlagPrototyped, spFlags: DISPFlagOptimized)
!1066 = !DISubroutineType(types: !1067)
!1067 = !{!106, !106}
!1068 = !DIImportedEntity(tag: DW_TAG_imported_declaration, scope: !2, entity: !1069, file: !937, line: 143)
!1069 = !DISubprogram(name: "ungetc", scope: !42, file: !42, line: 644, type: !981, flags: DIFlagPrototyped, spFlags: DISPFlagOptimized)
!1070 = !DIImportedEntity(tag: DW_TAG_imported_declaration, scope: !2, entity: !1071, file: !937, line: 144)
!1071 = !DISubprogram(name: "vfprintf", scope: !42, file: !42, line: 341, type: !1072, flags: DIFlagPrototyped, spFlags: DISPFlagOptimized)
!1072 = !DISubroutineType(types: !1073)
!1073 = !{!11, !964, !362, !403}
!1074 = !DIImportedEntity(tag: DW_TAG_imported_declaration, scope: !2, entity: !1075, file: !937, line: 145)
!1075 = !DISubprogram(name: "vprintf", scope: !1021, file: !1021, line: 39, type: !1076, flags: DIFlagPrototyped, spFlags: DISPFlagOptimized)
!1076 = !DISubroutineType(types: !1077)
!1077 = !{!11, !362, !403}
!1078 = !DIImportedEntity(tag: DW_TAG_imported_declaration, scope: !2, entity: !1079, file: !937, line: 146)
!1079 = !DISubprogram(name: "vsprintf", scope: !42, file: !42, line: 349, type: !1080, flags: DIFlagPrototyped, spFlags: DISPFlagOptimized)
!1080 = !DISubroutineType(types: !1081)
!1081 = !{!11, !430, !362, !403}
!1082 = !DIImportedEntity(tag: DW_TAG_imported_declaration, scope: !96, entity: !1083, file: !937, line: 175)
!1083 = !DISubprogram(name: "snprintf", scope: !42, file: !42, line: 354, type: !1084, flags: DIFlagPrototyped, spFlags: DISPFlagOptimized)
!1084 = !DISubroutineType(types: !1085)
!1085 = !{!11, !430, !316, !362, null}
!1086 = !DIImportedEntity(tag: DW_TAG_imported_declaration, scope: !96, entity: !1087, file: !937, line: 176)
!1087 = !DISubprogram(name: "vfscanf", linkageName: "__isoc99_vfscanf", scope: !42, file: !42, line: 455, type: !1072, flags: DIFlagPrototyped, spFlags: DISPFlagOptimized)
!1088 = !DIImportedEntity(tag: DW_TAG_imported_declaration, scope: !96, entity: !1089, file: !937, line: 177)
!1089 = !DISubprogram(name: "vscanf", linkageName: "__isoc99_vscanf", scope: !42, file: !42, line: 460, type: !1076, flags: DIFlagPrototyped, spFlags: DISPFlagOptimized)
!1090 = !DIImportedEntity(tag: DW_TAG_imported_declaration, scope: !96, entity: !1091, file: !937, line: 178)
!1091 = !DISubprogram(name: "vsnprintf", scope: !42, file: !42, line: 358, type: !1092, flags: DIFlagPrototyped, spFlags: DISPFlagOptimized)
!1092 = !DISubroutineType(types: !1093)
!1093 = !{!11, !430, !316, !362, !403}
!1094 = !DIImportedEntity(tag: DW_TAG_imported_declaration, scope: !96, entity: !1095, file: !937, line: 179)
!1095 = !DISubprogram(name: "vsscanf", linkageName: "__isoc99_vsscanf", scope: !42, file: !42, line: 463, type: !1096, flags: DIFlagPrototyped, spFlags: DISPFlagOptimized)
!1096 = !DISubroutineType(types: !1097)
!1097 = !{!11, !362, !362, !403}
!1098 = !DIImportedEntity(tag: DW_TAG_imported_declaration, scope: !2, entity: !1083, file: !937, line: 185)
!1099 = !DIImportedEntity(tag: DW_TAG_imported_declaration, scope: !2, entity: !1087, file: !937, line: 186)
!1100 = !DIImportedEntity(tag: DW_TAG_imported_declaration, scope: !2, entity: !1089, file: !937, line: 187)
!1101 = !DIImportedEntity(tag: DW_TAG_imported_declaration, scope: !2, entity: !1091, file: !937, line: 188)
!1102 = !DIImportedEntity(tag: DW_TAG_imported_declaration, scope: !2, entity: !1095, file: !937, line: 189)
!1103 = !DIImportedEntity(tag: DW_TAG_imported_declaration, scope: !2, entity: !1104, file: !1108, line: 82)
!1104 = !DIDerivedType(tag: DW_TAG_typedef, name: "wctrans_t", file: !1105, line: 48, baseType: !1106)
!1105 = !DIFile(filename: "/usr/include/wctype.h", directory: "")
!1106 = !DIDerivedType(tag: DW_TAG_pointer_type, baseType: !1107, size: 64)
!1107 = !DIDerivedType(tag: DW_TAG_const_type, baseType: !642)
!1108 = !DIFile(filename: "/usr/lib64/gcc/x86_64-pc-linux-gnu/10.2.0/../../../../include/c++/10.2.0/cwctype", directory: "")
!1109 = !DIImportedEntity(tag: DW_TAG_imported_declaration, scope: !2, entity: !1110, file: !1108, line: 83)
!1110 = !DIDerivedType(tag: DW_TAG_typedef, name: "wctype_t", file: !1111, line: 38, baseType: !53)
!1111 = !DIFile(filename: "/usr/include/bits/wctype-wchar.h", directory: "")
!1112 = !DIImportedEntity(tag: DW_TAG_imported_declaration, scope: !2, entity: !256, file: !1108, line: 84)
!1113 = !DIImportedEntity(tag: DW_TAG_imported_declaration, scope: !2, entity: !1114, file: !1108, line: 86)
!1114 = !DISubprogram(name: "iswalnum", scope: !1111, file: !1111, line: 95, type: !508, flags: DIFlagPrototyped, spFlags: DISPFlagOptimized)
!1115 = !DIImportedEntity(tag: DW_TAG_imported_declaration, scope: !2, entity: !1116, file: !1108, line: 87)
!1116 = !DISubprogram(name: "iswalpha", scope: !1111, file: !1111, line: 101, type: !508, flags: DIFlagPrototyped, spFlags: DISPFlagOptimized)
!1117 = !DIImportedEntity(tag: DW_TAG_imported_declaration, scope: !2, entity: !1118, file: !1108, line: 89)
!1118 = !DISubprogram(name: "iswblank", scope: !1111, file: !1111, line: 146, type: !508, flags: DIFlagPrototyped, spFlags: DISPFlagOptimized)
!1119 = !DIImportedEntity(tag: DW_TAG_imported_declaration, scope: !2, entity: !1120, file: !1108, line: 91)
!1120 = !DISubprogram(name: "iswcntrl", scope: !1111, file: !1111, line: 104, type: !508, flags: DIFlagPrototyped, spFlags: DISPFlagOptimized)
!1121 = !DIImportedEntity(tag: DW_TAG_imported_declaration, scope: !2, entity: !1122, file: !1108, line: 92)
!1122 = !DISubprogram(name: "iswctype", scope: !1111, file: !1111, line: 159, type: !1123, flags: DIFlagPrototyped, spFlags: DISPFlagOptimized)
!1123 = !DISubroutineType(types: !1124)
!1124 = !{!11, !256, !1110}
!1125 = !DIImportedEntity(tag: DW_TAG_imported_declaration, scope: !2, entity: !1126, file: !1108, line: 93)
!1126 = !DISubprogram(name: "iswdigit", scope: !1111, file: !1111, line: 108, type: !508, flags: DIFlagPrototyped, spFlags: DISPFlagOptimized)
!1127 = !DIImportedEntity(tag: DW_TAG_imported_declaration, scope: !2, entity: !1128, file: !1108, line: 94)
!1128 = !DISubprogram(name: "iswgraph", scope: !1111, file: !1111, line: 112, type: !508, flags: DIFlagPrototyped, spFlags: DISPFlagOptimized)
!1129 = !DIImportedEntity(tag: DW_TAG_imported_declaration, scope: !2, entity: !1130, file: !1108, line: 95)
!1130 = !DISubprogram(name: "iswlower", scope: !1111, file: !1111, line: 117, type: !508, flags: DIFlagPrototyped, spFlags: DISPFlagOptimized)
!1131 = !DIImportedEntity(tag: DW_TAG_imported_declaration, scope: !2, entity: !1132, file: !1108, line: 96)
!1132 = !DISubprogram(name: "iswprint", scope: !1111, file: !1111, line: 120, type: !508, flags: DIFlagPrototyped, spFlags: DISPFlagOptimized)
