; ModuleID = 'integration/pthreadrace/pthread-vector-yes.cpp'
source_filename = "integration/pthreadrace/pthread-vector-yes.cpp"
target datalayout = "e-m:e-p270:32:32-p271:32:32-p272:64:64-i64:64-f80:128-n8:16:32:64-S128"
target triple = "x86_64-unknown-linux-gnu"

%"class.std::basic_ostream" = type { i32 (...)**, %"class.std::basic_ios" }
%"class.std::basic_ios" = type { %"class.std::ios_base", %"class.std::basic_ostream"*, i8, i8, %"class.std::basic_streambuf"*, %"class.std::ctype"*, %"class.std::num_put"*, %"class.std::num_get"* }
%"class.std::ios_base" = type { i32 (...)**, i64, i64, i32, i32, i32, %"struct.std::ios_base::_Callback_list"*, %"struct.std::ios_base::_Words", [8 x %"struct.std::ios_base::_Words"], i32, %"struct.std::ios_base::_Words"*, %"class.std::locale" }
%"struct.std::ios_base::_Callback_list" = type { %"struct.std::ios_base::_Callback_list"*, void (i32, %"class.std::ios_base"*, i32)*, i32, i32 }
%"struct.std::ios_base::_Words" = type { i8*, i64 }
%"class.std::locale" = type { %"class.std::locale::_Impl"* }
%"class.std::locale::_Impl" = type { i32, %"class.std::locale::facet"**, i64, %"class.std::locale::facet"**, i8** }
%"class.std::locale::facet" = type <{ i32 (...)**, i32, [4 x i8] }>
%"class.std::basic_streambuf" = type { i32 (...)**, i8*, i8*, i8*, i8*, i8*, i8*, %"class.std::locale" }
%"class.std::ctype" = type <{ %"class.std::locale::facet.base", [4 x i8], %struct.__locale_struct*, i8, [7 x i8], i32*, i32*, i16*, i8, [256 x i8], [256 x i8], i8, [6 x i8] }>
%"class.std::locale::facet.base" = type <{ i32 (...)**, i32 }>
%struct.__locale_struct = type { [13 x %struct.__locale_data*], i16*, i32*, i32*, [13 x i8*] }
%struct.__locale_data = type opaque
%"class.std::num_put" = type { %"class.std::locale::facet.base", [4 x i8] }
%"class.std::num_get" = type { %"class.std::locale::facet.base", [4 x i8] }
%"class.std::ios_base::Init" = type { i8 }
%"class.std::vector" = type { %"struct.std::_Vector_base" }
%"struct.std::_Vector_base" = type { %"struct.std::_Vector_base<unsigned long, std::allocator<unsigned long> >::_Vector_impl" }
%"struct.std::_Vector_base<unsigned long, std::allocator<unsigned long> >::_Vector_impl" = type { %"struct.std::_Vector_base<unsigned long, std::allocator<unsigned long> >::_Vector_impl_data" }
%"struct.std::_Vector_base<unsigned long, std::allocator<unsigned long> >::_Vector_impl_data" = type { i64*, i64*, i64* }
%"class.__gnu_cxx::__normal_iterator" = type { i64* }
%union.pthread_attr_t = type { i64, [48 x i8] }
%"class.std::allocator" = type { i8 }
%"class.__gnu_cxx::new_allocator" = type { i8 }
%"struct.std::integral_constant" = type { i8 }

$_ZNSt6vectorImSaImEEC2Ev = comdat any

$_ZNSt6vectorImSaImEE9push_backERKm = comdat any

$_ZNSt6vectorImSaImEE5beginEv = comdat any

$_ZNSt6vectorImSaImEE3endEv = comdat any

$_ZN9__gnu_cxxneIPmSt6vectorImSaImEEEEbRKNS_17__normal_iteratorIT_T0_EESA_ = comdat any

$_ZNK9__gnu_cxx17__normal_iteratorIPmSt6vectorImSaImEEEdeEv = comdat any

$_ZN9__gnu_cxx17__normal_iteratorIPmSt6vectorImSaImEEEppEv = comdat any

$_ZNSt6vectorImSaImEED2Ev = comdat any

$_ZNSt12_Vector_baseImSaImEEC2Ev = comdat any

$_ZNSt12_Vector_baseImSaImEE12_Vector_implC2Ev = comdat any

$_ZNSaImEC2Ev = comdat any

$_ZNSt12_Vector_baseImSaImEE17_Vector_impl_dataC2Ev = comdat any

$_ZN9__gnu_cxx13new_allocatorImEC2Ev = comdat any

$_ZSt8_DestroyIPmmEvT_S1_RSaIT0_E = comdat any

$_ZNSt12_Vector_baseImSaImEE19_M_get_Tp_allocatorEv = comdat any

$_ZNSt12_Vector_baseImSaImEED2Ev = comdat any

$__clang_call_terminate = comdat any

$_ZSt8_DestroyIPmEvT_S1_ = comdat any

$_ZNSt12_Destroy_auxILb1EE9__destroyIPmEEvT_S3_ = comdat any

$_ZNSt12_Vector_baseImSaImEE13_M_deallocateEPmm = comdat any

$_ZN9__gnu_cxx13new_allocatorImED2Ev = comdat any

$_ZNSt16allocator_traitsISaImEE10deallocateERS0_Pmm = comdat any

$_ZN9__gnu_cxx13new_allocatorImE10deallocateEPmm = comdat any

$_ZNSt16allocator_traitsISaImEE9constructImJRKmEEEvRS0_PT_DpOT0_ = comdat any

$_ZNSt6vectorImSaImEE17_M_realloc_insertIJRKmEEEvN9__gnu_cxx17__normal_iteratorIPmS1_EEDpOT_ = comdat any

$_ZN9__gnu_cxx13new_allocatorImE9constructImJRKmEEEvPT_DpOT0_ = comdat any

$_ZSt7forwardIRKmEOT_RNSt16remove_referenceIS2_E4typeE = comdat any

$_ZNKSt6vectorImSaImEE12_M_check_lenEmPKc = comdat any

$_ZN9__gnu_cxxmiIPmSt6vectorImSaImEEEENS_17__normal_iteratorIT_T0_E15difference_typeERKS8_SB_ = comdat any

$_ZNSt12_Vector_baseImSaImEE11_M_allocateEm = comdat any

$_ZNSt6vectorImSaImEE11_S_relocateEPmS2_S2_RS0_ = comdat any

$_ZNK9__gnu_cxx17__normal_iteratorIPmSt6vectorImSaImEEE4baseEv = comdat any

$_ZNKSt6vectorImSaImEE8max_sizeEv = comdat any

$_ZNKSt6vectorImSaImEE4sizeEv = comdat any

$_ZSt3maxImERKT_S2_S2_ = comdat any

$_ZNSt6vectorImSaImEE11_S_max_sizeERKS0_ = comdat any

$_ZNKSt12_Vector_baseImSaImEE19_M_get_Tp_allocatorEv = comdat any

$_ZNSt16allocator_traitsISaImEE8max_sizeERKS0_ = comdat any

$_ZSt3minImERKT_S2_S2_ = comdat any

$_ZNK9__gnu_cxx13new_allocatorImE8max_sizeEv = comdat any

$_ZNK9__gnu_cxx13new_allocatorImE11_M_max_sizeEv = comdat any

$_ZNSt16allocator_traitsISaImEE8allocateERS0_m = comdat any

$_ZN9__gnu_cxx13new_allocatorImE8allocateEmPKv = comdat any

$_ZNSt6vectorImSaImEE14_S_do_relocateEPmS2_S2_RS0_St17integral_constantIbLb1EE = comdat any

$_ZSt12__relocate_aIPmS0_SaImEET0_T_S3_S2_RT1_ = comdat any

$_ZSt14__relocate_a_1ImmENSt9enable_ifIXsr3std24__is_bitwise_relocatableIT_EE5valueEPS1_E4typeES2_S2_S2_RSaIT0_E = comdat any

$_ZSt12__niter_baseIPmET_S1_ = comdat any

$_ZN9__gnu_cxx17__normal_iteratorIPmSt6vectorImSaImEEEC2ERKS1_ = comdat any

$_ZNSt11char_traitsIcE6lengthEPKc = comdat any

$_ZStorSt12_Ios_IostateS_ = comdat any

$_ZSt13__check_facetISt5ctypeIcEERKT_PS3_ = comdat any

$_ZNKSt5ctypeIcE5widenEc = comdat any

@_ZSt4cout = external dso_local global %"class.std::basic_ostream", align 8
@.str = private unnamed_addr constant [9 x i8] c"accum = \00", align 1
@accum = dso_local global i32 0, align 4, !dbg !0
@_ZStL8__ioinit = internal global %"class.std::ios_base::Init" zeroinitializer, align 1, !dbg !591
@__dso_handle = external hidden global i8
@.str.1 = private unnamed_addr constant [26 x i8] c"vector::_M_realloc_insert\00", align 1
@llvm.global_ctors = appending global [1 x { i32, void ()*, i8* }] [{ i32, void ()*, i8* } { i32 65535, void ()* @_GLOBAL__sub_I_pthread_vector_yes.cpp, i8* null }]

; Function Attrs: norecurse uwtable
define dso_local i32 @main() #0 personality i8* bitcast (i32 (...)* @__gxx_personality_v0 to i8*) !dbg !1542 {
entry:
  %retval = alloca i32, align 4
  %ths = alloca %"class.std::vector", align 8
  %i = alloca i64, align 8
  %th = alloca i64, align 8
  %exn.slot = alloca i8*
  %ehselector.slot = alloca i32
  %__range1 = alloca %"class.std::vector"*, align 8
  %__begin1 = alloca %"class.__gnu_cxx::__normal_iterator", align 8
  %__end1 = alloca %"class.__gnu_cxx::__normal_iterator", align 8
  %th8 = alloca i64*, align 8
  store i32 0, i32* %retval, align 4
  %0 = bitcast %"class.std::vector"* %ths to i8*, !dbg !1558
  call void @llvm.lifetime.start.p0i8(i64 24, i8* %0) #9, !dbg !1558
  call void @llvm.dbg.declare(metadata %"class.std::vector"* %ths, metadata !1544, metadata !DIExpression()), !dbg !1559
  call void @_ZNSt6vectorImSaImEEC2Ev(%"class.std::vector"* %ths) #9, !dbg !1559
  %1 = bitcast i64* %i to i8*, !dbg !1560
  call void @llvm.lifetime.start.p0i8(i64 8, i8* %1) #9, !dbg !1560
  call void @llvm.dbg.declare(metadata i64* %i, metadata !1545, metadata !DIExpression()), !dbg !1561
  store i64 1, i64* %i, align 8, !dbg !1561, !tbaa !1562
  br label %for.cond, !dbg !1560

for.cond:                                         ; preds = %for.inc, %entry
  %2 = load i64, i64* %i, align 8, !dbg !1566, !tbaa !1562
  %cmp = icmp sle i64 %2, 20, !dbg !1567
  br i1 %cmp, label %for.body, label %for.cond.cleanup, !dbg !1568

for.cond.cleanup:                                 ; preds = %for.cond
  %3 = bitcast i64* %i to i8*, !dbg !1569
  call void @llvm.lifetime.end.p0i8(i64 8, i8* %3) #9, !dbg !1569
  br label %for.end

for.body:                                         ; preds = %for.cond
  %4 = bitcast i64* %th to i8*, !dbg !1570
  call void @llvm.lifetime.start.p0i8(i64 8, i8* %4) #9, !dbg !1570
  call void @llvm.dbg.declare(metadata i64* %th, metadata !1547, metadata !DIExpression()), !dbg !1571
  %5 = load i64, i64* %i, align 8, !dbg !1572, !tbaa !1562
  %6 = inttoptr i64 %5 to i8*, !dbg !1573
  %call = call i32 @pthread_create(i64* %th, %union.pthread_attr_t* null, i8* (i8*)* @_ZL6squarePv, i8* %6) #9, !dbg !1574
  invoke void @_ZNSt6vectorImSaImEE9push_backERKm(%"class.std::vector"* %ths, i64* dereferenceable(8) %th)
          to label %invoke.cont unwind label %lpad, !dbg !1575

invoke.cont:                                      ; preds = %for.body
  %7 = bitcast i64* %th to i8*, !dbg !1576
  call void @llvm.lifetime.end.p0i8(i64 8, i8* %7) #9, !dbg !1576
  br label %for.inc, !dbg !1577

for.inc:                                          ; preds = %invoke.cont
  %8 = load i64, i64* %i, align 8, !dbg !1578, !tbaa !1562
  %inc = add nsw i64 %8, 1, !dbg !1578
  store i64 %inc, i64* %i, align 8, !dbg !1578, !tbaa !1562
  br label %for.cond, !dbg !1569, !llvm.loop !1579

lpad:                                             ; preds = %for.body
  %9 = landingpad { i8*, i32 }
          cleanup, !dbg !1581
  %10 = extractvalue { i8*, i32 } %9, 0, !dbg !1581
  store i8* %10, i8** %exn.slot, align 8, !dbg !1581
  %11 = extractvalue { i8*, i32 } %9, 1, !dbg !1581
  store i32 %11, i32* %ehselector.slot, align 4, !dbg !1581
  %12 = bitcast i64* %th to i8*, !dbg !1576
  call void @llvm.lifetime.end.p0i8(i64 8, i8* %12) #9, !dbg !1576
  %13 = bitcast i64* %i to i8*, !dbg !1569
  call void @llvm.lifetime.end.p0i8(i64 8, i8* %13) #9, !dbg !1569
  br label %ehcleanup, !dbg !1569

for.end:                                          ; preds = %for.cond.cleanup
  %14 = bitcast %"class.std::vector"** %__range1 to i8*, !dbg !1582
  call void @llvm.lifetime.start.p0i8(i64 8, i8* %14) #9, !dbg !1582
  call void @llvm.dbg.declare(metadata %"class.std::vector"** %__range1, metadata !1552, metadata !DIExpression()), !dbg !1583
  store %"class.std::vector"* %ths, %"class.std::vector"** %__range1, align 8, !dbg !1582, !tbaa !1584
  %15 = bitcast %"class.__gnu_cxx::__normal_iterator"* %__begin1 to i8*, !dbg !1586
  call void @llvm.lifetime.start.p0i8(i64 8, i8* %15) #9, !dbg !1586
  call void @llvm.dbg.declare(metadata %"class.__gnu_cxx::__normal_iterator"* %__begin1, metadata !1554, metadata !DIExpression()), !dbg !1583
  %16 = load %"class.std::vector"*, %"class.std::vector"** %__range1, align 8, !dbg !1586, !tbaa !1584
  %call1 = call i64* @_ZNSt6vectorImSaImEE5beginEv(%"class.std::vector"* %16) #9, !dbg !1586
  %coerce.dive = getelementptr inbounds %"class.__gnu_cxx::__normal_iterator", %"class.__gnu_cxx::__normal_iterator"* %__begin1, i32 0, i32 0, !dbg !1586
  store i64* %call1, i64** %coerce.dive, align 8, !dbg !1586
  %17 = bitcast %"class.__gnu_cxx::__normal_iterator"* %__end1 to i8*, !dbg !1586
  call void @llvm.lifetime.start.p0i8(i64 8, i8* %17) #9, !dbg !1586
  call void @llvm.dbg.declare(metadata %"class.__gnu_cxx::__normal_iterator"* %__end1, metadata !1555, metadata !DIExpression()), !dbg !1583
  %18 = load %"class.std::vector"*, %"class.std::vector"** %__range1, align 8, !dbg !1586, !tbaa !1584
  %call2 = call i64* @_ZNSt6vectorImSaImEE3endEv(%"class.std::vector"* %18) #9, !dbg !1586
  %coerce.dive3 = getelementptr inbounds %"class.__gnu_cxx::__normal_iterator", %"class.__gnu_cxx::__normal_iterator"* %__end1, i32 0, i32 0, !dbg !1586
  store i64* %call2, i64** %coerce.dive3, align 8, !dbg !1586
  br label %for.cond4, !dbg !1586

for.cond4:                                        ; preds = %for.inc13, %for.end
  %call5 = call zeroext i1 @_ZN9__gnu_cxxneIPmSt6vectorImSaImEEEEbRKNS_17__normal_iteratorIT_T0_EESA_(%"class.__gnu_cxx::__normal_iterator"* dereferenceable(8) %__begin1, %"class.__gnu_cxx::__normal_iterator"* dereferenceable(8) %__end1) #9, !dbg !1586
  br i1 %call5, label %for.body7, label %for.cond.cleanup6, !dbg !1586

for.cond.cleanup6:                                ; preds = %for.cond4
  %19 = bitcast %"class.__gnu_cxx::__normal_iterator"* %__end1 to i8*, !dbg !1586
  call void @llvm.lifetime.end.p0i8(i64 8, i8* %19) #9, !dbg !1586
  %20 = bitcast %"class.__gnu_cxx::__normal_iterator"* %__begin1 to i8*, !dbg !1586
  call void @llvm.lifetime.end.p0i8(i64 8, i8* %20) #9, !dbg !1586
  %21 = bitcast %"class.std::vector"** %__range1 to i8*, !dbg !1586
  call void @llvm.lifetime.end.p0i8(i64 8, i8* %21) #9, !dbg !1586
  br label %for.end15

for.body7:                                        ; preds = %for.cond4
  %22 = bitcast i64** %th8 to i8*, !dbg !1587
  call void @llvm.lifetime.start.p0i8(i64 8, i8* %22) #9, !dbg !1587
  call void @llvm.dbg.declare(metadata i64** %th8, metadata !1556, metadata !DIExpression()), !dbg !1588
  %call9 = call dereferenceable(8) i64* @_ZNK9__gnu_cxx17__normal_iteratorIPmSt6vectorImSaImEEEdeEv(%"class.__gnu_cxx::__normal_iterator"* %__begin1) #9, !dbg !1589
  store i64* %call9, i64** %th8, align 8, !dbg !1588, !tbaa !1584
  %23 = load i64*, i64** %th8, align 8, !dbg !1590, !tbaa !1584
  %24 = load i64, i64* %23, align 8, !dbg !1590, !tbaa !1562
  %call12 = invoke i32 @pthread_join(i64 %24, i8** null)
          to label %invoke.cont11 unwind label %lpad10, !dbg !1592

invoke.cont11:                                    ; preds = %for.body7
  %25 = bitcast i64** %th8 to i8*, !dbg !1593
  call void @llvm.lifetime.end.p0i8(i64 8, i8* %25) #9, !dbg !1593
  br label %for.inc13, !dbg !1594

for.inc13:                                        ; preds = %invoke.cont11
  %call14 = call dereferenceable(8) %"class.__gnu_cxx::__normal_iterator"* @_ZN9__gnu_cxx17__normal_iteratorIPmSt6vectorImSaImEEEppEv(%"class.__gnu_cxx::__normal_iterator"* %__begin1) #9, !dbg !1586
  br label %for.cond4, !dbg !1586, !llvm.loop !1595

lpad10:                                           ; preds = %for.body7
  %26 = landingpad { i8*, i32 }
          cleanup, !dbg !1596
  %27 = extractvalue { i8*, i32 } %26, 0, !dbg !1596
  store i8* %27, i8** %exn.slot, align 8, !dbg !1596
  %28 = extractvalue { i8*, i32 } %26, 1, !dbg !1596
  store i32 %28, i32* %ehselector.slot, align 4, !dbg !1596
  %29 = bitcast i64** %th8 to i8*, !dbg !1593
  call void @llvm.lifetime.end.p0i8(i64 8, i8* %29) #9, !dbg !1593
  %30 = bitcast %"class.__gnu_cxx::__normal_iterator"* %__end1 to i8*, !dbg !1586
  call void @llvm.lifetime.end.p0i8(i64 8, i8* %30) #9, !dbg !1586
  %31 = bitcast %"class.__gnu_cxx::__normal_iterator"* %__begin1 to i8*, !dbg !1586
  call void @llvm.lifetime.end.p0i8(i64 8, i8* %31) #9, !dbg !1586
  %32 = bitcast %"class.std::vector"** %__range1 to i8*, !dbg !1586
  call void @llvm.lifetime.end.p0i8(i64 8, i8* %32) #9, !dbg !1586
  br label %ehcleanup, !dbg !1586

for.end15:                                        ; preds = %for.cond.cleanup6
  %call18 = invoke dereferenceable(272) %"class.std::basic_ostream"* @_ZStlsISt11char_traitsIcEERSt13basic_ostreamIcT_ES5_PKc(%"class.std::basic_ostream"* dereferenceable(272) @_ZSt4cout, i8* getelementptr inbounds ([9 x i8], [9 x i8]* @.str, i64 0, i64 0))
          to label %invoke.cont17 unwind label %lpad16, !dbg !1597

invoke.cont17:                                    ; preds = %for.end15
  %33 = load i32, i32* @accum, align 4, !dbg !1598, !tbaa !1599
  %call20 = invoke dereferenceable(272) %"class.std::basic_ostream"* @_ZNSolsEi(%"class.std::basic_ostream"* %call18, i32 %33)
          to label %invoke.cont19 unwind label %lpad16, !dbg !1601

invoke.cont19:                                    ; preds = %invoke.cont17
  %call22 = invoke dereferenceable(272) %"class.std::basic_ostream"* @_ZNSolsEPFRSoS_E(%"class.std::basic_ostream"* %call20, %"class.std::basic_ostream"* (%"class.std::basic_ostream"*)* @_ZSt4endlIcSt11char_traitsIcEERSt13basic_ostreamIT_T0_ES6_)
          to label %invoke.cont21 unwind label %lpad16, !dbg !1602

invoke.cont21:                                    ; preds = %invoke.cont19
  store i32 0, i32* %retval, align 4, !dbg !1603
  call void @_ZNSt6vectorImSaImEED2Ev(%"class.std::vector"* %ths) #9, !dbg !1604
  %34 = bitcast %"class.std::vector"* %ths to i8*, !dbg !1604
  call void @llvm.lifetime.end.p0i8(i64 24, i8* %34) #9, !dbg !1604
  %35 = load i32, i32* %retval, align 4, !dbg !1604
  ret i32 %35, !dbg !1604

lpad16:                                           ; preds = %invoke.cont19, %invoke.cont17, %for.end15
  %36 = landingpad { i8*, i32 }
          cleanup, !dbg !1604
  %37 = extractvalue { i8*, i32 } %36, 0, !dbg !1604
  store i8* %37, i8** %exn.slot, align 8, !dbg !1604
  %38 = extractvalue { i8*, i32 } %36, 1, !dbg !1604
  store i32 %38, i32* %ehselector.slot, align 4, !dbg !1604
  br label %ehcleanup, !dbg !1604

ehcleanup:                                        ; preds = %lpad16, %lpad10, %lpad
  call void @_ZNSt6vectorImSaImEED2Ev(%"class.std::vector"* %ths) #9, !dbg !1604
  %39 = bitcast %"class.std::vector"* %ths to i8*, !dbg !1604
  call void @llvm.lifetime.end.p0i8(i64 24, i8* %39) #9, !dbg !1604
  br label %eh.resume, !dbg !1604

eh.resume:                                        ; preds = %ehcleanup
  %exn = load i8*, i8** %exn.slot, align 8, !dbg !1604
  %sel = load i32, i32* %ehselector.slot, align 4, !dbg !1604
  %lpad.val = insertvalue { i8*, i32 } undef, i8* %exn, 0, !dbg !1604
  %lpad.val24 = insertvalue { i8*, i32 } %lpad.val, i32 %sel, 1, !dbg !1604
  resume { i8*, i32 } %lpad.val24, !dbg !1604
}

; Function Attrs: argmemonly nounwind willreturn
declare void @llvm.lifetime.start.p0i8(i64 immarg, i8* nocapture) #1

; Function Attrs: nounwind readnone speculatable willreturn
declare void @llvm.dbg.declare(metadata, metadata, metadata) #2

; Function Attrs: nounwind uwtable
define linkonce_odr dso_local void @_ZNSt6vectorImSaImEEC2Ev(%"class.std::vector"* %this) unnamed_addr #3 comdat align 2 !dbg !1605 {
entry:
  %this.addr = alloca %"class.std::vector"*, align 8
  store %"class.std::vector"* %this, %"class.std::vector"** %this.addr, align 8, !tbaa !1584
  call void @llvm.dbg.declare(metadata %"class.std::vector"** %this.addr, metadata !1607, metadata !DIExpression()), !dbg !1609
  %this1 = load %"class.std::vector"*, %"class.std::vector"** %this.addr, align 8
  %0 = bitcast %"class.std::vector"* %this1 to %"struct.std::_Vector_base"*, !dbg !1610
  call void @_ZNSt12_Vector_baseImSaImEEC2Ev(%"struct.std::_Vector_base"* %0) #9, !dbg !1611
  ret void, !dbg !1610
}

; Function Attrs: nounwind
declare !callback !1612 dso_local i32 @pthread_create(i64*, %union.pthread_attr_t*, i8* (i8*)*, i8*) #4

; Function Attrs: nounwind uwtable
define internal i8* @_ZL6squarePv(i8* %x) #3 !dbg !1614 {
entry:
  %x.addr = alloca i8*, align 8
  %k = alloca i64, align 8
  store i8* %x, i8** %x.addr, align 8, !tbaa !1584
  call void @llvm.dbg.declare(metadata i8** %x.addr, metadata !1618, metadata !DIExpression()), !dbg !1620
  %0 = bitcast i64* %k to i8*, !dbg !1621
  call void @llvm.lifetime.start.p0i8(i64 8, i8* %0) #9, !dbg !1621
  call void @llvm.dbg.declare(metadata i64* %k, metadata !1619, metadata !DIExpression()), !dbg !1622
  %1 = load i8*, i8** %x.addr, align 8, !dbg !1623, !tbaa !1584
  %2 = ptrtoint i8* %1 to i64, !dbg !1624
  store i64 %2, i64* %k, align 8, !dbg !1622, !tbaa !1562
  %3 = load i64, i64* %k, align 8, !dbg !1625, !tbaa !1562
  %4 = load i64, i64* %k, align 8, !dbg !1626, !tbaa !1562
  %mul = mul nsw i64 %3, %4, !dbg !1627
  %5 = load i32, i32* @accum, align 4, !dbg !1628, !tbaa !1599
  %conv = sext i32 %5 to i64, !dbg !1628
  %add = add nsw i64 %conv, %mul, !dbg !1628
  %conv1 = trunc i64 %add to i32, !dbg !1628
  store i32 %conv1, i32* @accum, align 4, !dbg !1628, !tbaa !1599
  %6 = bitcast i64* %k to i8*, !dbg !1629
  call void @llvm.lifetime.end.p0i8(i64 8, i8* %6) #9, !dbg !1629
  ret i8* null, !dbg !1630
}

; Function Attrs: uwtable
define linkonce_odr dso_local void @_ZNSt6vectorImSaImEE9push_backERKm(%"class.std::vector"* %this, i64* dereferenceable(8) %__x) #5 comdat align 2 !dbg !1631 {
entry:
  %this.addr = alloca %"class.std::vector"*, align 8
  %__x.addr = alloca i64*, align 8
  %agg.tmp = alloca %"class.__gnu_cxx::__normal_iterator", align 8
  store %"class.std::vector"* %this, %"class.std::vector"** %this.addr, align 8, !tbaa !1584
  call void @llvm.dbg.declare(metadata %"class.std::vector"** %this.addr, metadata !1633, metadata !DIExpression()), !dbg !1635
  store i64* %__x, i64** %__x.addr, align 8, !tbaa !1584
  call void @llvm.dbg.declare(metadata i64** %__x.addr, metadata !1634, metadata !DIExpression()), !dbg !1636
  %this1 = load %"class.std::vector"*, %"class.std::vector"** %this.addr, align 8
  %0 = bitcast %"class.std::vector"* %this1 to %"struct.std::_Vector_base"*, !dbg !1637
  %_M_impl = getelementptr inbounds %"struct.std::_Vector_base", %"struct.std::_Vector_base"* %0, i32 0, i32 0, !dbg !1637
  %1 = bitcast %"struct.std::_Vector_base<unsigned long, std::allocator<unsigned long> >::_Vector_impl"* %_M_impl to %"struct.std::_Vector_base<unsigned long, std::allocator<unsigned long> >::_Vector_impl_data"*, !dbg !1639
  %_M_finish = getelementptr inbounds %"struct.std::_Vector_base<unsigned long, std::allocator<unsigned long> >::_Vector_impl_data", %"struct.std::_Vector_base<unsigned long, std::allocator<unsigned long> >::_Vector_impl_data"* %1, i32 0, i32 1, !dbg !1640
  %2 = load i64*, i64** %_M_finish, align 8, !dbg !1640, !tbaa !1641
  %3 = bitcast %"class.std::vector"* %this1 to %"struct.std::_Vector_base"*, !dbg !1643
  %_M_impl2 = getelementptr inbounds %"struct.std::_Vector_base", %"struct.std::_Vector_base"* %3, i32 0, i32 0, !dbg !1643
  %4 = bitcast %"struct.std::_Vector_base<unsigned long, std::allocator<unsigned long> >::_Vector_impl"* %_M_impl2 to %"struct.std::_Vector_base<unsigned long, std::allocator<unsigned long> >::_Vector_impl_data"*, !dbg !1644
  %_M_end_of_storage = getelementptr inbounds %"struct.std::_Vector_base<unsigned long, std::allocator<unsigned long> >::_Vector_impl_data", %"struct.std::_Vector_base<unsigned long, std::allocator<unsigned long> >::_Vector_impl_data"* %4, i32 0, i32 2, !dbg !1645
  %5 = load i64*, i64** %_M_end_of_storage, align 8, !dbg !1645, !tbaa !1646
  %cmp = icmp ne i64* %2, %5, !dbg !1647
  br i1 %cmp, label %if.then, label %if.else, !dbg !1648

if.then:                                          ; preds = %entry
  %6 = bitcast %"class.std::vector"* %this1 to %"struct.std::_Vector_base"*, !dbg !1649
  %_M_impl3 = getelementptr inbounds %"struct.std::_Vector_base", %"struct.std::_Vector_base"* %6, i32 0, i32 0, !dbg !1649
  %7 = bitcast %"struct.std::_Vector_base<unsigned long, std::allocator<unsigned long> >::_Vector_impl"* %_M_impl3 to %"class.std::allocator"*, !dbg !1651
  %8 = bitcast %"class.std::vector"* %this1 to %"struct.std::_Vector_base"*, !dbg !1652
  %_M_impl4 = getelementptr inbounds %"struct.std::_Vector_base", %"struct.std::_Vector_base"* %8, i32 0, i32 0, !dbg !1652
  %9 = bitcast %"struct.std::_Vector_base<unsigned long, std::allocator<unsigned long> >::_Vector_impl"* %_M_impl4 to %"struct.std::_Vector_base<unsigned long, std::allocator<unsigned long> >::_Vector_impl_data"*, !dbg !1653
  %_M_finish5 = getelementptr inbounds %"struct.std::_Vector_base<unsigned long, std::allocator<unsigned long> >::_Vector_impl_data", %"struct.std::_Vector_base<unsigned long, std::allocator<unsigned long> >::_Vector_impl_data"* %9, i32 0, i32 1, !dbg !1654
  %10 = load i64*, i64** %_M_finish5, align 8, !dbg !1654, !tbaa !1641
  %11 = load i64*, i64** %__x.addr, align 8, !dbg !1655, !tbaa !1584
  call void @_ZNSt16allocator_traitsISaImEE9constructImJRKmEEEvRS0_PT_DpOT0_(%"class.std::allocator"* dereferenceable(1) %7, i64* %10, i64* dereferenceable(8) %11) #9, !dbg !1656
  %12 = bitcast %"class.std::vector"* %this1 to %"struct.std::_Vector_base"*, !dbg !1657
  %_M_impl6 = getelementptr inbounds %"struct.std::_Vector_base", %"struct.std::_Vector_base"* %12, i32 0, i32 0, !dbg !1657
  %13 = bitcast %"struct.std::_Vector_base<unsigned long, std::allocator<unsigned long> >::_Vector_impl"* %_M_impl6 to %"struct.std::_Vector_base<unsigned long, std::allocator<unsigned long> >::_Vector_impl_data"*, !dbg !1658
  %_M_finish7 = getelementptr inbounds %"struct.std::_Vector_base<unsigned long, std::allocator<unsigned long> >::_Vector_impl_data", %"struct.std::_Vector_base<unsigned long, std::allocator<unsigned long> >::_Vector_impl_data"* %13, i32 0, i32 1, !dbg !1659
  %14 = load i64*, i64** %_M_finish7, align 8, !dbg !1660, !tbaa !1641
  %incdec.ptr = getelementptr inbounds i64, i64* %14, i32 1, !dbg !1660
  store i64* %incdec.ptr, i64** %_M_finish7, align 8, !dbg !1660, !tbaa !1641
  br label %if.end, !dbg !1661

if.else:                                          ; preds = %entry
  %call = call i64* @_ZNSt6vectorImSaImEE3endEv(%"class.std::vector"* %this1) #9, !dbg !1662
  %coerce.dive = getelementptr inbounds %"class.__gnu_cxx::__normal_iterator", %"class.__gnu_cxx::__normal_iterator"* %agg.tmp, i32 0, i32 0, !dbg !1662
  store i64* %call, i64** %coerce.dive, align 8, !dbg !1662
  %15 = load i64*, i64** %__x.addr, align 8, !dbg !1663, !tbaa !1584
  %coerce.dive8 = getelementptr inbounds %"class.__gnu_cxx::__normal_iterator", %"class.__gnu_cxx::__normal_iterator"* %agg.tmp, i32 0, i32 0, !dbg !1664
  %16 = load i64*, i64** %coerce.dive8, align 8, !dbg !1664
  call void @_ZNSt6vectorImSaImEE17_M_realloc_insertIJRKmEEEvN9__gnu_cxx17__normal_iteratorIPmS1_EEDpOT_(%"class.std::vector"* %this1, i64* %16, i64* dereferenceable(8) %15), !dbg !1664
  br label %if.end

if.end:                                           ; preds = %if.else, %if.then
  ret void, !dbg !1665
}

declare dso_local i32 @__gxx_personality_v0(...)

; Function Attrs: argmemonly nounwind willreturn
declare void @llvm.lifetime.end.p0i8(i64 immarg, i8* nocapture) #1

; Function Attrs: nounwind uwtable
define linkonce_odr dso_local i64* @_ZNSt6vectorImSaImEE5beginEv(%"class.std::vector"* %this) #3 comdat align 2 !dbg !1666 {
entry:
  %retval = alloca %"class.__gnu_cxx::__normal_iterator", align 8
  %this.addr = alloca %"class.std::vector"*, align 8
  store %"class.std::vector"* %this, %"class.std::vector"** %this.addr, align 8, !tbaa !1584
  call void @llvm.dbg.declare(metadata %"class.std::vector"** %this.addr, metadata !1668, metadata !DIExpression()), !dbg !1669
  %this1 = load %"class.std::vector"*, %"class.std::vector"** %this.addr, align 8
  %0 = bitcast %"class.std::vector"* %this1 to %"struct.std::_Vector_base"*, !dbg !1670
  %_M_impl = getelementptr inbounds %"struct.std::_Vector_base", %"struct.std::_Vector_base"* %0, i32 0, i32 0, !dbg !1670
  %1 = bitcast %"struct.std::_Vector_base<unsigned long, std::allocator<unsigned long> >::_Vector_impl"* %_M_impl to %"struct.std::_Vector_base<unsigned long, std::allocator<unsigned long> >::_Vector_impl_data"*, !dbg !1671
  %_M_start = getelementptr inbounds %"struct.std::_Vector_base<unsigned long, std::allocator<unsigned long> >::_Vector_impl_data", %"struct.std::_Vector_base<unsigned long, std::allocator<unsigned long> >::_Vector_impl_data"* %1, i32 0, i32 0, !dbg !1672
  call void @_ZN9__gnu_cxx17__normal_iteratorIPmSt6vectorImSaImEEEC2ERKS1_(%"class.__gnu_cxx::__normal_iterator"* %retval, i64** dereferenceable(8) %_M_start) #9, !dbg !1673
  %coerce.dive = getelementptr inbounds %"class.__gnu_cxx::__normal_iterator", %"class.__gnu_cxx::__normal_iterator"* %retval, i32 0, i32 0, !dbg !1674
  %2 = load i64*, i64** %coerce.dive, align 8, !dbg !1674
  ret i64* %2, !dbg !1674
}

; Function Attrs: nounwind uwtable
define linkonce_odr dso_local i64* @_ZNSt6vectorImSaImEE3endEv(%"class.std::vector"* %this) #3 comdat align 2 !dbg !1675 {
entry:
  %retval = alloca %"class.__gnu_cxx::__normal_iterator", align 8
  %this.addr = alloca %"class.std::vector"*, align 8
  store %"class.std::vector"* %this, %"class.std::vector"** %this.addr, align 8, !tbaa !1584
  call void @llvm.dbg.declare(metadata %"class.std::vector"** %this.addr, metadata !1677, metadata !DIExpression()), !dbg !1678
  %this1 = load %"class.std::vector"*, %"class.std::vector"** %this.addr, align 8
  %0 = bitcast %"class.std::vector"* %this1 to %"struct.std::_Vector_base"*, !dbg !1679
  %_M_impl = getelementptr inbounds %"struct.std::_Vector_base", %"struct.std::_Vector_base"* %0, i32 0, i32 0, !dbg !1679
  %1 = bitcast %"struct.std::_Vector_base<unsigned long, std::allocator<unsigned long> >::_Vector_impl"* %_M_impl to %"struct.std::_Vector_base<unsigned long, std::allocator<unsigned long> >::_Vector_impl_data"*, !dbg !1680
  %_M_finish = getelementptr inbounds %"struct.std::_Vector_base<unsigned long, std::allocator<unsigned long> >::_Vector_impl_data", %"struct.std::_Vector_base<unsigned long, std::allocator<unsigned long> >::_Vector_impl_data"* %1, i32 0, i32 1, !dbg !1681
  call void @_ZN9__gnu_cxx17__normal_iteratorIPmSt6vectorImSaImEEEC2ERKS1_(%"class.__gnu_cxx::__normal_iterator"* %retval, i64** dereferenceable(8) %_M_finish) #9, !dbg !1682
  %coerce.dive = getelementptr inbounds %"class.__gnu_cxx::__normal_iterator", %"class.__gnu_cxx::__normal_iterator"* %retval, i32 0, i32 0, !dbg !1683
  %2 = load i64*, i64** %coerce.dive, align 8, !dbg !1683
  ret i64* %2, !dbg !1683
}

; Function Attrs: inlinehint nounwind uwtable
define linkonce_odr dso_local zeroext i1 @_ZN9__gnu_cxxneIPmSt6vectorImSaImEEEEbRKNS_17__normal_iteratorIT_T0_EESA_(%"class.__gnu_cxx::__normal_iterator"* dereferenceable(8) %__lhs, %"class.__gnu_cxx::__normal_iterator"* dereferenceable(8) %__rhs) #6 comdat !dbg !1684 {
entry:
  %__lhs.addr = alloca %"class.__gnu_cxx::__normal_iterator"*, align 8
  %__rhs.addr = alloca %"class.__gnu_cxx::__normal_iterator"*, align 8
  store %"class.__gnu_cxx::__normal_iterator"* %__lhs, %"class.__gnu_cxx::__normal_iterator"** %__lhs.addr, align 8, !tbaa !1584
  call void @llvm.dbg.declare(metadata %"class.__gnu_cxx::__normal_iterator"** %__lhs.addr, metadata !1689, metadata !DIExpression()), !dbg !1691
  store %"class.__gnu_cxx::__normal_iterator"* %__rhs, %"class.__gnu_cxx::__normal_iterator"** %__rhs.addr, align 8, !tbaa !1584
  call void @llvm.dbg.declare(metadata %"class.__gnu_cxx::__normal_iterator"** %__rhs.addr, metadata !1690, metadata !DIExpression()), !dbg !1692
  %0 = load %"class.__gnu_cxx::__normal_iterator"*, %"class.__gnu_cxx::__normal_iterator"** %__lhs.addr, align 8, !dbg !1693, !tbaa !1584
  %call = call dereferenceable(8) i64** @_ZNK9__gnu_cxx17__normal_iteratorIPmSt6vectorImSaImEEE4baseEv(%"class.__gnu_cxx::__normal_iterator"* %0) #9, !dbg !1694
  %1 = load i64*, i64** %call, align 8, !dbg !1694, !tbaa !1584
  %2 = load %"class.__gnu_cxx::__normal_iterator"*, %"class.__gnu_cxx::__normal_iterator"** %__rhs.addr, align 8, !dbg !1695, !tbaa !1584
  %call1 = call dereferenceable(8) i64** @_ZNK9__gnu_cxx17__normal_iteratorIPmSt6vectorImSaImEEE4baseEv(%"class.__gnu_cxx::__normal_iterator"* %2) #9, !dbg !1696
  %3 = load i64*, i64** %call1, align 8, !dbg !1696, !tbaa !1584
  %cmp = icmp ne i64* %1, %3, !dbg !1697
  ret i1 %cmp, !dbg !1698
}

; Function Attrs: nounwind uwtable
define linkonce_odr dso_local dereferenceable(8) i64* @_ZNK9__gnu_cxx17__normal_iteratorIPmSt6vectorImSaImEEEdeEv(%"class.__gnu_cxx::__normal_iterator"* %this) #3 comdat align 2 !dbg !1699 {
entry:
  %this.addr = alloca %"class.__gnu_cxx::__normal_iterator"*, align 8
  store %"class.__gnu_cxx::__normal_iterator"* %this, %"class.__gnu_cxx::__normal_iterator"** %this.addr, align 8, !tbaa !1584
  call void @llvm.dbg.declare(metadata %"class.__gnu_cxx::__normal_iterator"** %this.addr, metadata !1701, metadata !DIExpression()), !dbg !1703
  %this1 = load %"class.__gnu_cxx::__normal_iterator"*, %"class.__gnu_cxx::__normal_iterator"** %this.addr, align 8
  %_M_current = getelementptr inbounds %"class.__gnu_cxx::__normal_iterator", %"class.__gnu_cxx::__normal_iterator"* %this1, i32 0, i32 0, !dbg !1704
  %0 = load i64*, i64** %_M_current, align 8, !dbg !1704, !tbaa !1705
  ret i64* %0, !dbg !1707
}

declare !dbg !19 dso_local i32 @pthread_join(i64, i8**) #7

; Function Attrs: nounwind uwtable
define linkonce_odr dso_local dereferenceable(8) %"class.__gnu_cxx::__normal_iterator"* @_ZN9__gnu_cxx17__normal_iteratorIPmSt6vectorImSaImEEEppEv(%"class.__gnu_cxx::__normal_iterator"* %this) #3 comdat align 2 !dbg !1708 {
entry:
  %this.addr = alloca %"class.__gnu_cxx::__normal_iterator"*, align 8
  store %"class.__gnu_cxx::__normal_iterator"* %this, %"class.__gnu_cxx::__normal_iterator"** %this.addr, align 8, !tbaa !1584
  call void @llvm.dbg.declare(metadata %"class.__gnu_cxx::__normal_iterator"** %this.addr, metadata !1710, metadata !DIExpression()), !dbg !1712
  %this1 = load %"class.__gnu_cxx::__normal_iterator"*, %"class.__gnu_cxx::__normal_iterator"** %this.addr, align 8
  %_M_current = getelementptr inbounds %"class.__gnu_cxx::__normal_iterator", %"class.__gnu_cxx::__normal_iterator"* %this1, i32 0, i32 0, !dbg !1713
  %0 = load i64*, i64** %_M_current, align 8, !dbg !1714, !tbaa !1705
  %incdec.ptr = getelementptr inbounds i64, i64* %0, i32 1, !dbg !1714
  store i64* %incdec.ptr, i64** %_M_current, align 8, !dbg !1714, !tbaa !1705
  ret %"class.__gnu_cxx::__normal_iterator"* %this1, !dbg !1715
}

; Function Attrs: inlinehint uwtable
define available_externally dso_local dereferenceable(272) %"class.std::basic_ostream"* @_ZStlsISt11char_traitsIcEERSt13basic_ostreamIcT_ES5_PKc(%"class.std::basic_ostream"* dereferenceable(272) %__out, i8* %__s) #8 !dbg !1716 {
entry:
  %__out.addr = alloca %"class.std::basic_ostream"*, align 8
  %__s.addr = alloca i8*, align 8
  store %"class.std::basic_ostream"* %__out, %"class.std::basic_ostream"** %__out.addr, align 8, !tbaa !1584
  call void @llvm.dbg.declare(metadata %"class.std::basic_ostream"** %__out.addr, metadata !1724, metadata !DIExpression()), !dbg !1780
  store i8* %__s, i8** %__s.addr, align 8, !tbaa !1584
  call void @llvm.dbg.declare(metadata i8** %__s.addr, metadata !1725, metadata !DIExpression()), !dbg !1781
  %0 = load i8*, i8** %__s.addr, align 8, !dbg !1782, !tbaa !1584
  %tobool = icmp ne i8* %0, null, !dbg !1782
  br i1 %tobool, label %if.else, label %if.then, !dbg !1784

if.then:                                          ; preds = %entry
  %1 = load %"class.std::basic_ostream"*, %"class.std::basic_ostream"** %__out.addr, align 8, !dbg !1785, !tbaa !1584
  %2 = bitcast %"class.std::basic_ostream"* %1 to i8**, !dbg !1785
  %vtable = load i8*, i8** %2, align 8, !dbg !1785, !tbaa !1786
  %vbase.offset.ptr = getelementptr i8, i8* %vtable, i64 -24, !dbg !1785
  %3 = bitcast i8* %vbase.offset.ptr to i64*, !dbg !1785
  %vbase.offset = load i64, i64* %3, align 8, !dbg !1785
  %4 = bitcast %"class.std::basic_ostream"* %1 to i8*, !dbg !1785
  %add.ptr = getelementptr inbounds i8, i8* %4, i64 %vbase.offset, !dbg !1785
  %5 = bitcast i8* %add.ptr to %"class.std::basic_ios"*, !dbg !1785
  call void @_ZNSt9basic_iosIcSt11char_traitsIcEE8setstateESt12_Ios_Iostate(%"class.std::basic_ios"* %5, i32 1), !dbg !1788
  br label %if.end, !dbg !1785

if.else:                                          ; preds = %entry
  %6 = load %"class.std::basic_ostream"*, %"class.std::basic_ostream"** %__out.addr, align 8, !dbg !1789, !tbaa !1584
  %7 = load i8*, i8** %__s.addr, align 8, !dbg !1790, !tbaa !1584
  %8 = load i8*, i8** %__s.addr, align 8, !dbg !1791, !tbaa !1584
  %call = call i64 @_ZNSt11char_traitsIcE6lengthEPKc(i8* %8), !dbg !1792
  %call1 = call dereferenceable(272) %"class.std::basic_ostream"* @_ZSt16__ostream_insertIcSt11char_traitsIcEERSt13basic_ostreamIT_T0_ES6_PKS3_l(%"class.std::basic_ostream"* dereferenceable(272) %6, i8* %7, i64 %call), !dbg !1793
  br label %if.end

if.end:                                           ; preds = %if.else, %if.then
  %9 = load %"class.std::basic_ostream"*, %"class.std::basic_ostream"** %__out.addr, align 8, !dbg !1794, !tbaa !1584
  ret %"class.std::basic_ostream"* %9, !dbg !1795
}

declare dso_local dereferenceable(272) %"class.std::basic_ostream"* @_ZNSolsEi(%"class.std::basic_ostream"*, i32) #7

; Function Attrs: uwtable
define available_externally dso_local dereferenceable(272) %"class.std::basic_ostream"* @_ZNSolsEPFRSoS_E(%"class.std::basic_ostream"* %this, %"class.std::basic_ostream"* (%"class.std::basic_ostream"*)* %__pf) #5 align 2 !dbg !1796 {
entry:
  %this.addr = alloca %"class.std::basic_ostream"*, align 8
  %__pf.addr = alloca %"class.std::basic_ostream"* (%"class.std::basic_ostream"*)*, align 8
  store %"class.std::basic_ostream"* %this, %"class.std::basic_ostream"** %this.addr, align 8, !tbaa !1584
  call void @llvm.dbg.declare(metadata %"class.std::basic_ostream"** %this.addr, metadata !1807, metadata !DIExpression()), !dbg !1810
  store %"class.std::basic_ostream"* (%"class.std::basic_ostream"*)* %__pf, %"class.std::basic_ostream"* (%"class.std::basic_ostream"*)** %__pf.addr, align 8, !tbaa !1584
  call void @llvm.dbg.declare(metadata %"class.std::basic_ostream"* (%"class.std::basic_ostream"*)** %__pf.addr, metadata !1809, metadata !DIExpression()), !dbg !1811
  %this1 = load %"class.std::basic_ostream"*, %"class.std::basic_ostream"** %this.addr, align 8
  %0 = load %"class.std::basic_ostream"* (%"class.std::basic_ostream"*)*, %"class.std::basic_ostream"* (%"class.std::basic_ostream"*)** %__pf.addr, align 8, !dbg !1812, !tbaa !1584
  %call = call dereferenceable(272) %"class.std::basic_ostream"* %0(%"class.std::basic_ostream"* dereferenceable(272) %this1), !dbg !1812
  ret %"class.std::basic_ostream"* %call, !dbg !1813
}

; Function Attrs: inlinehint uwtable
define available_externally dso_local dereferenceable(272) %"class.std::basic_ostream"* @_ZSt4endlIcSt11char_traitsIcEERSt13basic_ostreamIT_T0_ES6_(%"class.std::basic_ostream"* dereferenceable(272) %__os) #8 !dbg !1814 {
entry:
  %__os.addr = alloca %"class.std::basic_ostream"*, align 8
  store %"class.std::basic_ostream"* %__os, %"class.std::basic_ostream"** %__os.addr, align 8, !tbaa !1584
  call void @llvm.dbg.declare(metadata %"class.std::basic_ostream"** %__os.addr, metadata !1818, metadata !DIExpression()), !dbg !1820
  %0 = load %"class.std::basic_ostream"*, %"class.std::basic_ostream"** %__os.addr, align 8, !dbg !1821, !tbaa !1584
  %1 = load %"class.std::basic_ostream"*, %"class.std::basic_ostream"** %__os.addr, align 8, !dbg !1822, !tbaa !1584
  %2 = bitcast %"class.std::basic_ostream"* %1 to i8**, !dbg !1822
  %vtable = load i8*, i8** %2, align 8, !dbg !1822, !tbaa !1786
  %vbase.offset.ptr = getelementptr i8, i8* %vtable, i64 -24, !dbg !1822
  %3 = bitcast i8* %vbase.offset.ptr to i64*, !dbg !1822
  %vbase.offset = load i64, i64* %3, align 8, !dbg !1822
  %4 = bitcast %"class.std::basic_ostream"* %1 to i8*, !dbg !1822
  %add.ptr = getelementptr inbounds i8, i8* %4, i64 %vbase.offset, !dbg !1822
  %5 = bitcast i8* %add.ptr to %"class.std::basic_ios"*, !dbg !1822
  %call = call signext i8 @_ZNKSt9basic_iosIcSt11char_traitsIcEE5widenEc(%"class.std::basic_ios"* %5, i8 signext 10), !dbg !1823
  %call1 = call dereferenceable(272) %"class.std::basic_ostream"* @_ZNSo3putEc(%"class.std::basic_ostream"* %0, i8 signext %call), !dbg !1824
  %call2 = call dereferenceable(272) %"class.std::basic_ostream"* @_ZSt5flushIcSt11char_traitsIcEERSt13basic_ostreamIT_T0_ES6_(%"class.std::basic_ostream"* dereferenceable(272) %call1), !dbg !1825
  ret %"class.std::basic_ostream"* %call2, !dbg !1826
}

; Function Attrs: nounwind uwtable
define linkonce_odr dso_local void @_ZNSt6vectorImSaImEED2Ev(%"class.std::vector"* %this) unnamed_addr #3 comdat align 2 personality i8* bitcast (i32 (...)* @__gxx_personality_v0 to i8*) !dbg !1827 {
entry:
  %this.addr = alloca %"class.std::vector"*, align 8
  %exn.slot = alloca i8*
  %ehselector.slot = alloca i32
  store %"class.std::vector"* %this, %"class.std::vector"** %this.addr, align 8, !tbaa !1584
  call void @llvm.dbg.declare(metadata %"class.std::vector"** %this.addr, metadata !1829, metadata !DIExpression()), !dbg !1830
  %this1 = load %"class.std::vector"*, %"class.std::vector"** %this.addr, align 8
  %0 = bitcast %"class.std::vector"* %this1 to %"struct.std::_Vector_base"*, !dbg !1831
  %_M_impl = getelementptr inbounds %"struct.std::_Vector_base", %"struct.std::_Vector_base"* %0, i32 0, i32 0, !dbg !1831
  %1 = bitcast %"struct.std::_Vector_base<unsigned long, std::allocator<unsigned long> >::_Vector_impl"* %_M_impl to %"struct.std::_Vector_base<unsigned long, std::allocator<unsigned long> >::_Vector_impl_data"*, !dbg !1833
  %_M_start = getelementptr inbounds %"struct.std::_Vector_base<unsigned long, std::allocator<unsigned long> >::_Vector_impl_data", %"struct.std::_Vector_base<unsigned long, std::allocator<unsigned long> >::_Vector_impl_data"* %1, i32 0, i32 0, !dbg !1834
  %2 = load i64*, i64** %_M_start, align 8, !dbg !1834, !tbaa !1835
  %3 = bitcast %"class.std::vector"* %this1 to %"struct.std::_Vector_base"*, !dbg !1836
  %_M_impl2 = getelementptr inbounds %"struct.std::_Vector_base", %"struct.std::_Vector_base"* %3, i32 0, i32 0, !dbg !1836
  %4 = bitcast %"struct.std::_Vector_base<unsigned long, std::allocator<unsigned long> >::_Vector_impl"* %_M_impl2 to %"struct.std::_Vector_base<unsigned long, std::allocator<unsigned long> >::_Vector_impl_data"*, !dbg !1837
  %_M_finish = getelementptr inbounds %"struct.std::_Vector_base<unsigned long, std::allocator<unsigned long> >::_Vector_impl_data", %"struct.std::_Vector_base<unsigned long, std::allocator<unsigned long> >::_Vector_impl_data"* %4, i32 0, i32 1, !dbg !1838
  %5 = load i64*, i64** %_M_finish, align 8, !dbg !1838, !tbaa !1641
  %6 = bitcast %"class.std::vector"* %this1 to %"struct.std::_Vector_base"*, !dbg !1839
  %call = call dereferenceable(1) %"class.std::allocator"* @_ZNSt12_Vector_baseImSaImEE19_M_get_Tp_allocatorEv(%"struct.std::_Vector_base"* %6) #9, !dbg !1839
  invoke void @_ZSt8_DestroyIPmmEvT_S1_RSaIT0_E(i64* %2, i64* %5, %"class.std::allocator"* dereferenceable(1) %call)
          to label %invoke.cont unwind label %lpad, !dbg !1840

invoke.cont:                                      ; preds = %entry
  %7 = bitcast %"class.std::vector"* %this1 to %"struct.std::_Vector_base"*, !dbg !1841
  call void @_ZNSt12_Vector_baseImSaImEED2Ev(%"struct.std::_Vector_base"* %7) #9, !dbg !1841
  ret void, !dbg !1842

lpad:                                             ; preds = %entry
  %8 = landingpad { i8*, i32 }
          catch i8* null, !dbg !1841
  %9 = extractvalue { i8*, i32 } %8, 0, !dbg !1841
  store i8* %9, i8** %exn.slot, align 8, !dbg !1841
  %10 = extractvalue { i8*, i32 } %8, 1, !dbg !1841
  store i32 %10, i32* %ehselector.slot, align 4, !dbg !1841
  %11 = bitcast %"class.std::vector"* %this1 to %"struct.std::_Vector_base"*, !dbg !1841
  call void @_ZNSt12_Vector_baseImSaImEED2Ev(%"struct.std::_Vector_base"* %11) #9, !dbg !1841
  br label %terminate.handler, !dbg !1841

terminate.handler:                                ; preds = %lpad
  %exn = load i8*, i8** %exn.slot, align 8, !dbg !1841
  call void @__clang_call_terminate(i8* %exn) #14, !dbg !1841
  unreachable, !dbg !1841
}

; Function Attrs: uwtable
define internal void @__cxx_global_var_init() #5 section ".text.startup" !dbg !1843 {
entry:
  call void @_ZNSt8ios_base4InitC1Ev(%"class.std::ios_base::Init"* @_ZStL8__ioinit), !dbg !1844
  %0 = call i32 @__cxa_atexit(void (i8*)* bitcast (void (%"class.std::ios_base::Init"*)* @_ZNSt8ios_base4InitD1Ev to void (i8*)*), i8* getelementptr inbounds (%"class.std::ios_base::Init", %"class.std::ios_base::Init"* @_ZStL8__ioinit, i32 0, i32 0), i8* @__dso_handle) #9, !dbg !1844
  ret void, !dbg !1844
}

declare dso_local void @_ZNSt8ios_base4InitC1Ev(%"class.std::ios_base::Init"*) unnamed_addr #7

; Function Attrs: nounwind
declare dso_local void @_ZNSt8ios_base4InitD1Ev(%"class.std::ios_base::Init"*) unnamed_addr #4

; Function Attrs: nounwind
declare dso_local i32 @__cxa_atexit(void (i8*)*, i8*, i8*) #9

; Function Attrs: nounwind uwtable
define linkonce_odr dso_local void @_ZNSt12_Vector_baseImSaImEEC2Ev(%"struct.std::_Vector_base"* %this) unnamed_addr #3 comdat align 2 !dbg !1845 {
entry:
  %this.addr = alloca %"struct.std::_Vector_base"*, align 8
  store %"struct.std::_Vector_base"* %this, %"struct.std::_Vector_base"** %this.addr, align 8, !tbaa !1584
  call void @llvm.dbg.declare(metadata %"struct.std::_Vector_base"** %this.addr, metadata !1847, metadata !DIExpression()), !dbg !1849
  %this1 = load %"struct.std::_Vector_base"*, %"struct.std::_Vector_base"** %this.addr, align 8
  %_M_impl = getelementptr inbounds %"struct.std::_Vector_base", %"struct.std::_Vector_base"* %this1, i32 0, i32 0, !dbg !1850
  call void @_ZNSt12_Vector_baseImSaImEE12_Vector_implC2Ev(%"struct.std::_Vector_base<unsigned long, std::allocator<unsigned long> >::_Vector_impl"* %_M_impl) #9, !dbg !1850
  ret void, !dbg !1851
}

; Function Attrs: nounwind uwtable
define linkonce_odr dso_local void @_ZNSt12_Vector_baseImSaImEE12_Vector_implC2Ev(%"struct.std::_Vector_base<unsigned long, std::allocator<unsigned long> >::_Vector_impl"* %this) unnamed_addr #3 comdat align 2 !dbg !1852 {
entry:
  %this.addr = alloca %"struct.std::_Vector_base<unsigned long, std::allocator<unsigned long> >::_Vector_impl"*, align 8
  store %"struct.std::_Vector_base<unsigned long, std::allocator<unsigned long> >::_Vector_impl"* %this, %"struct.std::_Vector_base<unsigned long, std::allocator<unsigned long> >::_Vector_impl"** %this.addr, align 8, !tbaa !1584
  call void @llvm.dbg.declare(metadata %"struct.std::_Vector_base<unsigned long, std::allocator<unsigned long> >::_Vector_impl"** %this.addr, metadata !1854, metadata !DIExpression()), !dbg !1856
  %this1 = load %"struct.std::_Vector_base<unsigned long, std::allocator<unsigned long> >::_Vector_impl"*, %"struct.std::_Vector_base<unsigned long, std::allocator<unsigned long> >::_Vector_impl"** %this.addr, align 8
  %0 = bitcast %"struct.std::_Vector_base<unsigned long, std::allocator<unsigned long> >::_Vector_impl"* %this1 to %"class.std::allocator"*, !dbg !1857
  call void @_ZNSaImEC2Ev(%"class.std::allocator"* %0) #9, !dbg !1858
  %1 = bitcast %"struct.std::_Vector_base<unsigned long, std::allocator<unsigned long> >::_Vector_impl"* %this1 to %"struct.std::_Vector_base<unsigned long, std::allocator<unsigned long> >::_Vector_impl_data"*, !dbg !1857
  call void @_ZNSt12_Vector_baseImSaImEE17_Vector_impl_dataC2Ev(%"struct.std::_Vector_base<unsigned long, std::allocator<unsigned long> >::_Vector_impl_data"* %1) #9, !dbg !1859
  ret void, !dbg !1860
}

; Function Attrs: nounwind uwtable
define linkonce_odr dso_local void @_ZNSaImEC2Ev(%"class.std::allocator"* %this) unnamed_addr #3 comdat align 2 !dbg !1861 {
entry:
  %this.addr = alloca %"class.std::allocator"*, align 8
  store %"class.std::allocator"* %this, %"class.std::allocator"** %this.addr, align 8, !tbaa !1584
  call void @llvm.dbg.declare(metadata %"class.std::allocator"** %this.addr, metadata !1863, metadata !DIExpression()), !dbg !1865
  %this1 = load %"class.std::allocator"*, %"class.std::allocator"** %this.addr, align 8
  %0 = bitcast %"class.std::allocator"* %this1 to %"class.__gnu_cxx::new_allocator"*, !dbg !1866
  call void @_ZN9__gnu_cxx13new_allocatorImEC2Ev(%"class.__gnu_cxx::new_allocator"* %0) #9, !dbg !1867
  ret void, !dbg !1868
}

; Function Attrs: nounwind uwtable
define linkonce_odr dso_local void @_ZNSt12_Vector_baseImSaImEE17_Vector_impl_dataC2Ev(%"struct.std::_Vector_base<unsigned long, std::allocator<unsigned long> >::_Vector_impl_data"* %this) unnamed_addr #3 comdat align 2 !dbg !1869 {
entry:
  %this.addr = alloca %"struct.std::_Vector_base<unsigned long, std::allocator<unsigned long> >::_Vector_impl_data"*, align 8
  store %"struct.std::_Vector_base<unsigned long, std::allocator<unsigned long> >::_Vector_impl_data"* %this, %"struct.std::_Vector_base<unsigned long, std::allocator<unsigned long> >::_Vector_impl_data"** %this.addr, align 8, !tbaa !1584
  call void @llvm.dbg.declare(metadata %"struct.std::_Vector_base<unsigned long, std::allocator<unsigned long> >::_Vector_impl_data"** %this.addr, metadata !1871, metadata !DIExpression()), !dbg !1873
  %this1 = load %"struct.std::_Vector_base<unsigned long, std::allocator<unsigned long> >::_Vector_impl_data"*, %"struct.std::_Vector_base<unsigned long, std::allocator<unsigned long> >::_Vector_impl_data"** %this.addr, align 8
  %_M_start = getelementptr inbounds %"struct.std::_Vector_base<unsigned long, std::allocator<unsigned long> >::_Vector_impl_data", %"struct.std::_Vector_base<unsigned long, std::allocator<unsigned long> >::_Vector_impl_data"* %this1, i32 0, i32 0, !dbg !1874
  store i64* null, i64** %_M_start, align 8, !dbg !1874, !tbaa !1835
  %_M_finish = getelementptr inbounds %"struct.std::_Vector_base<unsigned long, std::allocator<unsigned long> >::_Vector_impl_data", %"struct.std::_Vector_base<unsigned long, std::allocator<unsigned long> >::_Vector_impl_data"* %this1, i32 0, i32 1, !dbg !1875
  store i64* null, i64** %_M_finish, align 8, !dbg !1875, !tbaa !1641
  %_M_end_of_storage = getelementptr inbounds %"struct.std::_Vector_base<unsigned long, std::allocator<unsigned long> >::_Vector_impl_data", %"struct.std::_Vector_base<unsigned long, std::allocator<unsigned long> >::_Vector_impl_data"* %this1, i32 0, i32 2, !dbg !1876
  store i64* null, i64** %_M_end_of_storage, align 8, !dbg !1876, !tbaa !1646
  ret void, !dbg !1877
}

; Function Attrs: nounwind uwtable
define linkonce_odr dso_local void @_ZN9__gnu_cxx13new_allocatorImEC2Ev(%"class.__gnu_cxx::new_allocator"* %this) unnamed_addr #3 comdat align 2 !dbg !1878 {
entry:
  %this.addr = alloca %"class.__gnu_cxx::new_allocator"*, align 8
  store %"class.__gnu_cxx::new_allocator"* %this, %"class.__gnu_cxx::new_allocator"** %this.addr, align 8, !tbaa !1584
  call void @llvm.dbg.declare(metadata %"class.__gnu_cxx::new_allocator"** %this.addr, metadata !1880, metadata !DIExpression()), !dbg !1882
  %this1 = load %"class.__gnu_cxx::new_allocator"*, %"class.__gnu_cxx::new_allocator"** %this.addr, align 8
  ret void, !dbg !1883
}

; Function Attrs: inlinehint uwtable
define linkonce_odr dso_local void @_ZSt8_DestroyIPmmEvT_S1_RSaIT0_E(i64* %__first, i64* %__last, %"class.std::allocator"* dereferenceable(1) %0) #8 comdat !dbg !1884 {
entry:
  %__first.addr = alloca i64*, align 8
  %__last.addr = alloca i64*, align 8
  %.addr = alloca %"class.std::allocator"*, align 8
  store i64* %__first, i64** %__first.addr, align 8, !tbaa !1584
  call void @llvm.dbg.declare(metadata i64** %__first.addr, metadata !1888, metadata !DIExpression()), !dbg !1893
  store i64* %__last, i64** %__last.addr, align 8, !tbaa !1584
  call void @llvm.dbg.declare(metadata i64** %__last.addr, metadata !1889, metadata !DIExpression()), !dbg !1894
  store %"class.std::allocator"* %0, %"class.std::allocator"** %.addr, align 8, !tbaa !1584
  call void @llvm.dbg.declare(metadata %"class.std::allocator"** %.addr, metadata !1890, metadata !DIExpression()), !dbg !1895
  %1 = load i64*, i64** %__first.addr, align 8, !dbg !1896, !tbaa !1584
  %2 = load i64*, i64** %__last.addr, align 8, !dbg !1897, !tbaa !1584
  call void @_ZSt8_DestroyIPmEvT_S1_(i64* %1, i64* %2), !dbg !1898
  ret void, !dbg !1899
}

; Function Attrs: nounwind uwtable
define linkonce_odr dso_local dereferenceable(1) %"class.std::allocator"* @_ZNSt12_Vector_baseImSaImEE19_M_get_Tp_allocatorEv(%"struct.std::_Vector_base"* %this) #3 comdat align 2 !dbg !1900 {
entry:
  %this.addr = alloca %"struct.std::_Vector_base"*, align 8
  store %"struct.std::_Vector_base"* %this, %"struct.std::_Vector_base"** %this.addr, align 8, !tbaa !1584
  call void @llvm.dbg.declare(metadata %"struct.std::_Vector_base"** %this.addr, metadata !1902, metadata !DIExpression()), !dbg !1903
  %this1 = load %"struct.std::_Vector_base"*, %"struct.std::_Vector_base"** %this.addr, align 8
  %_M_impl = getelementptr inbounds %"struct.std::_Vector_base", %"struct.std::_Vector_base"* %this1, i32 0, i32 0, !dbg !1904
  %0 = bitcast %"struct.std::_Vector_base<unsigned long, std::allocator<unsigned long> >::_Vector_impl"* %_M_impl to %"class.std::allocator"*, !dbg !1905
  ret %"class.std::allocator"* %0, !dbg !1906
}

; Function Attrs: nounwind uwtable
define linkonce_odr dso_local void @_ZNSt12_Vector_baseImSaImEED2Ev(%"struct.std::_Vector_base"* %this) unnamed_addr #3 comdat align 2 personality i8* bitcast (i32 (...)* @__gxx_personality_v0 to i8*) !dbg !1907 {
entry:
  %this.addr = alloca %"struct.std::_Vector_base"*, align 8
  %exn.slot = alloca i8*
  %ehselector.slot = alloca i32
  store %"struct.std::_Vector_base"* %this, %"struct.std::_Vector_base"** %this.addr, align 8, !tbaa !1584
  call void @llvm.dbg.declare(metadata %"struct.std::_Vector_base"** %this.addr, metadata !1909, metadata !DIExpression()), !dbg !1910
  %this1 = load %"struct.std::_Vector_base"*, %"struct.std::_Vector_base"** %this.addr, align 8
  %_M_impl = getelementptr inbounds %"struct.std::_Vector_base", %"struct.std::_Vector_base"* %this1, i32 0, i32 0, !dbg !1911
  %0 = bitcast %"struct.std::_Vector_base<unsigned long, std::allocator<unsigned long> >::_Vector_impl"* %_M_impl to %"struct.std::_Vector_base<unsigned long, std::allocator<unsigned long> >::_Vector_impl_data"*, !dbg !1911
  %_M_start = getelementptr inbounds %"struct.std::_Vector_base<unsigned long, std::allocator<unsigned long> >::_Vector_impl_data", %"struct.std::_Vector_base<unsigned long, std::allocator<unsigned long> >::_Vector_impl_data"* %0, i32 0, i32 0, !dbg !1913
  %1 = load i64*, i64** %_M_start, align 8, !dbg !1913, !tbaa !1835
  %_M_impl2 = getelementptr inbounds %"struct.std::_Vector_base", %"struct.std::_Vector_base"* %this1, i32 0, i32 0, !dbg !1914
  %2 = bitcast %"struct.std::_Vector_base<unsigned long, std::allocator<unsigned long> >::_Vector_impl"* %_M_impl2 to %"struct.std::_Vector_base<unsigned long, std::allocator<unsigned long> >::_Vector_impl_data"*, !dbg !1914
  %_M_end_of_storage = getelementptr inbounds %"struct.std::_Vector_base<unsigned long, std::allocator<unsigned long> >::_Vector_impl_data", %"struct.std::_Vector_base<unsigned long, std::allocator<unsigned long> >::_Vector_impl_data"* %2, i32 0, i32 2, !dbg !1915
  %3 = load i64*, i64** %_M_end_of_storage, align 8, !dbg !1915, !tbaa !1646
  %_M_impl3 = getelementptr inbounds %"struct.std::_Vector_base", %"struct.std::_Vector_base"* %this1, i32 0, i32 0, !dbg !1916
  %4 = bitcast %"struct.std::_Vector_base<unsigned long, std::allocator<unsigned long> >::_Vector_impl"* %_M_impl3 to %"struct.std::_Vector_base<unsigned long, std::allocator<unsigned long> >::_Vector_impl_data"*, !dbg !1916
  %_M_start4 = getelementptr inbounds %"struct.std::_Vector_base<unsigned long, std::allocator<unsigned long> >::_Vector_impl_data", %"struct.std::_Vector_base<unsigned long, std::allocator<unsigned long> >::_Vector_impl_data"* %4, i32 0, i32 0, !dbg !1917
  %5 = load i64*, i64** %_M_start4, align 8, !dbg !1917, !tbaa !1835
  %sub.ptr.lhs.cast = ptrtoint i64* %3 to i64, !dbg !1918
  %sub.ptr.rhs.cast = ptrtoint i64* %5 to i64, !dbg !1918
  %sub.ptr.sub = sub i64 %sub.ptr.lhs.cast, %sub.ptr.rhs.cast, !dbg !1918
  %sub.ptr.div = sdiv exact i64 %sub.ptr.sub, 8, !dbg !1918
  invoke void @_ZNSt12_Vector_baseImSaImEE13_M_deallocateEPmm(%"struct.std::_Vector_base"* %this1, i64* %1, i64 %sub.ptr.div)
          to label %invoke.cont unwind label %lpad, !dbg !1919

invoke.cont:                                      ; preds = %entry
  %_M_impl5 = getelementptr inbounds %"struct.std::_Vector_base", %"struct.std::_Vector_base"* %this1, i32 0, i32 0, !dbg !1920
  call void bitcast (void (%"class.__gnu_cxx::new_allocator"*)* @_ZN9__gnu_cxx13new_allocatorImED2Ev to void (%"struct.std::_Vector_base<unsigned long, std::allocator<unsigned long> >::_Vector_impl"*)*)(%"struct.std::_Vector_base<unsigned long, std::allocator<unsigned long> >::_Vector_impl"* %_M_impl5) #9, !dbg !1920
  ret void, !dbg !1921

lpad:                                             ; preds = %entry
  %6 = landingpad { i8*, i32 }
          catch i8* null, !dbg !1920
  %7 = extractvalue { i8*, i32 } %6, 0, !dbg !1920
  store i8* %7, i8** %exn.slot, align 8, !dbg !1920
  %8 = extractvalue { i8*, i32 } %6, 1, !dbg !1920
  store i32 %8, i32* %ehselector.slot, align 4, !dbg !1920
  %_M_impl6 = getelementptr inbounds %"struct.std::_Vector_base", %"struct.std::_Vector_base"* %this1, i32 0, i32 0, !dbg !1920
  call void bitcast (void (%"class.__gnu_cxx::new_allocator"*)* @_ZN9__gnu_cxx13new_allocatorImED2Ev to void (%"struct.std::_Vector_base<unsigned long, std::allocator<unsigned long> >::_Vector_impl"*)*)(%"struct.std::_Vector_base<unsigned long, std::allocator<unsigned long> >::_Vector_impl"* %_M_impl6) #9, !dbg !1920
  br label %terminate.handler, !dbg !1920

terminate.handler:                                ; preds = %lpad
  %exn = load i8*, i8** %exn.slot, align 8, !dbg !1920
  call void @__clang_call_terminate(i8* %exn) #14, !dbg !1920
  unreachable, !dbg !1920
}

; Function Attrs: noinline noreturn nounwind
define linkonce_odr hidden void @__clang_call_terminate(i8* %0) #10 comdat {
  %2 = call i8* @__cxa_begin_catch(i8* %0) #9
  call void @_ZSt9terminatev() #14
  unreachable
}

declare dso_local i8* @__cxa_begin_catch(i8*)

declare dso_local void @_ZSt9terminatev()

; Function Attrs: inlinehint uwtable
define linkonce_odr dso_local void @_ZSt8_DestroyIPmEvT_S1_(i64* %__first, i64* %__last) #8 comdat !dbg !1922 {
entry:
  %__first.addr = alloca i64*, align 8
  %__last.addr = alloca i64*, align 8
  store i64* %__first, i64** %__first.addr, align 8, !tbaa !1584
  call void @llvm.dbg.declare(metadata i64** %__first.addr, metadata !1927, metadata !DIExpression()), !dbg !1930
  store i64* %__last, i64** %__last.addr, align 8, !tbaa !1584
  call void @llvm.dbg.declare(metadata i64** %__last.addr, metadata !1928, metadata !DIExpression()), !dbg !1931
  %0 = load i64*, i64** %__first.addr, align 8, !dbg !1932, !tbaa !1584
  %1 = load i64*, i64** %__last.addr, align 8, !dbg !1933, !tbaa !1584
  call void @_ZNSt12_Destroy_auxILb1EE9__destroyIPmEEvT_S3_(i64* %0, i64* %1), !dbg !1934
  ret void, !dbg !1935
}

; Function Attrs: nounwind uwtable
define linkonce_odr dso_local void @_ZNSt12_Destroy_auxILb1EE9__destroyIPmEEvT_S3_(i64* %0, i64* %1) #3 comdat align 2 !dbg !1936 {
entry:
  %.addr = alloca i64*, align 8
  %.addr1 = alloca i64*, align 8
  store i64* %0, i64** %.addr, align 8, !tbaa !1584
  call void @llvm.dbg.declare(metadata i64** %.addr, metadata !1942, metadata !DIExpression()), !dbg !1944
  store i64* %1, i64** %.addr1, align 8, !tbaa !1584
  call void @llvm.dbg.declare(metadata i64** %.addr1, metadata !1943, metadata !DIExpression()), !dbg !1945
  ret void, !dbg !1946
}

; Function Attrs: uwtable
define linkonce_odr dso_local void @_ZNSt12_Vector_baseImSaImEE13_M_deallocateEPmm(%"struct.std::_Vector_base"* %this, i64* %__p, i64 %__n) #5 comdat align 2 !dbg !1947 {
entry:
  %this.addr = alloca %"struct.std::_Vector_base"*, align 8
  %__p.addr = alloca i64*, align 8
  %__n.addr = alloca i64, align 8
  store %"struct.std::_Vector_base"* %this, %"struct.std::_Vector_base"** %this.addr, align 8, !tbaa !1584
  call void @llvm.dbg.declare(metadata %"struct.std::_Vector_base"** %this.addr, metadata !1949, metadata !DIExpression()), !dbg !1952
  store i64* %__p, i64** %__p.addr, align 8, !tbaa !1584
  call void @llvm.dbg.declare(metadata i64** %__p.addr, metadata !1950, metadata !DIExpression()), !dbg !1953
  store i64 %__n, i64* %__n.addr, align 8, !tbaa !1562
  call void @llvm.dbg.declare(metadata i64* %__n.addr, metadata !1951, metadata !DIExpression()), !dbg !1954
  %this1 = load %"struct.std::_Vector_base"*, %"struct.std::_Vector_base"** %this.addr, align 8
  %0 = load i64*, i64** %__p.addr, align 8, !dbg !1955, !tbaa !1584
  %tobool = icmp ne i64* %0, null, !dbg !1955
  br i1 %tobool, label %if.then, label %if.end, !dbg !1957

if.then:                                          ; preds = %entry
  %_M_impl = getelementptr inbounds %"struct.std::_Vector_base", %"struct.std::_Vector_base"* %this1, i32 0, i32 0, !dbg !1958
  %1 = bitcast %"struct.std::_Vector_base<unsigned long, std::allocator<unsigned long> >::_Vector_impl"* %_M_impl to %"class.std::allocator"*, !dbg !1958
  %2 = load i64*, i64** %__p.addr, align 8, !dbg !1959, !tbaa !1584
  %3 = load i64, i64* %__n.addr, align 8, !dbg !1960, !tbaa !1562
  call void @_ZNSt16allocator_traitsISaImEE10deallocateERS0_Pmm(%"class.std::allocator"* dereferenceable(1) %1, i64* %2, i64 %3), !dbg !1961
  br label %if.end, !dbg !1961

if.end:                                           ; preds = %if.then, %entry
  ret void, !dbg !1962
}

; Function Attrs: nounwind uwtable
define linkonce_odr dso_local void @_ZN9__gnu_cxx13new_allocatorImED2Ev(%"class.__gnu_cxx::new_allocator"* %this) unnamed_addr #3 comdat align 2 !dbg !1963 {
entry:
  %this.addr = alloca %"class.__gnu_cxx::new_allocator"*, align 8
  store %"class.__gnu_cxx::new_allocator"* %this, %"class.__gnu_cxx::new_allocator"** %this.addr, align 8, !tbaa !1584
  call void @llvm.dbg.declare(metadata %"class.__gnu_cxx::new_allocator"** %this.addr, metadata !1965, metadata !DIExpression()), !dbg !1966
  %this1 = load %"class.__gnu_cxx::new_allocator"*, %"class.__gnu_cxx::new_allocator"** %this.addr, align 8
  ret void, !dbg !1967
}

; Function Attrs: uwtable
define linkonce_odr dso_local void @_ZNSt16allocator_traitsISaImEE10deallocateERS0_Pmm(%"class.std::allocator"* dereferenceable(1) %__a, i64* %__p, i64 %__n) #5 comdat align 2 !dbg !1968 {
entry:
  %__a.addr = alloca %"class.std::allocator"*, align 8
  %__p.addr = alloca i64*, align 8
  %__n.addr = alloca i64, align 8
  store %"class.std::allocator"* %__a, %"class.std::allocator"** %__a.addr, align 8, !tbaa !1584
  call void @llvm.dbg.declare(metadata %"class.std::allocator"** %__a.addr, metadata !1970, metadata !DIExpression()), !dbg !1973
  store i64* %__p, i64** %__p.addr, align 8, !tbaa !1584
  call void @llvm.dbg.declare(metadata i64** %__p.addr, metadata !1971, metadata !DIExpression()), !dbg !1974
  store i64 %__n, i64* %__n.addr, align 8, !tbaa !1562
  call void @llvm.dbg.declare(metadata i64* %__n.addr, metadata !1972, metadata !DIExpression()), !dbg !1975
  %0 = load %"class.std::allocator"*, %"class.std::allocator"** %__a.addr, align 8, !dbg !1976, !tbaa !1584
  %1 = bitcast %"class.std::allocator"* %0 to %"class.__gnu_cxx::new_allocator"*, !dbg !1976
  %2 = load i64*, i64** %__p.addr, align 8, !dbg !1977, !tbaa !1584
  %3 = load i64, i64* %__n.addr, align 8, !dbg !1978, !tbaa !1562
  call void @_ZN9__gnu_cxx13new_allocatorImE10deallocateEPmm(%"class.__gnu_cxx::new_allocator"* %1, i64* %2, i64 %3), !dbg !1979
  ret void, !dbg !1980
}

; Function Attrs: nounwind uwtable
define linkonce_odr dso_local void @_ZN9__gnu_cxx13new_allocatorImE10deallocateEPmm(%"class.__gnu_cxx::new_allocator"* %this, i64* %__p, i64 %__t) #3 comdat align 2 !dbg !1981 {
entry:
  %this.addr = alloca %"class.__gnu_cxx::new_allocator"*, align 8
  %__p.addr = alloca i64*, align 8
  %__t.addr = alloca i64, align 8
  store %"class.__gnu_cxx::new_allocator"* %this, %"class.__gnu_cxx::new_allocator"** %this.addr, align 8, !tbaa !1584
  call void @llvm.dbg.declare(metadata %"class.__gnu_cxx::new_allocator"** %this.addr, metadata !1983, metadata !DIExpression()), !dbg !1986
  store i64* %__p, i64** %__p.addr, align 8, !tbaa !1584
  call void @llvm.dbg.declare(metadata i64** %__p.addr, metadata !1984, metadata !DIExpression()), !dbg !1987
  store i64 %__t, i64* %__t.addr, align 8, !tbaa !1562
  call void @llvm.dbg.declare(metadata i64* %__t.addr, metadata !1985, metadata !DIExpression()), !dbg !1988
  %this1 = load %"class.__gnu_cxx::new_allocator"*, %"class.__gnu_cxx::new_allocator"** %this.addr, align 8
  %0 = load i64*, i64** %__p.addr, align 8, !dbg !1989, !tbaa !1584
  %1 = bitcast i64* %0 to i8*, !dbg !1989
  call void @_ZdlPv(i8* %1) #9, !dbg !1990
  ret void, !dbg !1991
}

; Function Attrs: nobuiltin nounwind
declare !dbg !31 dso_local void @_ZdlPv(i8*) #11

; Function Attrs: nounwind uwtable
define linkonce_odr dso_local void @_ZNSt16allocator_traitsISaImEE9constructImJRKmEEEvRS0_PT_DpOT0_(%"class.std::allocator"* dereferenceable(1) %__a, i64* %__p, i64* dereferenceable(8) %__args) #3 comdat align 2 !dbg !1992 {
entry:
  %__a.addr = alloca %"class.std::allocator"*, align 8
  %__p.addr = alloca i64*, align 8
  %__args.addr = alloca i64*, align 8
  store %"class.std::allocator"* %__a, %"class.std::allocator"** %__a.addr, align 8, !tbaa !1584
  call void @llvm.dbg.declare(metadata %"class.std::allocator"** %__a.addr, metadata !2002, metadata !DIExpression()), !dbg !2005
  store i64* %__p, i64** %__p.addr, align 8, !tbaa !1584
  call void @llvm.dbg.declare(metadata i64** %__p.addr, metadata !2003, metadata !DIExpression()), !dbg !2006
  store i64* %__args, i64** %__args.addr, align 8, !tbaa !1584
  call void @llvm.dbg.declare(metadata i64** %__args.addr, metadata !2004, metadata !DIExpression()), !dbg !2007
  %0 = load %"class.std::allocator"*, %"class.std::allocator"** %__a.addr, align 8, !dbg !2008, !tbaa !1584
  %1 = bitcast %"class.std::allocator"* %0 to %"class.__gnu_cxx::new_allocator"*, !dbg !2008
  %2 = load i64*, i64** %__p.addr, align 8, !dbg !2009, !tbaa !1584
  %3 = load i64*, i64** %__args.addr, align 8, !dbg !2010, !tbaa !1584
  %call = call dereferenceable(8) i64* @_ZSt7forwardIRKmEOT_RNSt16remove_referenceIS2_E4typeE(i64* dereferenceable(8) %3) #9, !dbg !2011
  call void @_ZN9__gnu_cxx13new_allocatorImE9constructImJRKmEEEvPT_DpOT0_(%"class.__gnu_cxx::new_allocator"* %1, i64* %2, i64* dereferenceable(8) %call) #9, !dbg !2012
  ret void, !dbg !2013
}

; Function Attrs: uwtable
define linkonce_odr dso_local void @_ZNSt6vectorImSaImEE17_M_realloc_insertIJRKmEEEvN9__gnu_cxx17__normal_iteratorIPmS1_EEDpOT_(%"class.std::vector"* %this, i64* %__position.coerce, i64* dereferenceable(8) %__args) #5 comdat align 2 !dbg !2014 {
entry:
  %__position = alloca %"class.__gnu_cxx::__normal_iterator", align 8
  %this.addr = alloca %"class.std::vector"*, align 8
  %__args.addr = alloca i64*, align 8
  %__len = alloca i64, align 8
  %__old_start = alloca i64*, align 8
  %__old_finish = alloca i64*, align 8
  %__elems_before = alloca i64, align 8
  %ref.tmp = alloca %"class.__gnu_cxx::__normal_iterator", align 8
  %__new_start = alloca i64*, align 8
  %__new_finish = alloca i64*, align 8
  %coerce.dive = getelementptr inbounds %"class.__gnu_cxx::__normal_iterator", %"class.__gnu_cxx::__normal_iterator"* %__position, i32 0, i32 0
  store i64* %__position.coerce, i64** %coerce.dive, align 8
  store %"class.std::vector"* %this, %"class.std::vector"** %this.addr, align 8, !tbaa !1584
  call void @llvm.dbg.declare(metadata %"class.std::vector"** %this.addr, metadata !2021, metadata !DIExpression()), !dbg !2031
  call void @llvm.dbg.declare(metadata %"class.__gnu_cxx::__normal_iterator"* %__position, metadata !2022, metadata !DIExpression()), !dbg !2032
  store i64* %__args, i64** %__args.addr, align 8, !tbaa !1584
  call void @llvm.dbg.declare(metadata i64** %__args.addr, metadata !2023, metadata !DIExpression()), !dbg !2033
  %this1 = load %"class.std::vector"*, %"class.std::vector"** %this.addr, align 8
  %0 = bitcast i64* %__len to i8*, !dbg !2034
  call void @llvm.lifetime.start.p0i8(i64 8, i8* %0) #9, !dbg !2034
  call void @llvm.dbg.declare(metadata i64* %__len, metadata !2024, metadata !DIExpression()), !dbg !2035
  %call = call i64 @_ZNKSt6vectorImSaImEE12_M_check_lenEmPKc(%"class.std::vector"* %this1, i64 1, i8* getelementptr inbounds ([26 x i8], [26 x i8]* @.str.1, i64 0, i64 0)), !dbg !2036
  store i64 %call, i64* %__len, align 8, !dbg !2035, !tbaa !1562
  %1 = bitcast i64** %__old_start to i8*, !dbg !2037
  call void @llvm.lifetime.start.p0i8(i64 8, i8* %1) #9, !dbg !2037
  call void @llvm.dbg.declare(metadata i64** %__old_start, metadata !2026, metadata !DIExpression()), !dbg !2038
  %2 = bitcast %"class.std::vector"* %this1 to %"struct.std::_Vector_base"*, !dbg !2039
  %_M_impl = getelementptr inbounds %"struct.std::_Vector_base", %"struct.std::_Vector_base"* %2, i32 0, i32 0, !dbg !2039
  %3 = bitcast %"struct.std::_Vector_base<unsigned long, std::allocator<unsigned long> >::_Vector_impl"* %_M_impl to %"struct.std::_Vector_base<unsigned long, std::allocator<unsigned long> >::_Vector_impl_data"*, !dbg !2040
  %_M_start = getelementptr inbounds %"struct.std::_Vector_base<unsigned long, std::allocator<unsigned long> >::_Vector_impl_data", %"struct.std::_Vector_base<unsigned long, std::allocator<unsigned long> >::_Vector_impl_data"* %3, i32 0, i32 0, !dbg !2041
  %4 = load i64*, i64** %_M_start, align 8, !dbg !2041, !tbaa !1835
  store i64* %4, i64** %__old_start, align 8, !dbg !2038, !tbaa !1584
  %5 = bitcast i64** %__old_finish to i8*, !dbg !2042
  call void @llvm.lifetime.start.p0i8(i64 8, i8* %5) #9, !dbg !2042
  call void @llvm.dbg.declare(metadata i64** %__old_finish, metadata !2027, metadata !DIExpression()), !dbg !2043
  %6 = bitcast %"class.std::vector"* %this1 to %"struct.std::_Vector_base"*, !dbg !2044
  %_M_impl2 = getelementptr inbounds %"struct.std::_Vector_base", %"struct.std::_Vector_base"* %6, i32 0, i32 0, !dbg !2044
  %7 = bitcast %"struct.std::_Vector_base<unsigned long, std::allocator<unsigned long> >::_Vector_impl"* %_M_impl2 to %"struct.std::_Vector_base<unsigned long, std::allocator<unsigned long> >::_Vector_impl_data"*, !dbg !2045
  %_M_finish = getelementptr inbounds %"struct.std::_Vector_base<unsigned long, std::allocator<unsigned long> >::_Vector_impl_data", %"struct.std::_Vector_base<unsigned long, std::allocator<unsigned long> >::_Vector_impl_data"* %7, i32 0, i32 1, !dbg !2046
  %8 = load i64*, i64** %_M_finish, align 8, !dbg !2046, !tbaa !1641
  store i64* %8, i64** %__old_finish, align 8, !dbg !2043, !tbaa !1584
  %9 = bitcast i64* %__elems_before to i8*, !dbg !2047
  call void @llvm.lifetime.start.p0i8(i64 8, i8* %9) #9, !dbg !2047
  call void @llvm.dbg.declare(metadata i64* %__elems_before, metadata !2028, metadata !DIExpression()), !dbg !2048
  %10 = bitcast %"class.__gnu_cxx::__normal_iterator"* %ref.tmp to i8*, !dbg !2049
  call void @llvm.lifetime.start.p0i8(i64 8, i8* %10) #9, !dbg !2049
  %call3 = call i64* @_ZNSt6vectorImSaImEE5beginEv(%"class.std::vector"* %this1) #9, !dbg !2049
  %coerce.dive4 = getelementptr inbounds %"class.__gnu_cxx::__normal_iterator", %"class.__gnu_cxx::__normal_iterator"* %ref.tmp, i32 0, i32 0, !dbg !2049
  store i64* %call3, i64** %coerce.dive4, align 8, !dbg !2049
  %call5 = call i64 @_ZN9__gnu_cxxmiIPmSt6vectorImSaImEEEENS_17__normal_iteratorIT_T0_E15difference_typeERKS8_SB_(%"class.__gnu_cxx::__normal_iterator"* dereferenceable(8) %__position, %"class.__gnu_cxx::__normal_iterator"* dereferenceable(8) %ref.tmp) #9, !dbg !2050
  %11 = bitcast %"class.__gnu_cxx::__normal_iterator"* %ref.tmp to i8*, !dbg !2051
  call void @llvm.lifetime.end.p0i8(i64 8, i8* %11) #9, !dbg !2051
  store i64 %call5, i64* %__elems_before, align 8, !dbg !2048, !tbaa !1562
  %12 = bitcast i64** %__new_start to i8*, !dbg !2052
  call void @llvm.lifetime.start.p0i8(i64 8, i8* %12) #9, !dbg !2052
  call void @llvm.dbg.declare(metadata i64** %__new_start, metadata !2029, metadata !DIExpression()), !dbg !2053
  %13 = bitcast %"class.std::vector"* %this1 to %"struct.std::_Vector_base"*, !dbg !2054
  %14 = load i64, i64* %__len, align 8, !dbg !2055, !tbaa !1562
  %call6 = call i64* @_ZNSt12_Vector_baseImSaImEE11_M_allocateEm(%"struct.std::_Vector_base"* %13, i64 %14), !dbg !2054
  store i64* %call6, i64** %__new_start, align 8, !dbg !2053, !tbaa !1584
  %15 = bitcast i64** %__new_finish to i8*, !dbg !2056
  call void @llvm.lifetime.start.p0i8(i64 8, i8* %15) #9, !dbg !2056
  call void @llvm.dbg.declare(metadata i64** %__new_finish, metadata !2030, metadata !DIExpression()), !dbg !2057
  %16 = load i64*, i64** %__new_start, align 8, !dbg !2058, !tbaa !1584
  store i64* %16, i64** %__new_finish, align 8, !dbg !2057, !tbaa !1584
  %17 = bitcast %"class.std::vector"* %this1 to %"struct.std::_Vector_base"*, !dbg !2059
  %_M_impl7 = getelementptr inbounds %"struct.std::_Vector_base", %"struct.std::_Vector_base"* %17, i32 0, i32 0, !dbg !2059
  %18 = bitcast %"struct.std::_Vector_base<unsigned long, std::allocator<unsigned long> >::_Vector_impl"* %_M_impl7 to %"class.std::allocator"*, !dbg !2061
  %19 = load i64*, i64** %__new_start, align 8, !dbg !2062, !tbaa !1584
  %20 = load i64, i64* %__elems_before, align 8, !dbg !2063, !tbaa !1562
  %add.ptr = getelementptr inbounds i64, i64* %19, i64 %20, !dbg !2064
  %21 = load i64*, i64** %__args.addr, align 8, !dbg !2065, !tbaa !1584
  %call8 = call dereferenceable(8) i64* @_ZSt7forwardIRKmEOT_RNSt16remove_referenceIS2_E4typeE(i64* dereferenceable(8) %21) #9, !dbg !2066
  call void @_ZNSt16allocator_traitsISaImEE9constructImJRKmEEEvRS0_PT_DpOT0_(%"class.std::allocator"* dereferenceable(1) %18, i64* %add.ptr, i64* dereferenceable(8) %call8) #9, !dbg !2067
  store i64* null, i64** %__new_finish, align 8, !dbg !2068, !tbaa !1584
  %22 = load i64*, i64** %__old_start, align 8, !dbg !2069, !tbaa !1584
  %call9 = call dereferenceable(8) i64** @_ZNK9__gnu_cxx17__normal_iteratorIPmSt6vectorImSaImEEE4baseEv(%"class.__gnu_cxx::__normal_iterator"* %__position) #9, !dbg !2072
  %23 = load i64*, i64** %call9, align 8, !dbg !2072, !tbaa !1584
  %24 = load i64*, i64** %__new_start, align 8, !dbg !2073, !tbaa !1584
  %25 = bitcast %"class.std::vector"* %this1 to %"struct.std::_Vector_base"*, !dbg !2074
  %call10 = call dereferenceable(1) %"class.std::allocator"* @_ZNSt12_Vector_baseImSaImEE19_M_get_Tp_allocatorEv(%"struct.std::_Vector_base"* %25) #9, !dbg !2074
  %call11 = call i64* @_ZNSt6vectorImSaImEE11_S_relocateEPmS2_S2_RS0_(i64* %22, i64* %23, i64* %24, %"class.std::allocator"* dereferenceable(1) %call10) #9, !dbg !2075
  store i64* %call11, i64** %__new_finish, align 8, !dbg !2076, !tbaa !1584
  %26 = load i64*, i64** %__new_finish, align 8, !dbg !2077, !tbaa !1584
  %incdec.ptr = getelementptr inbounds i64, i64* %26, i32 1, !dbg !2077
  store i64* %incdec.ptr, i64** %__new_finish, align 8, !dbg !2077, !tbaa !1584
  %call12 = call dereferenceable(8) i64** @_ZNK9__gnu_cxx17__normal_iteratorIPmSt6vectorImSaImEEE4baseEv(%"class.__gnu_cxx::__normal_iterator"* %__position) #9, !dbg !2078
  %27 = load i64*, i64** %call12, align 8, !dbg !2078, !tbaa !1584
  %28 = load i64*, i64** %__old_finish, align 8, !dbg !2079, !tbaa !1584
  %29 = load i64*, i64** %__new_finish, align 8, !dbg !2080, !tbaa !1584
  %30 = bitcast %"class.std::vector"* %this1 to %"struct.std::_Vector_base"*, !dbg !2081
  %call13 = call dereferenceable(1) %"class.std::allocator"* @_ZNSt12_Vector_baseImSaImEE19_M_get_Tp_allocatorEv(%"struct.std::_Vector_base"* %30) #9, !dbg !2081
  %call14 = call i64* @_ZNSt6vectorImSaImEE11_S_relocateEPmS2_S2_RS0_(i64* %27, i64* %28, i64* %29, %"class.std::allocator"* dereferenceable(1) %call13) #9, !dbg !2082
  store i64* %call14, i64** %__new_finish, align 8, !dbg !2083, !tbaa !1584
  %31 = bitcast %"class.std::vector"* %this1 to %"struct.std::_Vector_base"*, !dbg !2084
  %32 = load i64*, i64** %__old_start, align 8, !dbg !2085, !tbaa !1584
  %33 = bitcast %"class.std::vector"* %this1 to %"struct.std::_Vector_base"*, !dbg !2086
  %_M_impl15 = getelementptr inbounds %"struct.std::_Vector_base", %"struct.std::_Vector_base"* %33, i32 0, i32 0, !dbg !2086
  %34 = bitcast %"struct.std::_Vector_base<unsigned long, std::allocator<unsigned long> >::_Vector_impl"* %_M_impl15 to %"struct.std::_Vector_base<unsigned long, std::allocator<unsigned long> >::_Vector_impl_data"*, !dbg !2087
  %_M_end_of_storage = getelementptr inbounds %"struct.std::_Vector_base<unsigned long, std::allocator<unsigned long> >::_Vector_impl_data", %"struct.std::_Vector_base<unsigned long, std::allocator<unsigned long> >::_Vector_impl_data"* %34, i32 0, i32 2, !dbg !2088
  %35 = load i64*, i64** %_M_end_of_storage, align 8, !dbg !2088, !tbaa !1646
  %36 = load i64*, i64** %__old_start, align 8, !dbg !2089, !tbaa !1584
  %sub.ptr.lhs.cast = ptrtoint i64* %35 to i64, !dbg !2090
  %sub.ptr.rhs.cast = ptrtoint i64* %36 to i64, !dbg !2090
  %sub.ptr.sub = sub i64 %sub.ptr.lhs.cast, %sub.ptr.rhs.cast, !dbg !2090
  %sub.ptr.div = sdiv exact i64 %sub.ptr.sub, 8, !dbg !2090
  call void @_ZNSt12_Vector_baseImSaImEE13_M_deallocateEPmm(%"struct.std::_Vector_base"* %31, i64* %32, i64 %sub.ptr.div), !dbg !2084
  %37 = load i64*, i64** %__new_start, align 8, !dbg !2091, !tbaa !1584
  %38 = bitcast %"class.std::vector"* %this1 to %"struct.std::_Vector_base"*, !dbg !2092
  %_M_impl16 = getelementptr inbounds %"struct.std::_Vector_base", %"struct.std::_Vector_base"* %38, i32 0, i32 0, !dbg !2092
  %39 = bitcast %"struct.std::_Vector_base<unsigned long, std::allocator<unsigned long> >::_Vector_impl"* %_M_impl16 to %"struct.std::_Vector_base<unsigned long, std::allocator<unsigned long> >::_Vector_impl_data"*, !dbg !2093
  %_M_start17 = getelementptr inbounds %"struct.std::_Vector_base<unsigned long, std::allocator<unsigned long> >::_Vector_impl_data", %"struct.std::_Vector_base<unsigned long, std::allocator<unsigned long> >::_Vector_impl_data"* %39, i32 0, i32 0, !dbg !2094
  store i64* %37, i64** %_M_start17, align 8, !dbg !2095, !tbaa !1835
  %40 = load i64*, i64** %__new_finish, align 8, !dbg !2096, !tbaa !1584
  %41 = bitcast %"class.std::vector"* %this1 to %"struct.std::_Vector_base"*, !dbg !2097
  %_M_impl18 = getelementptr inbounds %"struct.std::_Vector_base", %"struct.std::_Vector_base"* %41, i32 0, i32 0, !dbg !2097
  %42 = bitcast %"struct.std::_Vector_base<unsigned long, std::allocator<unsigned long> >::_Vector_impl"* %_M_impl18 to %"struct.std::_Vector_base<unsigned long, std::allocator<unsigned long> >::_Vector_impl_data"*, !dbg !2098
  %_M_finish19 = getelementptr inbounds %"struct.std::_Vector_base<unsigned long, std::allocator<unsigned long> >::_Vector_impl_data", %"struct.std::_Vector_base<unsigned long, std::allocator<unsigned long> >::_Vector_impl_data"* %42, i32 0, i32 1, !dbg !2099
  store i64* %40, i64** %_M_finish19, align 8, !dbg !2100, !tbaa !1641
  %43 = load i64*, i64** %__new_start, align 8, !dbg !2101, !tbaa !1584
  %44 = load i64, i64* %__len, align 8, !dbg !2102, !tbaa !1562
  %add.ptr20 = getelementptr inbounds i64, i64* %43, i64 %44, !dbg !2103
  %45 = bitcast %"class.std::vector"* %this1 to %"struct.std::_Vector_base"*, !dbg !2104
  %_M_impl21 = getelementptr inbounds %"struct.std::_Vector_base", %"struct.std::_Vector_base"* %45, i32 0, i32 0, !dbg !2104
  %46 = bitcast %"struct.std::_Vector_base<unsigned long, std::allocator<unsigned long> >::_Vector_impl"* %_M_impl21 to %"struct.std::_Vector_base<unsigned long, std::allocator<unsigned long> >::_Vector_impl_data"*, !dbg !2105
  %_M_end_of_storage22 = getelementptr inbounds %"struct.std::_Vector_base<unsigned long, std::allocator<unsigned long> >::_Vector_impl_data", %"struct.std::_Vector_base<unsigned long, std::allocator<unsigned long> >::_Vector_impl_data"* %46, i32 0, i32 2, !dbg !2106
  store i64* %add.ptr20, i64** %_M_end_of_storage22, align 8, !dbg !2107, !tbaa !1646
  %47 = bitcast i64** %__new_finish to i8*, !dbg !2108
  call void @llvm.lifetime.end.p0i8(i64 8, i8* %47) #9, !dbg !2108
  %48 = bitcast i64** %__new_start to i8*, !dbg !2108
  call void @llvm.lifetime.end.p0i8(i64 8, i8* %48) #9, !dbg !2108
  %49 = bitcast i64* %__elems_before to i8*, !dbg !2108
  call void @llvm.lifetime.end.p0i8(i64 8, i8* %49) #9, !dbg !2108
  %50 = bitcast i64** %__old_finish to i8*, !dbg !2108
  call void @llvm.lifetime.end.p0i8(i64 8, i8* %50) #9, !dbg !2108
  %51 = bitcast i64** %__old_start to i8*, !dbg !2108
  call void @llvm.lifetime.end.p0i8(i64 8, i8* %51) #9, !dbg !2108
  %52 = bitcast i64* %__len to i8*, !dbg !2108
  call void @llvm.lifetime.end.p0i8(i64 8, i8* %52) #9, !dbg !2108
  ret void, !dbg !2108
}

; Function Attrs: nounwind uwtable
define linkonce_odr dso_local void @_ZN9__gnu_cxx13new_allocatorImE9constructImJRKmEEEvPT_DpOT0_(%"class.__gnu_cxx::new_allocator"* %this, i64* %__p, i64* dereferenceable(8) %__args) #3 comdat align 2 !dbg !2109 {
entry:
  %this.addr = alloca %"class.__gnu_cxx::new_allocator"*, align 8
  %__p.addr = alloca i64*, align 8
  %__args.addr = alloca i64*, align 8
  store %"class.__gnu_cxx::new_allocator"* %this, %"class.__gnu_cxx::new_allocator"** %this.addr, align 8, !tbaa !1584
  call void @llvm.dbg.declare(metadata %"class.__gnu_cxx::new_allocator"** %this.addr, metadata !2114, metadata !DIExpression()), !dbg !2117
  store i64* %__p, i64** %__p.addr, align 8, !tbaa !1584
  call void @llvm.dbg.declare(metadata i64** %__p.addr, metadata !2115, metadata !DIExpression()), !dbg !2118
  store i64* %__args, i64** %__args.addr, align 8, !tbaa !1584
  call void @llvm.dbg.declare(metadata i64** %__args.addr, metadata !2116, metadata !DIExpression()), !dbg !2119
  %this1 = load %"class.__gnu_cxx::new_allocator"*, %"class.__gnu_cxx::new_allocator"** %this.addr, align 8
  %0 = load i64*, i64** %__p.addr, align 8, !dbg !2120, !tbaa !1584
  %1 = bitcast i64* %0 to i8*, !dbg !2120
  %2 = bitcast i8* %1 to i64*, !dbg !2121
  %3 = load i64*, i64** %__args.addr, align 8, !dbg !2122, !tbaa !1584
  %call = call dereferenceable(8) i64* @_ZSt7forwardIRKmEOT_RNSt16remove_referenceIS2_E4typeE(i64* dereferenceable(8) %3) #9, !dbg !2123
  %4 = load i64, i64* %call, align 8, !dbg !2123, !tbaa !1562
  store i64 %4, i64* %2, align 8, !dbg !2121, !tbaa !1562
  ret void, !dbg !2124
}

; Function Attrs: nounwind uwtable
define linkonce_odr dso_local dereferenceable(8) i64* @_ZSt7forwardIRKmEOT_RNSt16remove_referenceIS2_E4typeE(i64* dereferenceable(8) %__t) #3 comdat !dbg !2125 {
entry:
  %__t.addr = alloca i64*, align 8
  store i64* %__t, i64** %__t.addr, align 8, !tbaa !1584
  call void @llvm.dbg.declare(metadata i64** %__t.addr, metadata !2135, metadata !DIExpression()), !dbg !2136
  %0 = load i64*, i64** %__t.addr, align 8, !dbg !2137, !tbaa !1584
  ret i64* %0, !dbg !2138
}

; Function Attrs: uwtable
define linkonce_odr dso_local i64 @_ZNKSt6vectorImSaImEE12_M_check_lenEmPKc(%"class.std::vector"* %this, i64 %__n, i8* %__s) #5 comdat align 2 !dbg !2139 {
entry:
  %this.addr = alloca %"class.std::vector"*, align 8
  %__n.addr = alloca i64, align 8
  %__s.addr = alloca i8*, align 8
  %__len = alloca i64, align 8
  %ref.tmp = alloca i64, align 8
  store %"class.std::vector"* %this, %"class.std::vector"** %this.addr, align 8, !tbaa !1584
  call void @llvm.dbg.declare(metadata %"class.std::vector"** %this.addr, metadata !2141, metadata !DIExpression()), !dbg !2146
  store i64 %__n, i64* %__n.addr, align 8, !tbaa !1562
  call void @llvm.dbg.declare(metadata i64* %__n.addr, metadata !2143, metadata !DIExpression()), !dbg !2147
  store i8* %__s, i8** %__s.addr, align 8, !tbaa !1584
  call void @llvm.dbg.declare(metadata i8** %__s.addr, metadata !2144, metadata !DIExpression()), !dbg !2148
  %this1 = load %"class.std::vector"*, %"class.std::vector"** %this.addr, align 8
  %call = call i64 @_ZNKSt6vectorImSaImEE8max_sizeEv(%"class.std::vector"* %this1) #9, !dbg !2149
  %call2 = call i64 @_ZNKSt6vectorImSaImEE4sizeEv(%"class.std::vector"* %this1) #9, !dbg !2151
  %sub = sub i64 %call, %call2, !dbg !2152
  %0 = load i64, i64* %__n.addr, align 8, !dbg !2153, !tbaa !1562
  %cmp = icmp ult i64 %sub, %0, !dbg !2154
  br i1 %cmp, label %if.then, label %if.end, !dbg !2155

if.then:                                          ; preds = %entry
  %1 = load i8*, i8** %__s.addr, align 8, !dbg !2156, !tbaa !1584
  call void @_ZSt20__throw_length_errorPKc(i8* %1) #15, !dbg !2157
  unreachable, !dbg !2157

if.end:                                           ; preds = %entry
  %2 = bitcast i64* %__len to i8*, !dbg !2158
  call void @llvm.lifetime.start.p0i8(i64 8, i8* %2) #9, !dbg !2158
  call void @llvm.dbg.declare(metadata i64* %__len, metadata !2145, metadata !DIExpression()), !dbg !2159
  %call3 = call i64 @_ZNKSt6vectorImSaImEE4sizeEv(%"class.std::vector"* %this1) #9, !dbg !2160
  %3 = bitcast i64* %ref.tmp to i8*, !dbg !2161
  call void @llvm.lifetime.start.p0i8(i64 8, i8* %3) #9, !dbg !2161
  %call4 = call i64 @_ZNKSt6vectorImSaImEE4sizeEv(%"class.std::vector"* %this1) #9, !dbg !2161
  store i64 %call4, i64* %ref.tmp, align 8, !dbg !2161, !tbaa !1562
  %call5 = call dereferenceable(8) i64* @_ZSt3maxImERKT_S2_S2_(i64* dereferenceable(8) %ref.tmp, i64* dereferenceable(8) %__n.addr), !dbg !2162
  %4 = load i64, i64* %call5, align 8, !dbg !2162, !tbaa !1562
  %add = add i64 %call3, %4, !dbg !2163
  %5 = bitcast i64* %ref.tmp to i8*, !dbg !2160
  call void @llvm.lifetime.end.p0i8(i64 8, i8* %5) #9, !dbg !2160
  store i64 %add, i64* %__len, align 8, !dbg !2159, !tbaa !1562
  %6 = load i64, i64* %__len, align 8, !dbg !2164, !tbaa !1562
  %call6 = call i64 @_ZNKSt6vectorImSaImEE4sizeEv(%"class.std::vector"* %this1) #9, !dbg !2165
  %cmp7 = icmp ult i64 %6, %call6, !dbg !2166
  br i1 %cmp7, label %cond.true, label %lor.lhs.false, !dbg !2167

lor.lhs.false:                                    ; preds = %if.end
  %7 = load i64, i64* %__len, align 8, !dbg !2168, !tbaa !1562
  %call8 = call i64 @_ZNKSt6vectorImSaImEE8max_sizeEv(%"class.std::vector"* %this1) #9, !dbg !2169
  %cmp9 = icmp ugt i64 %7, %call8, !dbg !2170
  br i1 %cmp9, label %cond.true, label %cond.false, !dbg !2171

cond.true:                                        ; preds = %lor.lhs.false, %if.end
  %call10 = call i64 @_ZNKSt6vectorImSaImEE8max_sizeEv(%"class.std::vector"* %this1) #9, !dbg !2172
  br label %cond.end, !dbg !2171

cond.false:                                       ; preds = %lor.lhs.false
  %8 = load i64, i64* %__len, align 8, !dbg !2173, !tbaa !1562
  br label %cond.end, !dbg !2171

cond.end:                                         ; preds = %cond.false, %cond.true
  %cond = phi i64 [ %call10, %cond.true ], [ %8, %cond.false ], !dbg !2171
  %9 = bitcast i64* %__len to i8*, !dbg !2174
  call void @llvm.lifetime.end.p0i8(i64 8, i8* %9) #9, !dbg !2174
  ret i64 %cond, !dbg !2175
}

; Function Attrs: inlinehint nounwind uwtable
define linkonce_odr dso_local i64 @_ZN9__gnu_cxxmiIPmSt6vectorImSaImEEEENS_17__normal_iteratorIT_T0_E15difference_typeERKS8_SB_(%"class.__gnu_cxx::__normal_iterator"* dereferenceable(8) %__lhs, %"class.__gnu_cxx::__normal_iterator"* dereferenceable(8) %__rhs) #6 comdat !dbg !2176 {
entry:
  %__lhs.addr = alloca %"class.__gnu_cxx::__normal_iterator"*, align 8
  %__rhs.addr = alloca %"class.__gnu_cxx::__normal_iterator"*, align 8
  store %"class.__gnu_cxx::__normal_iterator"* %__lhs, %"class.__gnu_cxx::__normal_iterator"** %__lhs.addr, align 8, !tbaa !1584
  call void @llvm.dbg.declare(metadata %"class.__gnu_cxx::__normal_iterator"** %__lhs.addr, metadata !2180, metadata !DIExpression()), !dbg !2182
  store %"class.__gnu_cxx::__normal_iterator"* %__rhs, %"class.__gnu_cxx::__normal_iterator"** %__rhs.addr, align 8, !tbaa !1584
  call void @llvm.dbg.declare(metadata %"class.__gnu_cxx::__normal_iterator"** %__rhs.addr, metadata !2181, metadata !DIExpression()), !dbg !2183
  %0 = load %"class.__gnu_cxx::__normal_iterator"*, %"class.__gnu_cxx::__normal_iterator"** %__lhs.addr, align 8, !dbg !2184, !tbaa !1584
  %call = call dereferenceable(8) i64** @_ZNK9__gnu_cxx17__normal_iteratorIPmSt6vectorImSaImEEE4baseEv(%"class.__gnu_cxx::__normal_iterator"* %0) #9, !dbg !2185
  %1 = load i64*, i64** %call, align 8, !dbg !2185, !tbaa !1584
  %2 = load %"class.__gnu_cxx::__normal_iterator"*, %"class.__gnu_cxx::__normal_iterator"** %__rhs.addr, align 8, !dbg !2186, !tbaa !1584
  %call1 = call dereferenceable(8) i64** @_ZNK9__gnu_cxx17__normal_iteratorIPmSt6vectorImSaImEEE4baseEv(%"class.__gnu_cxx::__normal_iterator"* %2) #9, !dbg !2187
  %3 = load i64*, i64** %call1, align 8, !dbg !2187, !tbaa !1584
  %sub.ptr.lhs.cast = ptrtoint i64* %1 to i64, !dbg !2188
  %sub.ptr.rhs.cast = ptrtoint i64* %3 to i64, !dbg !2188
  %sub.ptr.sub = sub i64 %sub.ptr.lhs.cast, %sub.ptr.rhs.cast, !dbg !2188
  %sub.ptr.div = sdiv exact i64 %sub.ptr.sub, 8, !dbg !2188
  ret i64 %sub.ptr.div, !dbg !2189
}

; Function Attrs: uwtable
define linkonce_odr dso_local i64* @_ZNSt12_Vector_baseImSaImEE11_M_allocateEm(%"struct.std::_Vector_base"* %this, i64 %__n) #5 comdat align 2 !dbg !2190 {
entry:
  %this.addr = alloca %"struct.std::_Vector_base"*, align 8
  %__n.addr = alloca i64, align 8
  store %"struct.std::_Vector_base"* %this, %"struct.std::_Vector_base"** %this.addr, align 8, !tbaa !1584
  call void @llvm.dbg.declare(metadata %"struct.std::_Vector_base"** %this.addr, metadata !2192, metadata !DIExpression()), !dbg !2194
  store i64 %__n, i64* %__n.addr, align 8, !tbaa !1562
  call void @llvm.dbg.declare(metadata i64* %__n.addr, metadata !2193, metadata !DIExpression()), !dbg !2195
  %this1 = load %"struct.std::_Vector_base"*, %"struct.std::_Vector_base"** %this.addr, align 8
  %0 = load i64, i64* %__n.addr, align 8, !dbg !2196, !tbaa !1562
  %cmp = icmp ne i64 %0, 0, !dbg !2197
  br i1 %cmp, label %cond.true, label %cond.false, !dbg !2196

cond.true:                                        ; preds = %entry
  %_M_impl = getelementptr inbounds %"struct.std::_Vector_base", %"struct.std::_Vector_base"* %this1, i32 0, i32 0, !dbg !2198
  %1 = bitcast %"struct.std::_Vector_base<unsigned long, std::allocator<unsigned long> >::_Vector_impl"* %_M_impl to %"class.std::allocator"*, !dbg !2198
  %2 = load i64, i64* %__n.addr, align 8, !dbg !2199, !tbaa !1562
  %call = call i64* @_ZNSt16allocator_traitsISaImEE8allocateERS0_m(%"class.std::allocator"* dereferenceable(1) %1, i64 %2), !dbg !2200
  br label %cond.end, !dbg !2196

cond.false:                                       ; preds = %entry
  br label %cond.end, !dbg !2196

cond.end:                                         ; preds = %cond.false, %cond.true
  %cond = phi i64* [ %call, %cond.true ], [ null, %cond.false ], !dbg !2196
  ret i64* %cond, !dbg !2201
}

; Function Attrs: nounwind uwtable
define linkonce_odr dso_local i64* @_ZNSt6vectorImSaImEE11_S_relocateEPmS2_S2_RS0_(i64* %__first, i64* %__last, i64* %__result, %"class.std::allocator"* dereferenceable(1) %__alloc) #3 comdat align 2 !dbg !46 {
entry:
  %__first.addr = alloca i64*, align 8
  %__last.addr = alloca i64*, align 8
  %__result.addr = alloca i64*, align 8
  %__alloc.addr = alloca %"class.std::allocator"*, align 8
  %agg.tmp = alloca %"struct.std::integral_constant", align 1
  store i64* %__first, i64** %__first.addr, align 8, !tbaa !1584
  call void @llvm.dbg.declare(metadata i64** %__first.addr, metadata !581, metadata !DIExpression()), !dbg !2202
  store i64* %__last, i64** %__last.addr, align 8, !tbaa !1584
  call void @llvm.dbg.declare(metadata i64** %__last.addr, metadata !582, metadata !DIExpression()), !dbg !2203
  store i64* %__result, i64** %__result.addr, align 8, !tbaa !1584
  call void @llvm.dbg.declare(metadata i64** %__result.addr, metadata !583, metadata !DIExpression()), !dbg !2204
  store %"class.std::allocator"* %__alloc, %"class.std::allocator"** %__alloc.addr, align 8, !tbaa !1584
  call void @llvm.dbg.declare(metadata %"class.std::allocator"** %__alloc.addr, metadata !584, metadata !DIExpression()), !dbg !2205
  %0 = load i64*, i64** %__first.addr, align 8, !dbg !2206, !tbaa !1584
  %1 = load i64*, i64** %__last.addr, align 8, !dbg !2207, !tbaa !1584
  %2 = load i64*, i64** %__result.addr, align 8, !dbg !2208, !tbaa !1584
  %3 = load %"class.std::allocator"*, %"class.std::allocator"** %__alloc.addr, align 8, !dbg !2209, !tbaa !1584
  %call = call i64* @_ZNSt6vectorImSaImEE14_S_do_relocateEPmS2_S2_RS0_St17integral_constantIbLb1EE(i64* %0, i64* %1, i64* %2, %"class.std::allocator"* dereferenceable(1) %3) #9, !dbg !2210
  ret i64* %call, !dbg !2211
}

; Function Attrs: nounwind uwtable
define linkonce_odr dso_local dereferenceable(8) i64** @_ZNK9__gnu_cxx17__normal_iteratorIPmSt6vectorImSaImEEE4baseEv(%"class.__gnu_cxx::__normal_iterator"* %this) #3 comdat align 2 !dbg !2212 {
entry:
  %this.addr = alloca %"class.__gnu_cxx::__normal_iterator"*, align 8
  store %"class.__gnu_cxx::__normal_iterator"* %this, %"class.__gnu_cxx::__normal_iterator"** %this.addr, align 8, !tbaa !1584
  call void @llvm.dbg.declare(metadata %"class.__gnu_cxx::__normal_iterator"** %this.addr, metadata !2214, metadata !DIExpression()), !dbg !2215
  %this1 = load %"class.__gnu_cxx::__normal_iterator"*, %"class.__gnu_cxx::__normal_iterator"** %this.addr, align 8
  %_M_current = getelementptr inbounds %"class.__gnu_cxx::__normal_iterator", %"class.__gnu_cxx::__normal_iterator"* %this1, i32 0, i32 0, !dbg !2216
  ret i64** %_M_current, !dbg !2217
}

; Function Attrs: nounwind uwtable
define linkonce_odr dso_local i64 @_ZNKSt6vectorImSaImEE8max_sizeEv(%"class.std::vector"* %this) #3 comdat align 2 !dbg !2218 {
entry:
  %this.addr = alloca %"class.std::vector"*, align 8
  store %"class.std::vector"* %this, %"class.std::vector"** %this.addr, align 8, !tbaa !1584
  call void @llvm.dbg.declare(metadata %"class.std::vector"** %this.addr, metadata !2220, metadata !DIExpression()), !dbg !2221
  %this1 = load %"class.std::vector"*, %"class.std::vector"** %this.addr, align 8
  %0 = bitcast %"class.std::vector"* %this1 to %"struct.std::_Vector_base"*, !dbg !2222
  %call = call dereferenceable(1) %"class.std::allocator"* @_ZNKSt12_Vector_baseImSaImEE19_M_get_Tp_allocatorEv(%"struct.std::_Vector_base"* %0) #9, !dbg !2222
  %call2 = call i64 @_ZNSt6vectorImSaImEE11_S_max_sizeERKS0_(%"class.std::allocator"* dereferenceable(1) %call) #9, !dbg !2223
  ret i64 %call2, !dbg !2224
}

; Function Attrs: nounwind uwtable
define linkonce_odr dso_local i64 @_ZNKSt6vectorImSaImEE4sizeEv(%"class.std::vector"* %this) #3 comdat align 2 !dbg !2225 {
entry:
  %this.addr = alloca %"class.std::vector"*, align 8
  store %"class.std::vector"* %this, %"class.std::vector"** %this.addr, align 8, !tbaa !1584
  call void @llvm.dbg.declare(metadata %"class.std::vector"** %this.addr, metadata !2227, metadata !DIExpression()), !dbg !2228
  %this1 = load %"class.std::vector"*, %"class.std::vector"** %this.addr, align 8
  %0 = bitcast %"class.std::vector"* %this1 to %"struct.std::_Vector_base"*, !dbg !2229
  %_M_impl = getelementptr inbounds %"struct.std::_Vector_base", %"struct.std::_Vector_base"* %0, i32 0, i32 0, !dbg !2229
  %1 = bitcast %"struct.std::_Vector_base<unsigned long, std::allocator<unsigned long> >::_Vector_impl"* %_M_impl to %"struct.std::_Vector_base<unsigned long, std::allocator<unsigned long> >::_Vector_impl_data"*, !dbg !2230
  %_M_finish = getelementptr inbounds %"struct.std::_Vector_base<unsigned long, std::allocator<unsigned long> >::_Vector_impl_data", %"struct.std::_Vector_base<unsigned long, std::allocator<unsigned long> >::_Vector_impl_data"* %1, i32 0, i32 1, !dbg !2231
  %2 = load i64*, i64** %_M_finish, align 8, !dbg !2231, !tbaa !1641
  %3 = bitcast %"class.std::vector"* %this1 to %"struct.std::_Vector_base"*, !dbg !2232
  %_M_impl2 = getelementptr inbounds %"struct.std::_Vector_base", %"struct.std::_Vector_base"* %3, i32 0, i32 0, !dbg !2232
  %4 = bitcast %"struct.std::_Vector_base<unsigned long, std::allocator<unsigned long> >::_Vector_impl"* %_M_impl2 to %"struct.std::_Vector_base<unsigned long, std::allocator<unsigned long> >::_Vector_impl_data"*, !dbg !2233
  %_M_start = getelementptr inbounds %"struct.std::_Vector_base<unsigned long, std::allocator<unsigned long> >::_Vector_impl_data", %"struct.std::_Vector_base<unsigned long, std::allocator<unsigned long> >::_Vector_impl_data"* %4, i32 0, i32 0, !dbg !2234
  %5 = load i64*, i64** %_M_start, align 8, !dbg !2234, !tbaa !1835
  %sub.ptr.lhs.cast = ptrtoint i64* %2 to i64, !dbg !2235
  %sub.ptr.rhs.cast = ptrtoint i64* %5 to i64, !dbg !2235
  %sub.ptr.sub = sub i64 %sub.ptr.lhs.cast, %sub.ptr.rhs.cast, !dbg !2235
  %sub.ptr.div = sdiv exact i64 %sub.ptr.sub, 8, !dbg !2235
  ret i64 %sub.ptr.div, !dbg !2236
}

; Function Attrs: noreturn
declare dso_local void @_ZSt20__throw_length_errorPKc(i8*) #12

; Function Attrs: inlinehint nounwind uwtable
define linkonce_odr dso_local dereferenceable(8) i64* @_ZSt3maxImERKT_S2_S2_(i64* dereferenceable(8) %__a, i64* dereferenceable(8) %__b) #6 comdat !dbg !2237 {
entry:
  %retval = alloca i64*, align 8
  %__a.addr = alloca i64*, align 8
  %__b.addr = alloca i64*, align 8
  store i64* %__a, i64** %__a.addr, align 8, !tbaa !1584
  call void @llvm.dbg.declare(metadata i64** %__a.addr, metadata !2242, metadata !DIExpression()), !dbg !2244
  store i64* %__b, i64** %__b.addr, align 8, !tbaa !1584
  call void @llvm.dbg.declare(metadata i64** %__b.addr, metadata !2243, metadata !DIExpression()), !dbg !2245
  %0 = load i64*, i64** %__a.addr, align 8, !dbg !2246, !tbaa !1584
  %1 = load i64, i64* %0, align 8, !dbg !2246, !tbaa !1562
  %2 = load i64*, i64** %__b.addr, align 8, !dbg !2248, !tbaa !1584
  %3 = load i64, i64* %2, align 8, !dbg !2248, !tbaa !1562
  %cmp = icmp ult i64 %1, %3, !dbg !2249
  br i1 %cmp, label %if.then, label %if.end, !dbg !2250

if.then:                                          ; preds = %entry
  %4 = load i64*, i64** %__b.addr, align 8, !dbg !2251, !tbaa !1584
  store i64* %4, i64** %retval, align 8, !dbg !2252
  br label %return, !dbg !2252

if.end:                                           ; preds = %entry
  %5 = load i64*, i64** %__a.addr, align 8, !dbg !2253, !tbaa !1584
  store i64* %5, i64** %retval, align 8, !dbg !2254
  br label %return, !dbg !2254

return:                                           ; preds = %if.end, %if.then
  %6 = load i64*, i64** %retval, align 8, !dbg !2255
  ret i64* %6, !dbg !2255
}

; Function Attrs: nounwind uwtable
define linkonce_odr dso_local i64 @_ZNSt6vectorImSaImEE11_S_max_sizeERKS0_(%"class.std::allocator"* dereferenceable(1) %__a) #3 comdat align 2 personality i8* bitcast (i32 (...)* @__gxx_personality_v0 to i8*) !dbg !2256 {
entry:
  %__a.addr = alloca %"class.std::allocator"*, align 8
  %__diffmax = alloca i64, align 8
  %__allocmax = alloca i64, align 8
  %exn.slot = alloca i8*
  %ehselector.slot = alloca i32
  store %"class.std::allocator"* %__a, %"class.std::allocator"** %__a.addr, align 8, !tbaa !1584
  call void @llvm.dbg.declare(metadata %"class.std::allocator"** %__a.addr, metadata !2258, metadata !DIExpression()), !dbg !2262
  %0 = bitcast i64* %__diffmax to i8*, !dbg !2263
  call void @llvm.lifetime.start.p0i8(i64 8, i8* %0) #9, !dbg !2263
  call void @llvm.dbg.declare(metadata i64* %__diffmax, metadata !2259, metadata !DIExpression()), !dbg !2264
  store i64 1152921504606846975, i64* %__diffmax, align 8, !dbg !2264, !tbaa !1562
  %1 = bitcast i64* %__allocmax to i8*, !dbg !2265
  call void @llvm.lifetime.start.p0i8(i64 8, i8* %1) #9, !dbg !2265
  call void @llvm.dbg.declare(metadata i64* %__allocmax, metadata !2261, metadata !DIExpression()), !dbg !2266
  %2 = load %"class.std::allocator"*, %"class.std::allocator"** %__a.addr, align 8, !dbg !2267, !tbaa !1584
  %call = call i64 @_ZNSt16allocator_traitsISaImEE8max_sizeERKS0_(%"class.std::allocator"* dereferenceable(1) %2) #9, !dbg !2268
  store i64 %call, i64* %__allocmax, align 8, !dbg !2266, !tbaa !1562
  %call1 = invoke dereferenceable(8) i64* @_ZSt3minImERKT_S2_S2_(i64* dereferenceable(8) %__diffmax, i64* dereferenceable(8) %__allocmax)
          to label %invoke.cont unwind label %lpad, !dbg !2269

invoke.cont:                                      ; preds = %entry
  %3 = load i64, i64* %call1, align 8, !dbg !2269, !tbaa !1562
  %4 = bitcast i64* %__allocmax to i8*, !dbg !2270
  call void @llvm.lifetime.end.p0i8(i64 8, i8* %4) #9, !dbg !2270
  %5 = bitcast i64* %__diffmax to i8*, !dbg !2270
  call void @llvm.lifetime.end.p0i8(i64 8, i8* %5) #9, !dbg !2270
  ret i64 %3, !dbg !2271

lpad:                                             ; preds = %entry
  %6 = landingpad { i8*, i32 }
          catch i8* null, !dbg !2270
  %7 = extractvalue { i8*, i32 } %6, 0, !dbg !2270
  store i8* %7, i8** %exn.slot, align 8, !dbg !2270
  %8 = extractvalue { i8*, i32 } %6, 1, !dbg !2270
  store i32 %8, i32* %ehselector.slot, align 4, !dbg !2270
  %9 = bitcast i64* %__allocmax to i8*, !dbg !2270
  call void @llvm.lifetime.end.p0i8(i64 8, i8* %9) #9, !dbg !2270
  %10 = bitcast i64* %__diffmax to i8*, !dbg !2270
  call void @llvm.lifetime.end.p0i8(i64 8, i8* %10) #9, !dbg !2270
  br label %terminate.handler, !dbg !2270

terminate.handler:                                ; preds = %lpad
  %exn = load i8*, i8** %exn.slot, align 8, !dbg !2270
  call void @__clang_call_terminate(i8* %exn) #14, !dbg !2270
  unreachable, !dbg !2270
}

; Function Attrs: nounwind uwtable
define linkonce_odr dso_local dereferenceable(1) %"class.std::allocator"* @_ZNKSt12_Vector_baseImSaImEE19_M_get_Tp_allocatorEv(%"struct.std::_Vector_base"* %this) #3 comdat align 2 !dbg !2272 {
entry:
  %this.addr = alloca %"struct.std::_Vector_base"*, align 8
  store %"struct.std::_Vector_base"* %this, %"struct.std::_Vector_base"** %this.addr, align 8, !tbaa !1584
  call void @llvm.dbg.declare(metadata %"struct.std::_Vector_base"** %this.addr, metadata !2274, metadata !DIExpression()), !dbg !2276
  %this1 = load %"struct.std::_Vector_base"*, %"struct.std::_Vector_base"** %this.addr, align 8
  %_M_impl = getelementptr inbounds %"struct.std::_Vector_base", %"struct.std::_Vector_base"* %this1, i32 0, i32 0, !dbg !2277
  %0 = bitcast %"struct.std::_Vector_base<unsigned long, std::allocator<unsigned long> >::_Vector_impl"* %_M_impl to %"class.std::allocator"*, !dbg !2278
  ret %"class.std::allocator"* %0, !dbg !2279
}

; Function Attrs: nounwind uwtable
define linkonce_odr dso_local i64 @_ZNSt16allocator_traitsISaImEE8max_sizeERKS0_(%"class.std::allocator"* dereferenceable(1) %__a) #3 comdat align 2 !dbg !2280 {
entry:
  %__a.addr = alloca %"class.std::allocator"*, align 8
  store %"class.std::allocator"* %__a, %"class.std::allocator"** %__a.addr, align 8, !tbaa !1584
  call void @llvm.dbg.declare(metadata %"class.std::allocator"** %__a.addr, metadata !2282, metadata !DIExpression()), !dbg !2283
  %0 = load %"class.std::allocator"*, %"class.std::allocator"** %__a.addr, align 8, !dbg !2284, !tbaa !1584
  %1 = bitcast %"class.std::allocator"* %0 to %"class.__gnu_cxx::new_allocator"*, !dbg !2284
  %call = call i64 @_ZNK9__gnu_cxx13new_allocatorImE8max_sizeEv(%"class.__gnu_cxx::new_allocator"* %1) #9, !dbg !2285
  ret i64 %call, !dbg !2286
}

; Function Attrs: inlinehint nounwind uwtable
define linkonce_odr dso_local dereferenceable(8) i64* @_ZSt3minImERKT_S2_S2_(i64* dereferenceable(8) %__a, i64* dereferenceable(8) %__b) #6 comdat !dbg !2287 {
entry:
  %retval = alloca i64*, align 8
  %__a.addr = alloca i64*, align 8
  %__b.addr = alloca i64*, align 8
  store i64* %__a, i64** %__a.addr, align 8, !tbaa !1584
  call void @llvm.dbg.declare(metadata i64** %__a.addr, metadata !2289, metadata !DIExpression()), !dbg !2291
  store i64* %__b, i64** %__b.addr, align 8, !tbaa !1584
  call void @llvm.dbg.declare(metadata i64** %__b.addr, metadata !2290, metadata !DIExpression()), !dbg !2292
  %0 = load i64*, i64** %__b.addr, align 8, !dbg !2293, !tbaa !1584
  %1 = load i64, i64* %0, align 8, !dbg !2293, !tbaa !1562
  %2 = load i64*, i64** %__a.addr, align 8, !dbg !2295, !tbaa !1584
  %3 = load i64, i64* %2, align 8, !dbg !2295, !tbaa !1562
  %cmp = icmp ult i64 %1, %3, !dbg !2296
  br i1 %cmp, label %if.then, label %if.end, !dbg !2297

if.then:                                          ; preds = %entry
  %4 = load i64*, i64** %__b.addr, align 8, !dbg !2298, !tbaa !1584
  store i64* %4, i64** %retval, align 8, !dbg !2299
  br label %return, !dbg !2299

if.end:                                           ; preds = %entry
  %5 = load i64*, i64** %__a.addr, align 8, !dbg !2300, !tbaa !1584
  store i64* %5, i64** %retval, align 8, !dbg !2301
  br label %return, !dbg !2301

return:                                           ; preds = %if.end, %if.then
  %6 = load i64*, i64** %retval, align 8, !dbg !2302
  ret i64* %6, !dbg !2302
}

; Function Attrs: nounwind uwtable
define linkonce_odr dso_local i64 @_ZNK9__gnu_cxx13new_allocatorImE8max_sizeEv(%"class.__gnu_cxx::new_allocator"* %this) #3 comdat align 2 !dbg !2303 {
entry:
  %this.addr = alloca %"class.__gnu_cxx::new_allocator"*, align 8
  store %"class.__gnu_cxx::new_allocator"* %this, %"class.__gnu_cxx::new_allocator"** %this.addr, align 8, !tbaa !1584
  call void @llvm.dbg.declare(metadata %"class.__gnu_cxx::new_allocator"** %this.addr, metadata !2305, metadata !DIExpression()), !dbg !2307
  %this1 = load %"class.__gnu_cxx::new_allocator"*, %"class.__gnu_cxx::new_allocator"** %this.addr, align 8
  %call = call i64 @_ZNK9__gnu_cxx13new_allocatorImE11_M_max_sizeEv(%"class.__gnu_cxx::new_allocator"* %this1) #9, !dbg !2308
  ret i64 %call, !dbg !2309
}

; Function Attrs: nounwind uwtable
define linkonce_odr dso_local i64 @_ZNK9__gnu_cxx13new_allocatorImE11_M_max_sizeEv(%"class.__gnu_cxx::new_allocator"* %this) #3 comdat align 2 !dbg !2310 {
entry:
  %this.addr = alloca %"class.__gnu_cxx::new_allocator"*, align 8
  store %"class.__gnu_cxx::new_allocator"* %this, %"class.__gnu_cxx::new_allocator"** %this.addr, align 8, !tbaa !1584
  call void @llvm.dbg.declare(metadata %"class.__gnu_cxx::new_allocator"** %this.addr, metadata !2312, metadata !DIExpression()), !dbg !2313
  %this1 = load %"class.__gnu_cxx::new_allocator"*, %"class.__gnu_cxx::new_allocator"** %this.addr, align 8
  ret i64 1152921504606846975, !dbg !2314
}

; Function Attrs: uwtable
define linkonce_odr dso_local i64* @_ZNSt16allocator_traitsISaImEE8allocateERS0_m(%"class.std::allocator"* dereferenceable(1) %__a, i64 %__n) #5 comdat align 2 !dbg !2315 {
entry:
  %__a.addr = alloca %"class.std::allocator"*, align 8
  %__n.addr = alloca i64, align 8
  store %"class.std::allocator"* %__a, %"class.std::allocator"** %__a.addr, align 8, !tbaa !1584
  call void @llvm.dbg.declare(metadata %"class.std::allocator"** %__a.addr, metadata !2317, metadata !DIExpression()), !dbg !2319
  store i64 %__n, i64* %__n.addr, align 8, !tbaa !1562
  call void @llvm.dbg.declare(metadata i64* %__n.addr, metadata !2318, metadata !DIExpression()), !dbg !2320
  %0 = load %"class.std::allocator"*, %"class.std::allocator"** %__a.addr, align 8, !dbg !2321, !tbaa !1584
  %1 = bitcast %"class.std::allocator"* %0 to %"class.__gnu_cxx::new_allocator"*, !dbg !2321
  %2 = load i64, i64* %__n.addr, align 8, !dbg !2322, !tbaa !1562
  %call = call i64* @_ZN9__gnu_cxx13new_allocatorImE8allocateEmPKv(%"class.__gnu_cxx::new_allocator"* %1, i64 %2, i8* null), !dbg !2323
  ret i64* %call, !dbg !2324
}

; Function Attrs: uwtable
define linkonce_odr dso_local i64* @_ZN9__gnu_cxx13new_allocatorImE8allocateEmPKv(%"class.__gnu_cxx::new_allocator"* %this, i64 %__n, i8* %0) #5 comdat align 2 !dbg !2325 {
entry:
  %this.addr = alloca %"class.__gnu_cxx::new_allocator"*, align 8
  %__n.addr = alloca i64, align 8
  %.addr = alloca i8*, align 8
  store %"class.__gnu_cxx::new_allocator"* %this, %"class.__gnu_cxx::new_allocator"** %this.addr, align 8, !tbaa !1584
  call void @llvm.dbg.declare(metadata %"class.__gnu_cxx::new_allocator"** %this.addr, metadata !2327, metadata !DIExpression()), !dbg !2330
  store i64 %__n, i64* %__n.addr, align 8, !tbaa !1562
  call void @llvm.dbg.declare(metadata i64* %__n.addr, metadata !2328, metadata !DIExpression()), !dbg !2331
  store i8* %0, i8** %.addr, align 8, !tbaa !1584
  call void @llvm.dbg.declare(metadata i8** %.addr, metadata !2329, metadata !DIExpression()), !dbg !2332
  %this1 = load %"class.__gnu_cxx::new_allocator"*, %"class.__gnu_cxx::new_allocator"** %this.addr, align 8
  %1 = load i64, i64* %__n.addr, align 8, !dbg !2333, !tbaa !1562
  %call = call i64 @_ZNK9__gnu_cxx13new_allocatorImE11_M_max_sizeEv(%"class.__gnu_cxx::new_allocator"* %this1) #9, !dbg !2335
  %cmp = icmp ugt i64 %1, %call, !dbg !2336
  br i1 %cmp, label %if.then, label %if.end, !dbg !2337

if.then:                                          ; preds = %entry
  call void @_ZSt17__throw_bad_allocv() #15, !dbg !2338
  unreachable, !dbg !2338

if.end:                                           ; preds = %entry
  %2 = load i64, i64* %__n.addr, align 8, !dbg !2339, !tbaa !1562
  %mul = mul i64 %2, 8, !dbg !2340
  %call2 = call i8* @_Znwm(i64 %mul), !dbg !2341
  %3 = bitcast i8* %call2 to i64*, !dbg !2342
  ret i64* %3, !dbg !2343
}

; Function Attrs: noreturn
declare dso_local void @_ZSt17__throw_bad_allocv() #12

; Function Attrs: nobuiltin
declare !dbg !42 dso_local noalias i8* @_Znwm(i64) #13

; Function Attrs: nounwind uwtable
define linkonce_odr dso_local i64* @_ZNSt6vectorImSaImEE14_S_do_relocateEPmS2_S2_RS0_St17integral_constantIbLb1EE(i64* %__first, i64* %__last, i64* %__result, %"class.std::allocator"* dereferenceable(1) %__alloc) #3 comdat align 2 !dbg !2344 {
entry:
  %0 = alloca %"struct.std::integral_constant", align 1
  %__first.addr = alloca i64*, align 8
  %__last.addr = alloca i64*, align 8
  %__result.addr = alloca i64*, align 8
  %__alloc.addr = alloca %"class.std::allocator"*, align 8
  store i64* %__first, i64** %__first.addr, align 8, !tbaa !1584
  call void @llvm.dbg.declare(metadata i64** %__first.addr, metadata !2346, metadata !DIExpression()), !dbg !2351
  store i64* %__last, i64** %__last.addr, align 8, !tbaa !1584
  call void @llvm.dbg.declare(metadata i64** %__last.addr, metadata !2347, metadata !DIExpression()), !dbg !2352
  store i64* %__result, i64** %__result.addr, align 8, !tbaa !1584
  call void @llvm.dbg.declare(metadata i64** %__result.addr, metadata !2348, metadata !DIExpression()), !dbg !2353
  store %"class.std::allocator"* %__alloc, %"class.std::allocator"** %__alloc.addr, align 8, !tbaa !1584
  call void @llvm.dbg.declare(metadata %"class.std::allocator"** %__alloc.addr, metadata !2349, metadata !DIExpression()), !dbg !2354
  call void @llvm.dbg.declare(metadata %"struct.std::integral_constant"* %0, metadata !2350, metadata !DIExpression()), !dbg !2355
  %1 = load i64*, i64** %__first.addr, align 8, !dbg !2356, !tbaa !1584
  %2 = load i64*, i64** %__last.addr, align 8, !dbg !2357, !tbaa !1584
  %3 = load i64*, i64** %__result.addr, align 8, !dbg !2358, !tbaa !1584
  %4 = load %"class.std::allocator"*, %"class.std::allocator"** %__alloc.addr, align 8, !dbg !2359, !tbaa !1584
  %call = call i64* @_ZSt12__relocate_aIPmS0_SaImEET0_T_S3_S2_RT1_(i64* %1, i64* %2, i64* %3, %"class.std::allocator"* dereferenceable(1) %4) #9, !dbg !2360
  ret i64* %call, !dbg !2361
}

; Function Attrs: inlinehint nounwind uwtable
define linkonce_odr dso_local i64* @_ZSt12__relocate_aIPmS0_SaImEET0_T_S3_S2_RT1_(i64* %__first, i64* %__last, i64* %__result, %"class.std::allocator"* dereferenceable(1) %__alloc) #6 comdat !dbg !2362 {
entry:
  %__first.addr = alloca i64*, align 8
  %__last.addr = alloca i64*, align 8
  %__result.addr = alloca i64*, align 8
  %__alloc.addr = alloca %"class.std::allocator"*, align 8
  store i64* %__first, i64** %__first.addr, align 8, !tbaa !1584
  call void @llvm.dbg.declare(metadata i64** %__first.addr, metadata !2367, metadata !DIExpression()), !dbg !2374
  store i64* %__last, i64** %__last.addr, align 8, !tbaa !1584
  call void @llvm.dbg.declare(metadata i64** %__last.addr, metadata !2368, metadata !DIExpression()), !dbg !2375
  store i64* %__result, i64** %__result.addr, align 8, !tbaa !1584
  call void @llvm.dbg.declare(metadata i64** %__result.addr, metadata !2369, metadata !DIExpression()), !dbg !2376
  store %"class.std::allocator"* %__alloc, %"class.std::allocator"** %__alloc.addr, align 8, !tbaa !1584
  call void @llvm.dbg.declare(metadata %"class.std::allocator"** %__alloc.addr, metadata !2370, metadata !DIExpression()), !dbg !2377
  %0 = load i64*, i64** %__first.addr, align 8, !dbg !2378, !tbaa !1584
  %call = call i64* @_ZSt12__niter_baseIPmET_S1_(i64* %0) #9, !dbg !2379
  %1 = load i64*, i64** %__last.addr, align 8, !dbg !2380, !tbaa !1584
  %call1 = call i64* @_ZSt12__niter_baseIPmET_S1_(i64* %1) #9, !dbg !2381
  %2 = load i64*, i64** %__result.addr, align 8, !dbg !2382, !tbaa !1584
  %call2 = call i64* @_ZSt12__niter_baseIPmET_S1_(i64* %2) #9, !dbg !2383
  %3 = load %"class.std::allocator"*, %"class.std::allocator"** %__alloc.addr, align 8, !dbg !2384, !tbaa !1584
  %call3 = call i64* @_ZSt14__relocate_a_1ImmENSt9enable_ifIXsr3std24__is_bitwise_relocatableIT_EE5valueEPS1_E4typeES2_S2_S2_RSaIT0_E(i64* %call, i64* %call1, i64* %call2, %"class.std::allocator"* dereferenceable(1) %3) #9, !dbg !2385
  ret i64* %call3, !dbg !2386
}

; Function Attrs: inlinehint nounwind uwtable
define linkonce_odr dso_local i64* @_ZSt14__relocate_a_1ImmENSt9enable_ifIXsr3std24__is_bitwise_relocatableIT_EE5valueEPS1_E4typeES2_S2_S2_RSaIT0_E(i64* %__first, i64* %__last, i64* %__result, %"class.std::allocator"* dereferenceable(1) %0) #6 comdat !dbg !2387 {
entry:
  %__first.addr = alloca i64*, align 8
  %__last.addr = alloca i64*, align 8
  %__result.addr = alloca i64*, align 8
  %.addr = alloca %"class.std::allocator"*, align 8
  %__count = alloca i64, align 8
  store i64* %__first, i64** %__first.addr, align 8, !tbaa !1584
  call void @llvm.dbg.declare(metadata i64** %__first.addr, metadata !2396, metadata !DIExpression()), !dbg !2402
  store i64* %__last, i64** %__last.addr, align 8, !tbaa !1584
  call void @llvm.dbg.declare(metadata i64** %__last.addr, metadata !2397, metadata !DIExpression()), !dbg !2403
  store i64* %__result, i64** %__result.addr, align 8, !tbaa !1584
  call void @llvm.dbg.declare(metadata i64** %__result.addr, metadata !2398, metadata !DIExpression()), !dbg !2404
  store %"class.std::allocator"* %0, %"class.std::allocator"** %.addr, align 8, !tbaa !1584
  call void @llvm.dbg.declare(metadata %"class.std::allocator"** %.addr, metadata !2399, metadata !DIExpression()), !dbg !2405
  %1 = bitcast i64* %__count to i8*, !dbg !2406
  call void @llvm.lifetime.start.p0i8(i64 8, i8* %1) #9, !dbg !2406
  call void @llvm.dbg.declare(metadata i64* %__count, metadata !2400, metadata !DIExpression()), !dbg !2407
  %2 = load i64*, i64** %__last.addr, align 8, !dbg !2408, !tbaa !1584
  %3 = load i64*, i64** %__first.addr, align 8, !dbg !2409, !tbaa !1584
  %sub.ptr.lhs.cast = ptrtoint i64* %2 to i64, !dbg !2410
  %sub.ptr.rhs.cast = ptrtoint i64* %3 to i64, !dbg !2410
  %sub.ptr.sub = sub i64 %sub.ptr.lhs.cast, %sub.ptr.rhs.cast, !dbg !2410
  %sub.ptr.div = sdiv exact i64 %sub.ptr.sub, 8, !dbg !2410
  store i64 %sub.ptr.div, i64* %__count, align 8, !dbg !2407, !tbaa !1562
  %4 = load i64, i64* %__count, align 8, !dbg !2411, !tbaa !1562
  %cmp = icmp sgt i64 %4, 0, !dbg !2413
  br i1 %cmp, label %if.then, label %if.end, !dbg !2414

if.then:                                          ; preds = %entry
  %5 = load i64*, i64** %__result.addr, align 8, !dbg !2415, !tbaa !1584
  %6 = bitcast i64* %5 to i8*, !dbg !2416
  %7 = load i64*, i64** %__first.addr, align 8, !dbg !2417, !tbaa !1584
  %8 = bitcast i64* %7 to i8*, !dbg !2416
  %9 = load i64, i64* %__count, align 8, !dbg !2418, !tbaa !1562
  %mul = mul i64 %9, 8, !dbg !2419
  call void @llvm.memmove.p0i8.p0i8.i64(i8* align 8 %6, i8* align 8 %8, i64 %mul, i1 false), !dbg !2416
  br label %if.end, !dbg !2416

if.end:                                           ; preds = %if.then, %entry
  %10 = load i64*, i64** %__result.addr, align 8, !dbg !2420, !tbaa !1584
  %11 = load i64, i64* %__count, align 8, !dbg !2421, !tbaa !1562
  %add.ptr = getelementptr inbounds i64, i64* %10, i64 %11, !dbg !2422
  %12 = bitcast i64* %__count to i8*, !dbg !2423
  call void @llvm.lifetime.end.p0i8(i64 8, i8* %12) #9, !dbg !2423
  ret i64* %add.ptr, !dbg !2424
}

; Function Attrs: inlinehint nounwind uwtable
define linkonce_odr dso_local i64* @_ZSt12__niter_baseIPmET_S1_(i64* %__it) #6 comdat !dbg !2425 {
entry:
  %__it.addr = alloca i64*, align 8
  store i64* %__it, i64** %__it.addr, align 8, !tbaa !1584
  call void @llvm.dbg.declare(metadata i64** %__it.addr, metadata !2429, metadata !DIExpression()), !dbg !2430
  %0 = load i64*, i64** %__it.addr, align 8, !dbg !2431, !tbaa !1584
  ret i64* %0, !dbg !2432
}

; Function Attrs: argmemonly nounwind willreturn
declare void @llvm.memmove.p0i8.p0i8.i64(i8* nocapture, i8* nocapture readonly, i64, i1 immarg) #1

; Function Attrs: nounwind uwtable
define linkonce_odr dso_local void @_ZN9__gnu_cxx17__normal_iteratorIPmSt6vectorImSaImEEEC2ERKS1_(%"class.__gnu_cxx::__normal_iterator"* %this, i64** dereferenceable(8) %__i) unnamed_addr #3 comdat align 2 !dbg !2433 {
entry:
  %this.addr = alloca %"class.__gnu_cxx::__normal_iterator"*, align 8
  %__i.addr = alloca i64**, align 8
  store %"class.__gnu_cxx::__normal_iterator"* %this, %"class.__gnu_cxx::__normal_iterator"** %this.addr, align 8, !tbaa !1584
  call void @llvm.dbg.declare(metadata %"class.__gnu_cxx::__normal_iterator"** %this.addr, metadata !2435, metadata !DIExpression()), !dbg !2437
  store i64** %__i, i64*** %__i.addr, align 8, !tbaa !1584
  call void @llvm.dbg.declare(metadata i64*** %__i.addr, metadata !2436, metadata !DIExpression()), !dbg !2438
  %this1 = load %"class.__gnu_cxx::__normal_iterator"*, %"class.__gnu_cxx::__normal_iterator"** %this.addr, align 8
  %_M_current = getelementptr inbounds %"class.__gnu_cxx::__normal_iterator", %"class.__gnu_cxx::__normal_iterator"* %this1, i32 0, i32 0, !dbg !2439
  %0 = load i64**, i64*** %__i.addr, align 8, !dbg !2440, !tbaa !1584
  %1 = load i64*, i64** %0, align 8, !dbg !2440, !tbaa !1584
  store i64* %1, i64** %_M_current, align 8, !dbg !2439, !tbaa !1705
  ret void, !dbg !2441
}

; Function Attrs: uwtable
define available_externally dso_local void @_ZNSt9basic_iosIcSt11char_traitsIcEE8setstateESt12_Ios_Iostate(%"class.std::basic_ios"* %this, i32 %__state) #5 align 2 !dbg !2442 {
entry:
  %this.addr = alloca %"class.std::basic_ios"*, align 8
  %__state.addr = alloca i32, align 4
  store %"class.std::basic_ios"* %this, %"class.std::basic_ios"** %this.addr, align 8, !tbaa !1584
  call void @llvm.dbg.declare(metadata %"class.std::basic_ios"** %this.addr, metadata !2452, metadata !DIExpression()), !dbg !2455
  store i32 %__state, i32* %__state.addr, align 4, !tbaa !2456
  call void @llvm.dbg.declare(metadata i32* %__state.addr, metadata !2454, metadata !DIExpression()), !dbg !2458
  %this1 = load %"class.std::basic_ios"*, %"class.std::basic_ios"** %this.addr, align 8
  %call = call i32 @_ZNKSt9basic_iosIcSt11char_traitsIcEE7rdstateEv(%"class.std::basic_ios"* %this1), !dbg !2459
  %0 = load i32, i32* %__state.addr, align 4, !dbg !2460, !tbaa !2456
  %call2 = call i32 @_ZStorSt12_Ios_IostateS_(i32 %call, i32 %0), !dbg !2461
  call void @_ZNSt9basic_iosIcSt11char_traitsIcEE5clearESt12_Ios_Iostate(%"class.std::basic_ios"* %this1, i32 %call2), !dbg !2462
  ret void, !dbg !2463
}

declare dso_local dereferenceable(272) %"class.std::basic_ostream"* @_ZSt16__ostream_insertIcSt11char_traitsIcEERSt13basic_ostreamIT_T0_ES6_PKS3_l(%"class.std::basic_ostream"* dereferenceable(272), i8*, i64) #7

; Function Attrs: nounwind uwtable
define linkonce_odr dso_local i64 @_ZNSt11char_traitsIcE6lengthEPKc(i8* %__s) #3 comdat align 2 !dbg !2464 {
entry:
  %__s.addr = alloca i8*, align 8
  store i8* %__s, i8** %__s.addr, align 8, !tbaa !1584
  call void @llvm.dbg.declare(metadata i8** %__s.addr, metadata !2466, metadata !DIExpression()), !dbg !2467
  %0 = load i8*, i8** %__s.addr, align 8, !dbg !2468, !tbaa !1584
  %call = call i64 @strlen(i8* %0) #9, !dbg !2469
  ret i64 %call, !dbg !2470
}

declare dso_local void @_ZNSt9basic_iosIcSt11char_traitsIcEE5clearESt12_Ios_Iostate(%"class.std::basic_ios"*, i32) #7

; Function Attrs: inlinehint nounwind uwtable
define linkonce_odr dso_local i32 @_ZStorSt12_Ios_IostateS_(i32 %__a, i32 %__b) #6 comdat !dbg !2471 {
entry:
  %__a.addr = alloca i32, align 4
  %__b.addr = alloca i32, align 4
  store i32 %__a, i32* %__a.addr, align 4, !tbaa !2456
  call void @llvm.dbg.declare(metadata i32* %__a.addr, metadata !2475, metadata !DIExpression()), !dbg !2477
  store i32 %__b, i32* %__b.addr, align 4, !tbaa !2456
  call void @llvm.dbg.declare(metadata i32* %__b.addr, metadata !2476, metadata !DIExpression()), !dbg !2478
  %0 = load i32, i32* %__a.addr, align 4, !dbg !2479, !tbaa !2456
  %1 = load i32, i32* %__b.addr, align 4, !dbg !2480, !tbaa !2456
  %or = or i32 %0, %1, !dbg !2481
  ret i32 %or, !dbg !2482
}

; Function Attrs: nounwind uwtable
define available_externally dso_local i32 @_ZNKSt9basic_iosIcSt11char_traitsIcEE7rdstateEv(%"class.std::basic_ios"* %this) #3 align 2 !dbg !2483 {
entry:
  %this.addr = alloca %"class.std::basic_ios"*, align 8
  store %"class.std::basic_ios"* %this, %"class.std::basic_ios"** %this.addr, align 8, !tbaa !1584
  call void @llvm.dbg.declare(metadata %"class.std::basic_ios"** %this.addr, metadata !2490, metadata !DIExpression()), !dbg !2492
  %this1 = load %"class.std::basic_ios"*, %"class.std::basic_ios"** %this.addr, align 8
  %0 = bitcast %"class.std::basic_ios"* %this1 to %"class.std::ios_base"*, !dbg !2493
  %_M_streambuf_state = getelementptr inbounds %"class.std::ios_base", %"class.std::ios_base"* %0, i32 0, i32 5, !dbg !2493
  %1 = load i32, i32* %_M_streambuf_state, align 8, !dbg !2493, !tbaa !2494
  ret i32 %1, !dbg !2499
}

; Function Attrs: nounwind
declare dso_local i64 @strlen(i8*) #4

; Function Attrs: inlinehint uwtable
define available_externally dso_local dereferenceable(272) %"class.std::basic_ostream"* @_ZSt5flushIcSt11char_traitsIcEERSt13basic_ostreamIT_T0_ES6_(%"class.std::basic_ostream"* dereferenceable(272) %__os) #8 !dbg !2500 {
entry:
  %__os.addr = alloca %"class.std::basic_ostream"*, align 8
  store %"class.std::basic_ostream"* %__os, %"class.std::basic_ostream"** %__os.addr, align 8, !tbaa !1584
  call void @llvm.dbg.declare(metadata %"class.std::basic_ostream"** %__os.addr, metadata !2502, metadata !DIExpression()), !dbg !2503
  %0 = load %"class.std::basic_ostream"*, %"class.std::basic_ostream"** %__os.addr, align 8, !dbg !2504, !tbaa !1584
  %call = call dereferenceable(272) %"class.std::basic_ostream"* @_ZNSo5flushEv(%"class.std::basic_ostream"* %0), !dbg !2505
  ret %"class.std::basic_ostream"* %call, !dbg !2506
}

declare dso_local dereferenceable(272) %"class.std::basic_ostream"* @_ZNSo3putEc(%"class.std::basic_ostream"*, i8 signext) #7

; Function Attrs: uwtable
define available_externally dso_local signext i8 @_ZNKSt9basic_iosIcSt11char_traitsIcEE5widenEc(%"class.std::basic_ios"* %this, i8 signext %__c) #5 align 2 !dbg !2507 {
entry:
  %this.addr = alloca %"class.std::basic_ios"*, align 8
  %__c.addr = alloca i8, align 1
  store %"class.std::basic_ios"* %this, %"class.std::basic_ios"** %this.addr, align 8, !tbaa !1584
  call void @llvm.dbg.declare(metadata %"class.std::basic_ios"** %this.addr, metadata !2513, metadata !DIExpression()), !dbg !2515
  store i8 %__c, i8* %__c.addr, align 1, !tbaa !2516
  call void @llvm.dbg.declare(metadata i8* %__c.addr, metadata !2514, metadata !DIExpression()), !dbg !2517
  %this1 = load %"class.std::basic_ios"*, %"class.std::basic_ios"** %this.addr, align 8
  %_M_ctype = getelementptr inbounds %"class.std::basic_ios", %"class.std::basic_ios"* %this1, i32 0, i32 5, !dbg !2518
  %0 = load %"class.std::ctype"*, %"class.std::ctype"** %_M_ctype, align 8, !dbg !2518, !tbaa !2519
  %call = call dereferenceable(576) %"class.std::ctype"* @_ZSt13__check_facetISt5ctypeIcEERKT_PS3_(%"class.std::ctype"* %0), !dbg !2522
  %1 = load i8, i8* %__c.addr, align 1, !dbg !2523, !tbaa !2516
  %call2 = call signext i8 @_ZNKSt5ctypeIcE5widenEc(%"class.std::ctype"* %call, i8 signext %1), !dbg !2524
  ret i8 %call2, !dbg !2525
}

declare dso_local dereferenceable(272) %"class.std::basic_ostream"* @_ZNSo5flushEv(%"class.std::basic_ostream"*) #7

; Function Attrs: inlinehint uwtable
define linkonce_odr dso_local dereferenceable(576) %"class.std::ctype"* @_ZSt13__check_facetISt5ctypeIcEERKT_PS3_(%"class.std::ctype"* %__f) #8 comdat !dbg !2526 {
entry:
  %__f.addr = alloca %"class.std::ctype"*, align 8
  store %"class.std::ctype"* %__f, %"class.std::ctype"** %__f.addr, align 8, !tbaa !1584
  call void @llvm.dbg.declare(metadata %"class.std::ctype"** %__f.addr, metadata !2535, metadata !DIExpression()), !dbg !2538
  %0 = load %"class.std::ctype"*, %"class.std::ctype"** %__f.addr, align 8, !dbg !2539, !tbaa !1584
  %tobool = icmp ne %"class.std::ctype"* %0, null, !dbg !2539
  br i1 %tobool, label %if.end, label %if.then, !dbg !2541

if.then:                                          ; preds = %entry
  call void @_ZSt16__throw_bad_castv() #15, !dbg !2542
  unreachable, !dbg !2542

if.end:                                           ; preds = %entry
  %1 = load %"class.std::ctype"*, %"class.std::ctype"** %__f.addr, align 8, !dbg !2543, !tbaa !1584
  ret %"class.std::ctype"* %1, !dbg !2544
}

; Function Attrs: uwtable
define linkonce_odr dso_local signext i8 @_ZNKSt5ctypeIcE5widenEc(%"class.std::ctype"* %this, i8 signext %__c) #5 comdat align 2 !dbg !2545 {
entry:
  %retval = alloca i8, align 1
  %this.addr = alloca %"class.std::ctype"*, align 8
  %__c.addr = alloca i8, align 1
  store %"class.std::ctype"* %this, %"class.std::ctype"** %this.addr, align 8, !tbaa !1584
  call void @llvm.dbg.declare(metadata %"class.std::ctype"** %this.addr, metadata !2552, metadata !DIExpression()), !dbg !2554
  store i8 %__c, i8* %__c.addr, align 1, !tbaa !2516
  call void @llvm.dbg.declare(metadata i8* %__c.addr, metadata !2553, metadata !DIExpression()), !dbg !2555
  %this1 = load %"class.std::ctype"*, %"class.std::ctype"** %this.addr, align 8
  %_M_widen_ok = getelementptr inbounds %"class.std::ctype", %"class.std::ctype"* %this1, i32 0, i32 8, !dbg !2556
  %0 = load i8, i8* %_M_widen_ok, align 8, !dbg !2556, !tbaa !2558
  %tobool = icmp ne i8 %0, 0, !dbg !2556
  br i1 %tobool, label %if.then, label %if.end, !dbg !2560

if.then:                                          ; preds = %entry
  %_M_widen = getelementptr inbounds %"class.std::ctype", %"class.std::ctype"* %this1, i32 0, i32 9, !dbg !2561
  %1 = load i8, i8* %__c.addr, align 1, !dbg !2562, !tbaa !2516
  %idxprom = zext i8 %1 to i64, !dbg !2561
  %arrayidx = getelementptr inbounds [256 x i8], [256 x i8]* %_M_widen, i64 0, i64 %idxprom, !dbg !2561
  %2 = load i8, i8* %arrayidx, align 1, !dbg !2561, !tbaa !2516
  store i8 %2, i8* %retval, align 1, !dbg !2563
  br label %return, !dbg !2563

if.end:                                           ; preds = %entry
  call void @_ZNKSt5ctypeIcE13_M_widen_initEv(%"class.std::ctype"* %this1), !dbg !2564
  %3 = load i8, i8* %__c.addr, align 1, !dbg !2565, !tbaa !2516
  %4 = bitcast %"class.std::ctype"* %this1 to i8 (%"class.std::ctype"*, i8)***, !dbg !2566
  %vtable = load i8 (%"class.std::ctype"*, i8)**, i8 (%"class.std::ctype"*, i8)*** %4, align 8, !dbg !2566, !tbaa !1786
  %vfn = getelementptr inbounds i8 (%"class.std::ctype"*, i8)*, i8 (%"class.std::ctype"*, i8)** %vtable, i64 6, !dbg !2566
  %5 = load i8 (%"class.std::ctype"*, i8)*, i8 (%"class.std::ctype"*, i8)** %vfn, align 8, !dbg !2566
  %call = call signext i8 %5(%"class.std::ctype"* %this1, i8 signext %3), !dbg !2566
  store i8 %call, i8* %retval, align 1, !dbg !2567
  br label %return, !dbg !2567

return:                                           ; preds = %if.end, %if.then
  %6 = load i8, i8* %retval, align 1, !dbg !2568
  ret i8 %6, !dbg !2568
}

; Function Attrs: noreturn
declare dso_local void @_ZSt16__throw_bad_castv() #12

declare dso_local void @_ZNKSt5ctypeIcE13_M_widen_initEv(%"class.std::ctype"*) #7

; Function Attrs: uwtable
define internal void @_GLOBAL__sub_I_pthread_vector_yes.cpp() #5 section ".text.startup" !dbg !2569 {
entry:
  call void @__cxx_global_var_init(), !dbg !2571
  ret void
}

attributes #0 = { norecurse uwtable "correctly-rounded-divide-sqrt-fp-math"="false" "disable-tail-calls"="false" "frame-pointer"="none" "less-precise-fpmad"="false" "min-legal-vector-width"="0" "no-infs-fp-math"="false" "no-jump-tables"="false" "no-nans-fp-math"="false" "no-signed-zeros-fp-math"="false" "no-trapping-math"="false" "stack-protector-buffer-size"="8" "target-cpu"="x86-64" "target-features"="+cx8,+fxsr,+mmx,+sse,+sse2,+x87" "unsafe-fp-math"="false" "use-soft-float"="false" }
attributes #1 = { argmemonly nounwind willreturn }
attributes #2 = { nounwind readnone speculatable willreturn }
attributes #3 = { nounwind uwtable "correctly-rounded-divide-sqrt-fp-math"="false" "disable-tail-calls"="false" "frame-pointer"="none" "less-precise-fpmad"="false" "min-legal-vector-width"="0" "no-infs-fp-math"="false" "no-jump-tables"="false" "no-nans-fp-math"="false" "no-signed-zeros-fp-math"="false" "no-trapping-math"="false" "stack-protector-buffer-size"="8" "target-cpu"="x86-64" "target-features"="+cx8,+fxsr,+mmx,+sse,+sse2,+x87" "unsafe-fp-math"="false" "use-soft-float"="false" }
attributes #4 = { nounwind "correctly-rounded-divide-sqrt-fp-math"="false" "disable-tail-calls"="false" "frame-pointer"="none" "less-precise-fpmad"="false" "no-infs-fp-math"="false" "no-nans-fp-math"="false" "no-signed-zeros-fp-math"="false" "no-trapping-math"="false" "stack-protector-buffer-size"="8" "target-cpu"="x86-64" "target-features"="+cx8,+fxsr,+mmx,+sse,+sse2,+x87" "unsafe-fp-math"="false" "use-soft-float"="false" }
attributes #5 = { uwtable "correctly-rounded-divide-sqrt-fp-math"="false" "disable-tail-calls"="false" "frame-pointer"="none" "less-precise-fpmad"="false" "min-legal-vector-width"="0" "no-infs-fp-math"="false" "no-jump-tables"="false" "no-nans-fp-math"="false" "no-signed-zeros-fp-math"="false" "no-trapping-math"="false" "stack-protector-buffer-size"="8" "target-cpu"="x86-64" "target-features"="+cx8,+fxsr,+mmx,+sse,+sse2,+x87" "unsafe-fp-math"="false" "use-soft-float"="false" }
attributes #6 = { inlinehint nounwind uwtable "correctly-rounded-divide-sqrt-fp-math"="false" "disable-tail-calls"="false" "frame-pointer"="none" "less-precise-fpmad"="false" "min-legal-vector-width"="0" "no-infs-fp-math"="false" "no-jump-tables"="false" "no-nans-fp-math"="false" "no-signed-zeros-fp-math"="false" "no-trapping-math"="false" "stack-protector-buffer-size"="8" "target-cpu"="x86-64" "target-features"="+cx8,+fxsr,+mmx,+sse,+sse2,+x87" "unsafe-fp-math"="false" "use-soft-float"="false" }
attributes #7 = { "correctly-rounded-divide-sqrt-fp-math"="false" "disable-tail-calls"="false" "frame-pointer"="none" "less-precise-fpmad"="false" "no-infs-fp-math"="false" "no-nans-fp-math"="false" "no-signed-zeros-fp-math"="false" "no-trapping-math"="false" "stack-protector-buffer-size"="8" "target-cpu"="x86-64" "target-features"="+cx8,+fxsr,+mmx,+sse,+sse2,+x87" "unsafe-fp-math"="false" "use-soft-float"="false" }
attributes #8 = { inlinehint uwtable "correctly-rounded-divide-sqrt-fp-math"="false" "disable-tail-calls"="false" "frame-pointer"="none" "less-precise-fpmad"="false" "min-legal-vector-width"="0" "no-infs-fp-math"="false" "no-jump-tables"="false" "no-nans-fp-math"="false" "no-signed-zeros-fp-math"="false" "no-trapping-math"="false" "stack-protector-buffer-size"="8" "target-cpu"="x86-64" "target-features"="+cx8,+fxsr,+mmx,+sse,+sse2,+x87" "unsafe-fp-math"="false" "use-soft-float"="false" }
attributes #9 = { nounwind }
attributes #10 = { noinline noreturn nounwind }
attributes #11 = { nobuiltin nounwind "correctly-rounded-divide-sqrt-fp-math"="false" "disable-tail-calls"="false" "frame-pointer"="none" "less-precise-fpmad"="false" "no-infs-fp-math"="false" "no-nans-fp-math"="false" "no-signed-zeros-fp-math"="false" "no-trapping-math"="false" "stack-protector-buffer-size"="8" "target-cpu"="x86-64" "target-features"="+cx8,+fxsr,+mmx,+sse,+sse2,+x87" "unsafe-fp-math"="false" "use-soft-float"="false" }
attributes #12 = { noreturn "correctly-rounded-divide-sqrt-fp-math"="false" "disable-tail-calls"="false" "frame-pointer"="none" "less-precise-fpmad"="false" "no-infs-fp-math"="false" "no-nans-fp-math"="false" "no-signed-zeros-fp-math"="false" "no-trapping-math"="false" "stack-protector-buffer-size"="8" "target-cpu"="x86-64" "target-features"="+cx8,+fxsr,+mmx,+sse,+sse2,+x87" "unsafe-fp-math"="false" "use-soft-float"="false" }
attributes #13 = { nobuiltin "correctly-rounded-divide-sqrt-fp-math"="false" "disable-tail-calls"="false" "frame-pointer"="none" "less-precise-fpmad"="false" "no-infs-fp-math"="false" "no-nans-fp-math"="false" "no-signed-zeros-fp-math"="false" "no-trapping-math"="false" "stack-protector-buffer-size"="8" "target-cpu"="x86-64" "target-features"="+cx8,+fxsr,+mmx,+sse,+sse2,+x87" "unsafe-fp-math"="false" "use-soft-float"="false" }
attributes #14 = { noreturn nounwind }
attributes #15 = { noreturn }

!llvm.dbg.cu = !{!2}
!llvm.module.flags = !{!1538, !1539, !1540}
!llvm.ident = !{!1541}

!0 = !DIGlobalVariableExpression(var: !1, expr: !DIExpression())
!1 = distinct !DIGlobalVariable(name: "accum", scope: !2, file: !3, line: 13, type: !8, isLocal: false, isDefinition: true)
!2 = distinct !DICompileUnit(language: DW_LANG_C_plus_plus_14, file: !3, producer: "clang version 10.0.1 ", isOptimized: true, runtimeVersion: 0, emissionKind: FullDebug, enums: !4, retainedTypes: !17, globals: !590, imports: !614, splitDebugInlining: false, nameTableKind: None)
!3 = !DIFile(filename: "integration/pthreadrace/pthread-vector-yes.cpp", directory: "/home/brad/Code/OpenRace/tests/data")
!4 = !{!5}
!5 = !DICompositeType(tag: DW_TAG_enumeration_type, name: "_Ios_Iostate", scope: !7, file: !6, line: 153, baseType: !8, size: 32, elements: !9, identifier: "_ZTSSt12_Ios_Iostate")
!6 = !DIFile(filename: "/usr/lib64/gcc/x86_64-pc-linux-gnu/10.2.0/../../../../include/c++/10.2.0/bits/ios_base.h", directory: "")
!7 = !DINamespace(name: "std", scope: null)
!8 = !DIBasicType(name: "int", size: 32, encoding: DW_ATE_signed)
!9 = !{!10, !11, !12, !13, !14, !15, !16}
!10 = !DIEnumerator(name: "_S_goodbit", value: 0)
!11 = !DIEnumerator(name: "_S_badbit", value: 1)
!12 = !DIEnumerator(name: "_S_eofbit", value: 2)
!13 = !DIEnumerator(name: "_S_failbit", value: 4)
!14 = !DIEnumerator(name: "_S_ios_iostate_end", value: 65536)
!15 = !DIEnumerator(name: "_S_ios_iostate_max", value: 2147483647)
!16 = !DIEnumerator(name: "_S_ios_iostate_min", value: -2147483648)
!17 = !{!18, !19, !26, !31, !35, !37, !39, !41, !42, !45, !378, !586, !5, !8, !588, !589}
!18 = !DIDerivedType(tag: DW_TAG_pointer_type, baseType: null, size: 64)
!19 = !DISubprogram(name: "pthread_join", scope: !20, file: !20, line: 217, type: !21, flags: DIFlagPrototyped, spFlags: DISPFlagOptimized, retainedNodes: !25)
!20 = !DIFile(filename: "/usr/include/pthread.h", directory: "")
!21 = !DISubroutineType(types: !22)
!22 = !{!8, !23, !24}
!23 = !DIBasicType(name: "long unsigned int", size: 64, encoding: DW_ATE_unsigned)
!24 = !DIDerivedType(tag: DW_TAG_pointer_type, baseType: !18, size: 64)
!25 = !{}
!26 = !DIDerivedType(tag: DW_TAG_typedef, name: "int64_t", file: !27, line: 27, baseType: !28)
!27 = !DIFile(filename: "/usr/include/bits/stdint-intn.h", directory: "")
!28 = !DIDerivedType(tag: DW_TAG_typedef, name: "__int64_t", file: !29, line: 44, baseType: !30)
!29 = !DIFile(filename: "/usr/include/bits/types.h", directory: "")
!30 = !DIBasicType(name: "long int", size: 64, encoding: DW_ATE_signed)
!31 = !DISubprogram(name: "operator delete", linkageName: "_ZdlPv", scope: !32, file: !32, line: 130, type: !33, flags: DIFlagPrototyped, spFlags: DISPFlagOptimized, retainedNodes: !25)
!32 = !DIFile(filename: "/usr/lib64/gcc/x86_64-pc-linux-gnu/10.2.0/../../../../include/c++/10.2.0/new", directory: "")
!33 = !DISubroutineType(types: !34)
!34 = !{null, !18}
!35 = !DIDerivedType(tag: DW_TAG_typedef, name: "size_type", file: !36, line: 424, baseType: !37)
!36 = !DIFile(filename: "/usr/lib64/gcc/x86_64-pc-linux-gnu/10.2.0/../../../../include/c++/10.2.0/bits/stl_vector.h", directory: "")
!37 = !DIDerivedType(tag: DW_TAG_typedef, name: "size_t", scope: !7, file: !38, line: 260, baseType: !23)
!38 = !DIFile(filename: "/usr/lib64/gcc/x86_64-pc-linux-gnu/10.2.0/../../../../include/c++/10.2.0/x86_64-pc-linux-gnu/bits/c++config.h", directory: "")
!39 = !DIDerivedType(tag: DW_TAG_pointer_type, baseType: !40, size: 64)
!40 = !DIDerivedType(tag: DW_TAG_const_type, baseType: null)
!41 = !DIDerivedType(tag: DW_TAG_pointer_type, baseType: !23, size: 64)
!42 = !DISubprogram(name: "operator new", linkageName: "_Znwm", scope: !32, file: !32, line: 126, type: !43, flags: DIFlagPrototyped, spFlags: DISPFlagOptimized, retainedNodes: !25)
!43 = !DISubroutineType(types: !44)
!44 = !{!18, !23}
!45 = !DIDerivedType(tag: DW_TAG_typedef, name: "__do_it", scope: !46, file: !36, line: 468, baseType: !585)
!46 = distinct !DISubprogram(name: "_S_relocate", linkageName: "_ZNSt6vectorImSaImEE11_S_relocateEPmS2_S2_RS0_", scope: !47, file: !36, line: 465, type: !311, scopeLine: 467, flags: DIFlagPrototyped | DIFlagAllCallsDescribed, spFlags: DISPFlagDefinition | DISPFlagOptimized, unit: !2, declaration: !310, retainedNodes: !580)
!47 = distinct !DICompositeType(tag: DW_TAG_class_type, name: "vector<unsigned long, std::allocator<unsigned long> >", scope: !7, file: !36, line: 389, size: 192, flags: DIFlagTypePassByReference | DIFlagNonTrivial, elements: !48, templateParams: !264, identifier: "_ZTSSt6vectorImSaImEE")
!48 = !{!49, !265, !284, !300, !301, !307, !310, !313, !317, !323, !326, !332, !337, !341, !344, !347, !350, !353, !358, !359, !363, !366, !369, !372, !375, !436, !442, !443, !444, !449, !454, !455, !456, !457, !458, !459, !460, !463, !464, !467, !468, !469, !470, !473, !474, !482, !489, !492, !493, !494, !497, !500, !501, !502, !505, !508, !511, !515, !516, !519, !522, !525, !528, !531, !534, !537, !538, !539, !540, !541, !544, !545, !548, !549, !550, !557, !560, !565, !568, !571, !574, !577}
!49 = !DIDerivedType(tag: DW_TAG_inheritance, scope: !47, baseType: !50, flags: DIFlagProtected, extraData: i32 0)
!50 = distinct !DICompositeType(tag: DW_TAG_structure_type, name: "_Vector_base<unsigned long, std::allocator<unsigned long> >", scope: !7, file: !36, line: 84, size: 192, flags: DIFlagTypePassByReference | DIFlagNonTrivial, elements: !51, templateParams: !264, identifier: "_ZTSSt12_Vector_baseImSaImEE")
!51 = !{!52, !215, !220, !225, !229, !232, !237, !240, !243, !247, !250, !253, !256, !257, !260, !263}
!52 = !DIDerivedType(tag: DW_TAG_member, name: "_M_impl", scope: !50, file: !36, line: 340, baseType: !53, size: 192)
!53 = distinct !DICompositeType(tag: DW_TAG_structure_type, name: "_Vector_impl", scope: !50, file: !36, line: 128, size: 192, flags: DIFlagTypePassByReference | DIFlagNonTrivial, elements: !54, identifier: "_ZTSNSt12_Vector_baseImSaImEE12_Vector_implE")
!54 = !{!55, !170, !195, !199, !204, !208, !212}
!55 = !DIDerivedType(tag: DW_TAG_inheritance, scope: !53, baseType: !56, extraData: i32 0)
!56 = !DIDerivedType(tag: DW_TAG_typedef, name: "_Tp_alloc_type", scope: !50, file: !36, line: 87, baseType: !57)
!57 = !DIDerivedType(tag: DW_TAG_typedef, name: "other", scope: !59, file: !58, line: 120, baseType: !169)
!58 = !DIFile(filename: "/usr/lib64/gcc/x86_64-pc-linux-gnu/10.2.0/../../../../include/c++/10.2.0/ext/alloc_traits.h", directory: "")
!59 = distinct !DICompositeType(tag: DW_TAG_structure_type, name: "rebind<unsigned long>", scope: !60, file: !58, line: 119, size: 8, flags: DIFlagTypePassByValue, elements: !25, templateParams: !118, identifier: "_ZTSN9__gnu_cxx14__alloc_traitsISaImEmE6rebindImEE")
!60 = distinct !DICompositeType(tag: DW_TAG_structure_type, name: "__alloc_traits<std::allocator<unsigned long>, unsigned long>", scope: !61, file: !58, line: 48, size: 8, flags: DIFlagTypePassByValue, elements: !62, templateParams: !167, identifier: "_ZTSN9__gnu_cxx14__alloc_traitsISaImEmEE")
!61 = !DINamespace(name: "__gnu_cxx", scope: null)
!62 = !{!63, !153, !156, !159, !163, !164, !165, !166}
!63 = !DIDerivedType(tag: DW_TAG_inheritance, scope: !60, baseType: !64, extraData: i32 0)
!64 = distinct !DICompositeType(tag: DW_TAG_structure_type, name: "allocator_traits<std::allocator<unsigned long> >", scope: !7, file: !65, line: 407, size: 8, flags: DIFlagTypePassByValue, elements: !66, templateParams: !151, identifier: "_ZTSSt16allocator_traitsISaImEE")
!65 = !DIFile(filename: "/usr/lib64/gcc/x86_64-pc-linux-gnu/10.2.0/../../../../include/c++/10.2.0/bits/alloc_traits.h", directory: "")
!66 = !{!67, !135, !139, !142, !148}
!67 = !DISubprogram(name: "allocate", linkageName: "_ZNSt16allocator_traitsISaImEE8allocateERS0_m", scope: !64, file: !65, line: 459, type: !68, scopeLine: 459, flags: DIFlagPrototyped | DIFlagStaticMember, spFlags: DISPFlagOptimized)
!68 = !DISubroutineType(types: !69)
!69 = !{!70, !71, !134}
!70 = !DIDerivedType(tag: DW_TAG_typedef, name: "pointer", scope: !64, file: !65, line: 416, baseType: !41)
!71 = !DIDerivedType(tag: DW_TAG_reference_type, baseType: !72, size: 64)
!72 = !DIDerivedType(tag: DW_TAG_typedef, name: "allocator_type", scope: !64, file: !65, line: 410, baseType: !73)
!73 = distinct !DICompositeType(tag: DW_TAG_class_type, name: "allocator<unsigned long>", scope: !7, file: !74, line: 116, size: 8, flags: DIFlagTypePassByReference | DIFlagNonTrivial, elements: !75, templateParams: !118, identifier: "_ZTSSaImE")
!74 = !DIFile(filename: "/usr/lib64/gcc/x86_64-pc-linux-gnu/10.2.0/../../../../include/c++/10.2.0/bits/allocator.h", directory: "")
!75 = !{!76, !120, !124, !129, !133}
!76 = !DIDerivedType(tag: DW_TAG_inheritance, scope: !73, baseType: !77, flags: DIFlagPublic, extraData: i32 0)
!77 = !DIDerivedType(tag: DW_TAG_typedef, name: "__allocator_base<unsigned long>", scope: !7, file: !78, line: 48, baseType: !79)
!78 = !DIFile(filename: "/usr/lib64/gcc/x86_64-pc-linux-gnu/10.2.0/../../../../include/c++/10.2.0/x86_64-pc-linux-gnu/bits/c++allocator.h", directory: "")
!79 = distinct !DICompositeType(tag: DW_TAG_class_type, name: "new_allocator<unsigned long>", scope: !61, file: !80, line: 55, size: 8, flags: DIFlagTypePassByReference | DIFlagNonTrivial, elements: !81, templateParams: !118, identifier: "_ZTSN9__gnu_cxx13new_allocatorImEE")
!80 = !DIFile(filename: "/usr/lib64/gcc/x86_64-pc-linux-gnu/10.2.0/../../../../include/c++/10.2.0/ext/new_allocator.h", directory: "")
!81 = !{!82, !86, !91, !92, !99, !107, !111, !114, !117}
!82 = !DISubprogram(name: "new_allocator", scope: !79, file: !80, line: 79, type: !83, scopeLine: 79, flags: DIFlagPublic | DIFlagPrototyped, spFlags: DISPFlagOptimized)
!83 = !DISubroutineType(types: !84)
!84 = !{null, !85}
!85 = !DIDerivedType(tag: DW_TAG_pointer_type, baseType: !79, size: 64, flags: DIFlagArtificial | DIFlagObjectPointer)
!86 = !DISubprogram(name: "new_allocator", scope: !79, file: !80, line: 82, type: !87, scopeLine: 82, flags: DIFlagPublic | DIFlagPrototyped, spFlags: DISPFlagOptimized)
!87 = !DISubroutineType(types: !88)
!88 = !{null, !85, !89}
!89 = !DIDerivedType(tag: DW_TAG_reference_type, baseType: !90, size: 64)
!90 = !DIDerivedType(tag: DW_TAG_const_type, baseType: !79)
!91 = !DISubprogram(name: "~new_allocator", scope: !79, file: !80, line: 89, type: !83, scopeLine: 89, flags: DIFlagPublic | DIFlagPrototyped, spFlags: DISPFlagOptimized)
!92 = !DISubprogram(name: "address", linkageName: "_ZNK9__gnu_cxx13new_allocatorImE7addressERm", scope: !79, file: !80, line: 92, type: !93, scopeLine: 92, flags: DIFlagPublic | DIFlagPrototyped, spFlags: DISPFlagOptimized)
!93 = !DISubroutineType(types: !94)
!94 = !{!95, !96, !97}
!95 = !DIDerivedType(tag: DW_TAG_typedef, name: "pointer", scope: !79, file: !80, line: 62, baseType: !41)
!96 = !DIDerivedType(tag: DW_TAG_pointer_type, baseType: !90, size: 64, flags: DIFlagArtificial | DIFlagObjectPointer)
!97 = !DIDerivedType(tag: DW_TAG_typedef, name: "reference", scope: !79, file: !80, line: 64, baseType: !98)
!98 = !DIDerivedType(tag: DW_TAG_reference_type, baseType: !23, size: 64)
!99 = !DISubprogram(name: "address", linkageName: "_ZNK9__gnu_cxx13new_allocatorImE7addressERKm", scope: !79, file: !80, line: 96, type: !100, scopeLine: 96, flags: DIFlagPublic | DIFlagPrototyped, spFlags: DISPFlagOptimized)
!100 = !DISubroutineType(types: !101)
!101 = !{!102, !96, !105}
!102 = !DIDerivedType(tag: DW_TAG_typedef, name: "const_pointer", scope: !79, file: !80, line: 63, baseType: !103)
!103 = !DIDerivedType(tag: DW_TAG_pointer_type, baseType: !104, size: 64)
!104 = !DIDerivedType(tag: DW_TAG_const_type, baseType: !23)
!105 = !DIDerivedType(tag: DW_TAG_typedef, name: "const_reference", scope: !79, file: !80, line: 65, baseType: !106)
!106 = !DIDerivedType(tag: DW_TAG_reference_type, baseType: !104, size: 64)
!107 = !DISubprogram(name: "allocate", linkageName: "_ZN9__gnu_cxx13new_allocatorImE8allocateEmPKv", scope: !79, file: !80, line: 103, type: !108, scopeLine: 103, flags: DIFlagPublic | DIFlagPrototyped, spFlags: DISPFlagOptimized)
!108 = !DISubroutineType(types: !109)
!109 = !{!41, !85, !110, !39}
!110 = !DIDerivedType(tag: DW_TAG_typedef, name: "size_type", file: !80, line: 59, baseType: !37)
!111 = !DISubprogram(name: "deallocate", linkageName: "_ZN9__gnu_cxx13new_allocatorImE10deallocateEPmm", scope: !79, file: !80, line: 120, type: !112, scopeLine: 120, flags: DIFlagPublic | DIFlagPrototyped, spFlags: DISPFlagOptimized)
!112 = !DISubroutineType(types: !113)
!113 = !{null, !85, !41, !110}
!114 = !DISubprogram(name: "max_size", linkageName: "_ZNK9__gnu_cxx13new_allocatorImE8max_sizeEv", scope: !79, file: !80, line: 142, type: !115, scopeLine: 142, flags: DIFlagPublic | DIFlagPrototyped, spFlags: DISPFlagOptimized)
!115 = !DISubroutineType(types: !116)
!116 = !{!110, !96}
!117 = !DISubprogram(name: "_M_max_size", linkageName: "_ZNK9__gnu_cxx13new_allocatorImE11_M_max_sizeEv", scope: !79, file: !80, line: 185, type: !115, scopeLine: 185, flags: DIFlagPrototyped, spFlags: DISPFlagOptimized)
!118 = !{!119}
!119 = !DITemplateTypeParameter(name: "_Tp", type: !23)
!120 = !DISubprogram(name: "allocator", scope: !73, file: !74, line: 144, type: !121, scopeLine: 144, flags: DIFlagPublic | DIFlagPrototyped, spFlags: DISPFlagOptimized)
!121 = !DISubroutineType(types: !122)
!122 = !{null, !123}
!123 = !DIDerivedType(tag: DW_TAG_pointer_type, baseType: !73, size: 64, flags: DIFlagArtificial | DIFlagObjectPointer)
!124 = !DISubprogram(name: "allocator", scope: !73, file: !74, line: 147, type: !125, scopeLine: 147, flags: DIFlagPublic | DIFlagPrototyped, spFlags: DISPFlagOptimized)
!125 = !DISubroutineType(types: !126)
!126 = !{null, !123, !127}
!127 = !DIDerivedType(tag: DW_TAG_reference_type, baseType: !128, size: 64)
!128 = !DIDerivedType(tag: DW_TAG_const_type, baseType: !73)
!129 = !DISubprogram(name: "operator=", linkageName: "_ZNSaImEaSERKS_", scope: !73, file: !74, line: 152, type: !130, scopeLine: 152, flags: DIFlagPublic | DIFlagPrototyped, spFlags: DISPFlagOptimized)
!130 = !DISubroutineType(types: !131)
!131 = !{!132, !123, !127}
!132 = !DIDerivedType(tag: DW_TAG_reference_type, baseType: !73, size: 64)
!133 = !DISubprogram(name: "~allocator", scope: !73, file: !74, line: 162, type: !121, scopeLine: 162, flags: DIFlagPublic | DIFlagPrototyped, spFlags: DISPFlagOptimized)
!134 = !DIDerivedType(tag: DW_TAG_typedef, name: "size_type", file: !65, line: 431, baseType: !37)
!135 = !DISubprogram(name: "allocate", linkageName: "_ZNSt16allocator_traitsISaImEE8allocateERS0_mPKv", scope: !64, file: !65, line: 473, type: !136, scopeLine: 473, flags: DIFlagPrototyped | DIFlagStaticMember, spFlags: DISPFlagOptimized)
!136 = !DISubroutineType(types: !137)
!137 = !{!70, !71, !134, !138}
!138 = !DIDerivedType(tag: DW_TAG_typedef, name: "const_void_pointer", file: !65, line: 425, baseType: !39)
!139 = !DISubprogram(name: "deallocate", linkageName: "_ZNSt16allocator_traitsISaImEE10deallocateERS0_Pmm", scope: !64, file: !65, line: 491, type: !140, scopeLine: 491, flags: DIFlagPrototyped | DIFlagStaticMember, spFlags: DISPFlagOptimized)
!140 = !DISubroutineType(types: !141)
!141 = !{null, !71, !70, !134}
!142 = !DISubprogram(name: "max_size", linkageName: "_ZNSt16allocator_traitsISaImEE8max_sizeERKS0_", scope: !64, file: !65, line: 543, type: !143, scopeLine: 543, flags: DIFlagPrototyped | DIFlagStaticMember, spFlags: DISPFlagOptimized)
!143 = !DISubroutineType(types: !144)
!144 = !{!145, !146}
!145 = !DIDerivedType(tag: DW_TAG_typedef, name: "size_type", scope: !64, file: !65, line: 431, baseType: !37)
!146 = !DIDerivedType(tag: DW_TAG_reference_type, baseType: !147, size: 64)
!147 = !DIDerivedType(tag: DW_TAG_const_type, baseType: !72)
!148 = !DISubprogram(name: "select_on_container_copy_construction", linkageName: "_ZNSt16allocator_traitsISaImEE37select_on_container_copy_constructionERKS0_", scope: !64, file: !65, line: 558, type: !149, scopeLine: 558, flags: DIFlagPrototyped | DIFlagStaticMember, spFlags: DISPFlagOptimized)
!149 = !DISubroutineType(types: !150)
!150 = !{!72, !146}
!151 = !{!152}
!152 = !DITemplateTypeParameter(name: "_Alloc", type: !73)
!153 = !DISubprogram(name: "_S_select_on_copy", linkageName: "_ZN9__gnu_cxx14__alloc_traitsISaImEmE17_S_select_on_copyERKS1_", scope: !60, file: !58, line: 97, type: !154, scopeLine: 97, flags: DIFlagPrototyped | DIFlagStaticMember, spFlags: DISPFlagOptimized)
!154 = !DISubroutineType(types: !155)
!155 = !{!73, !127}
!156 = !DISubprogram(name: "_S_on_swap", linkageName: "_ZN9__gnu_cxx14__alloc_traitsISaImEmE10_S_on_swapERS1_S3_", scope: !60, file: !58, line: 100, type: !157, scopeLine: 100, flags: DIFlagPrototyped | DIFlagStaticMember, spFlags: DISPFlagOptimized)
!157 = !DISubroutineType(types: !158)
!158 = !{null, !132, !132}
!159 = !DISubprogram(name: "_S_propagate_on_copy_assign", linkageName: "_ZN9__gnu_cxx14__alloc_traitsISaImEmE27_S_propagate_on_copy_assignEv", scope: !60, file: !58, line: 103, type: !160, scopeLine: 103, flags: DIFlagPrototyped | DIFlagStaticMember, spFlags: DISPFlagOptimized)
!160 = !DISubroutineType(types: !161)
!161 = !{!162}
!162 = !DIBasicType(name: "bool", size: 8, encoding: DW_ATE_boolean)
!163 = !DISubprogram(name: "_S_propagate_on_move_assign", linkageName: "_ZN9__gnu_cxx14__alloc_traitsISaImEmE27_S_propagate_on_move_assignEv", scope: !60, file: !58, line: 106, type: !160, scopeLine: 106, flags: DIFlagPrototyped | DIFlagStaticMember, spFlags: DISPFlagOptimized)
!164 = !DISubprogram(name: "_S_propagate_on_swap", linkageName: "_ZN9__gnu_cxx14__alloc_traitsISaImEmE20_S_propagate_on_swapEv", scope: !60, file: !58, line: 109, type: !160, scopeLine: 109, flags: DIFlagPrototyped | DIFlagStaticMember, spFlags: DISPFlagOptimized)
!165 = !DISubprogram(name: "_S_always_equal", linkageName: "_ZN9__gnu_cxx14__alloc_traitsISaImEmE15_S_always_equalEv", scope: !60, file: !58, line: 112, type: !160, scopeLine: 112, flags: DIFlagPrototyped | DIFlagStaticMember, spFlags: DISPFlagOptimized)
!166 = !DISubprogram(name: "_S_nothrow_move", linkageName: "_ZN9__gnu_cxx14__alloc_traitsISaImEmE15_S_nothrow_moveEv", scope: !60, file: !58, line: 115, type: !160, scopeLine: 115, flags: DIFlagPrototyped | DIFlagStaticMember, spFlags: DISPFlagOptimized)
!167 = !{!152, !168}
!168 = !DITemplateTypeParameter(type: !23)
!169 = !DIDerivedType(tag: DW_TAG_typedef, name: "rebind_alloc<unsigned long>", scope: !64, file: !65, line: 446, baseType: !73)
!170 = !DIDerivedType(tag: DW_TAG_inheritance, scope: !53, baseType: !171, extraData: i32 0)
!171 = distinct !DICompositeType(tag: DW_TAG_structure_type, name: "_Vector_impl_data", scope: !50, file: !36, line: 91, size: 192, flags: DIFlagTypePassByReference | DIFlagNonTrivial, elements: !172, identifier: "_ZTSNSt12_Vector_baseImSaImEE17_Vector_impl_dataE")
!172 = !{!173, !176, !177, !178, !182, !186, !191}
!173 = !DIDerivedType(tag: DW_TAG_member, name: "_M_start", scope: !171, file: !36, line: 93, baseType: !174, size: 64)
!174 = !DIDerivedType(tag: DW_TAG_typedef, name: "pointer", scope: !50, file: !36, line: 89, baseType: !175)
!175 = !DIDerivedType(tag: DW_TAG_typedef, name: "pointer", scope: !60, file: !58, line: 57, baseType: !70)
!176 = !DIDerivedType(tag: DW_TAG_member, name: "_M_finish", scope: !171, file: !36, line: 94, baseType: !174, size: 64, offset: 64)
!177 = !DIDerivedType(tag: DW_TAG_member, name: "_M_end_of_storage", scope: !171, file: !36, line: 95, baseType: !174, size: 64, offset: 128)
!178 = !DISubprogram(name: "_Vector_impl_data", scope: !171, file: !36, line: 97, type: !179, scopeLine: 97, flags: DIFlagPrototyped, spFlags: DISPFlagOptimized)
!179 = !DISubroutineType(types: !180)
!180 = !{null, !181}
!181 = !DIDerivedType(tag: DW_TAG_pointer_type, baseType: !171, size: 64, flags: DIFlagArtificial | DIFlagObjectPointer)
!182 = !DISubprogram(name: "_Vector_impl_data", scope: !171, file: !36, line: 102, type: !183, scopeLine: 102, flags: DIFlagPrototyped, spFlags: DISPFlagOptimized)
!183 = !DISubroutineType(types: !184)
!184 = !{null, !181, !185}
!185 = !DIDerivedType(tag: DW_TAG_rvalue_reference_type, baseType: !171, size: 64)
!186 = !DISubprogram(name: "_M_copy_data", linkageName: "_ZNSt12_Vector_baseImSaImEE17_Vector_impl_data12_M_copy_dataERKS2_", scope: !171, file: !36, line: 109, type: !187, scopeLine: 109, flags: DIFlagPrototyped, spFlags: DISPFlagOptimized)
!187 = !DISubroutineType(types: !188)
!188 = !{null, !181, !189}
!189 = !DIDerivedType(tag: DW_TAG_reference_type, baseType: !190, size: 64)
!190 = !DIDerivedType(tag: DW_TAG_const_type, baseType: !171)
!191 = !DISubprogram(name: "_M_swap_data", linkageName: "_ZNSt12_Vector_baseImSaImEE17_Vector_impl_data12_M_swap_dataERS2_", scope: !171, file: !36, line: 117, type: !192, scopeLine: 117, flags: DIFlagPrototyped, spFlags: DISPFlagOptimized)
!192 = !DISubroutineType(types: !193)
!193 = !{null, !181, !194}
!194 = !DIDerivedType(tag: DW_TAG_reference_type, baseType: !171, size: 64)
!195 = !DISubprogram(name: "_Vector_impl", scope: !53, file: !36, line: 131, type: !196, scopeLine: 131, flags: DIFlagPrototyped, spFlags: DISPFlagOptimized)
!196 = !DISubroutineType(types: !197)
!197 = !{null, !198}
!198 = !DIDerivedType(tag: DW_TAG_pointer_type, baseType: !53, size: 64, flags: DIFlagArtificial | DIFlagObjectPointer)
!199 = !DISubprogram(name: "_Vector_impl", scope: !53, file: !36, line: 136, type: !200, scopeLine: 136, flags: DIFlagPrototyped, spFlags: DISPFlagOptimized)
!200 = !DISubroutineType(types: !201)
!201 = !{null, !198, !202}
!202 = !DIDerivedType(tag: DW_TAG_reference_type, baseType: !203, size: 64)
!203 = !DIDerivedType(tag: DW_TAG_const_type, baseType: !56)
!204 = !DISubprogram(name: "_Vector_impl", scope: !53, file: !36, line: 143, type: !205, scopeLine: 143, flags: DIFlagPrototyped, spFlags: DISPFlagOptimized)
!205 = !DISubroutineType(types: !206)
!206 = !{null, !198, !207}
!207 = !DIDerivedType(tag: DW_TAG_rvalue_reference_type, baseType: !53, size: 64)
!208 = !DISubprogram(name: "_Vector_impl", scope: !53, file: !36, line: 147, type: !209, scopeLine: 147, flags: DIFlagPrototyped, spFlags: DISPFlagOptimized)
!209 = !DISubroutineType(types: !210)
!210 = !{null, !198, !211}
!211 = !DIDerivedType(tag: DW_TAG_rvalue_reference_type, baseType: !56, size: 64)
!212 = !DISubprogram(name: "_Vector_impl", scope: !53, file: !36, line: 151, type: !213, scopeLine: 151, flags: DIFlagPrototyped, spFlags: DISPFlagOptimized)
!213 = !DISubroutineType(types: !214)
!214 = !{null, !198, !211, !207}
!215 = !DISubprogram(name: "_M_get_Tp_allocator", linkageName: "_ZNSt12_Vector_baseImSaImEE19_M_get_Tp_allocatorEv", scope: !50, file: !36, line: 276, type: !216, scopeLine: 276, flags: DIFlagPrototyped, spFlags: DISPFlagOptimized)
!216 = !DISubroutineType(types: !217)
!217 = !{!218, !219}
!218 = !DIDerivedType(tag: DW_TAG_reference_type, baseType: !56, size: 64)
!219 = !DIDerivedType(tag: DW_TAG_pointer_type, baseType: !50, size: 64, flags: DIFlagArtificial | DIFlagObjectPointer)
!220 = !DISubprogram(name: "_M_get_Tp_allocator", linkageName: "_ZNKSt12_Vector_baseImSaImEE19_M_get_Tp_allocatorEv", scope: !50, file: !36, line: 280, type: !221, scopeLine: 280, flags: DIFlagPrototyped, spFlags: DISPFlagOptimized)
!221 = !DISubroutineType(types: !222)
!222 = !{!202, !223}
!223 = !DIDerivedType(tag: DW_TAG_pointer_type, baseType: !224, size: 64, flags: DIFlagArtificial | DIFlagObjectPointer)
!224 = !DIDerivedType(tag: DW_TAG_const_type, baseType: !50)
!225 = !DISubprogram(name: "get_allocator", linkageName: "_ZNKSt12_Vector_baseImSaImEE13get_allocatorEv", scope: !50, file: !36, line: 284, type: !226, scopeLine: 284, flags: DIFlagPrototyped, spFlags: DISPFlagOptimized)
!226 = !DISubroutineType(types: !227)
!227 = !{!228, !223}
!228 = !DIDerivedType(tag: DW_TAG_typedef, name: "allocator_type", scope: !50, file: !36, line: 273, baseType: !73)
!229 = !DISubprogram(name: "_Vector_base", scope: !50, file: !36, line: 288, type: !230, scopeLine: 288, flags: DIFlagPrototyped, spFlags: DISPFlagOptimized)
!230 = !DISubroutineType(types: !231)
!231 = !{null, !219}
!232 = !DISubprogram(name: "_Vector_base", scope: !50, file: !36, line: 293, type: !233, scopeLine: 293, flags: DIFlagPrototyped, spFlags: DISPFlagOptimized)
!233 = !DISubroutineType(types: !234)
!234 = !{null, !219, !235}
!235 = !DIDerivedType(tag: DW_TAG_reference_type, baseType: !236, size: 64)
!236 = !DIDerivedType(tag: DW_TAG_const_type, baseType: !228)
!237 = !DISubprogram(name: "_Vector_base", scope: !50, file: !36, line: 298, type: !238, scopeLine: 298, flags: DIFlagPrototyped, spFlags: DISPFlagOptimized)
!238 = !DISubroutineType(types: !239)
!239 = !{null, !219, !37}
!240 = !DISubprogram(name: "_Vector_base", scope: !50, file: !36, line: 303, type: !241, scopeLine: 303, flags: DIFlagPrototyped, spFlags: DISPFlagOptimized)
!241 = !DISubroutineType(types: !242)
!242 = !{null, !219, !37, !235}
!243 = !DISubprogram(name: "_Vector_base", scope: !50, file: !36, line: 308, type: !244, scopeLine: 308, flags: DIFlagPrototyped, spFlags: DISPFlagOptimized)
!244 = !DISubroutineType(types: !245)
!245 = !{null, !219, !246}
!246 = !DIDerivedType(tag: DW_TAG_rvalue_reference_type, baseType: !50, size: 64)
!247 = !DISubprogram(name: "_Vector_base", scope: !50, file: !36, line: 312, type: !248, scopeLine: 312, flags: DIFlagPrototyped, spFlags: DISPFlagOptimized)
!248 = !DISubroutineType(types: !249)
!249 = !{null, !219, !211}
!250 = !DISubprogram(name: "_Vector_base", scope: !50, file: !36, line: 315, type: !251, scopeLine: 315, flags: DIFlagPrototyped, spFlags: DISPFlagOptimized)
!251 = !DISubroutineType(types: !252)
!252 = !{null, !219, !246, !235}
!253 = !DISubprogram(name: "_Vector_base", scope: !50, file: !36, line: 328, type: !254, scopeLine: 328, flags: DIFlagPrototyped, spFlags: DISPFlagOptimized)
!254 = !DISubroutineType(types: !255)
!255 = !{null, !219, !235, !246}
!256 = !DISubprogram(name: "~_Vector_base", scope: !50, file: !36, line: 333, type: !230, scopeLine: 333, flags: DIFlagPrototyped, spFlags: DISPFlagOptimized)
!257 = !DISubprogram(name: "_M_allocate", linkageName: "_ZNSt12_Vector_baseImSaImEE11_M_allocateEm", scope: !50, file: !36, line: 343, type: !258, scopeLine: 343, flags: DIFlagPrototyped, spFlags: DISPFlagOptimized)
!258 = !DISubroutineType(types: !259)
!259 = !{!174, !219, !37}
!260 = !DISubprogram(name: "_M_deallocate", linkageName: "_ZNSt12_Vector_baseImSaImEE13_M_deallocateEPmm", scope: !50, file: !36, line: 350, type: !261, scopeLine: 350, flags: DIFlagPrototyped, spFlags: DISPFlagOptimized)
!261 = !DISubroutineType(types: !262)
!262 = !{null, !219, !174, !37}
!263 = !DISubprogram(name: "_M_create_storage", linkageName: "_ZNSt12_Vector_baseImSaImEE17_M_create_storageEm", scope: !50, file: !36, line: 359, type: !238, scopeLine: 359, flags: DIFlagProtected | DIFlagPrototyped, spFlags: DISPFlagOptimized)
!264 = !{!119, !152}
!265 = !DISubprogram(name: "_S_nothrow_relocate", linkageName: "_ZNSt6vectorImSaImEE19_S_nothrow_relocateESt17integral_constantIbLb1EE", scope: !47, file: !36, line: 431, type: !266, scopeLine: 431, flags: DIFlagPrototyped | DIFlagStaticMember, spFlags: DISPFlagOptimized)
!266 = !DISubroutineType(types: !267)
!267 = !{!162, !268}
!268 = !DIDerivedType(tag: DW_TAG_typedef, name: "true_type", scope: !7, file: !269, line: 75, baseType: !270)
!269 = !DIFile(filename: "/usr/lib64/gcc/x86_64-pc-linux-gnu/10.2.0/../../../../include/c++/10.2.0/type_traits", directory: "")
!270 = distinct !DICompositeType(tag: DW_TAG_structure_type, name: "integral_constant<bool, true>", scope: !7, file: !269, line: 57, size: 8, flags: DIFlagTypePassByValue, elements: !271, templateParams: !281, identifier: "_ZTSSt17integral_constantIbLb1EE")
!271 = !{!272, !274, !280}
!272 = !DIDerivedType(tag: DW_TAG_member, name: "value", scope: !270, file: !269, line: 59, baseType: !273, flags: DIFlagStaticMember, extraData: i1 true)
!273 = !DIDerivedType(tag: DW_TAG_const_type, baseType: !162)
!274 = !DISubprogram(name: "operator bool", linkageName: "_ZNKSt17integral_constantIbLb1EEcvbEv", scope: !270, file: !269, line: 62, type: !275, scopeLine: 62, flags: DIFlagPrototyped, spFlags: DISPFlagOptimized)
!275 = !DISubroutineType(types: !276)
!276 = !{!277, !278}
!277 = !DIDerivedType(tag: DW_TAG_typedef, name: "value_type", scope: !270, file: !269, line: 60, baseType: !162)
!278 = !DIDerivedType(tag: DW_TAG_pointer_type, baseType: !279, size: 64, flags: DIFlagArtificial | DIFlagObjectPointer)
!279 = !DIDerivedType(tag: DW_TAG_const_type, baseType: !270)
!280 = !DISubprogram(name: "operator()", linkageName: "_ZNKSt17integral_constantIbLb1EEclEv", scope: !270, file: !269, line: 67, type: !275, scopeLine: 67, flags: DIFlagPrototyped, spFlags: DISPFlagOptimized)
!281 = !{!282, !283}
!282 = !DITemplateTypeParameter(name: "_Tp", type: !162)
!283 = !DITemplateValueParameter(name: "__v", type: !162, value: i8 1)
!284 = !DISubprogram(name: "_S_nothrow_relocate", linkageName: "_ZNSt6vectorImSaImEE19_S_nothrow_relocateESt17integral_constantIbLb0EE", scope: !47, file: !36, line: 440, type: !285, scopeLine: 440, flags: DIFlagPrototyped | DIFlagStaticMember, spFlags: DISPFlagOptimized)
!285 = !DISubroutineType(types: !286)
!286 = !{!162, !287}
!287 = !DIDerivedType(tag: DW_TAG_typedef, name: "false_type", scope: !7, file: !269, line: 78, baseType: !288)
!288 = distinct !DICompositeType(tag: DW_TAG_structure_type, name: "integral_constant<bool, false>", scope: !7, file: !269, line: 57, size: 8, flags: DIFlagTypePassByValue, elements: !289, templateParams: !298, identifier: "_ZTSSt17integral_constantIbLb0EE")
!289 = !{!290, !291, !297}
!290 = !DIDerivedType(tag: DW_TAG_member, name: "value", scope: !288, file: !269, line: 59, baseType: !273, flags: DIFlagStaticMember, extraData: i1 false)
!291 = !DISubprogram(name: "operator bool", linkageName: "_ZNKSt17integral_constantIbLb0EEcvbEv", scope: !288, file: !269, line: 62, type: !292, scopeLine: 62, flags: DIFlagPrototyped, spFlags: DISPFlagOptimized)
!292 = !DISubroutineType(types: !293)
!293 = !{!294, !295}
!294 = !DIDerivedType(tag: DW_TAG_typedef, name: "value_type", scope: !288, file: !269, line: 60, baseType: !162)
!295 = !DIDerivedType(tag: DW_TAG_pointer_type, baseType: !296, size: 64, flags: DIFlagArtificial | DIFlagObjectPointer)
!296 = !DIDerivedType(tag: DW_TAG_const_type, baseType: !288)
!297 = !DISubprogram(name: "operator()", linkageName: "_ZNKSt17integral_constantIbLb0EEclEv", scope: !288, file: !269, line: 67, type: !292, scopeLine: 67, flags: DIFlagPrototyped, spFlags: DISPFlagOptimized)
!298 = !{!282, !299}
!299 = !DITemplateValueParameter(name: "__v", type: !162, value: i8 0)
!300 = !DISubprogram(name: "_S_use_relocate", linkageName: "_ZNSt6vectorImSaImEE15_S_use_relocateEv", scope: !47, file: !36, line: 444, type: !160, scopeLine: 444, flags: DIFlagPrototyped | DIFlagStaticMember, spFlags: DISPFlagOptimized)
!301 = !DISubprogram(name: "_S_do_relocate", linkageName: "_ZNSt6vectorImSaImEE14_S_do_relocateEPmS2_S2_RS0_St17integral_constantIbLb1EE", scope: !47, file: !36, line: 453, type: !302, scopeLine: 453, flags: DIFlagPrototyped | DIFlagStaticMember, spFlags: DISPFlagOptimized)
!302 = !DISubroutineType(types: !303)
!303 = !{!304, !304, !304, !304, !305, !268}
!304 = !DIDerivedType(tag: DW_TAG_typedef, name: "pointer", scope: !47, file: !36, line: 415, baseType: !174)
!305 = !DIDerivedType(tag: DW_TAG_reference_type, baseType: !306, size: 64)
!306 = !DIDerivedType(tag: DW_TAG_typedef, name: "_Tp_alloc_type", scope: !47, file: !36, line: 410, baseType: !56)
!307 = !DISubprogram(name: "_S_do_relocate", linkageName: "_ZNSt6vectorImSaImEE14_S_do_relocateEPmS2_S2_RS0_St17integral_constantIbLb0EE", scope: !47, file: !36, line: 460, type: !308, scopeLine: 460, flags: DIFlagPrototyped | DIFlagStaticMember, spFlags: DISPFlagOptimized)
!308 = !DISubroutineType(types: !309)
!309 = !{!304, !304, !304, !304, !305, !287}
!310 = !DISubprogram(name: "_S_relocate", linkageName: "_ZNSt6vectorImSaImEE11_S_relocateEPmS2_S2_RS0_", scope: !47, file: !36, line: 465, type: !311, scopeLine: 465, flags: DIFlagPrototyped | DIFlagStaticMember, spFlags: DISPFlagOptimized)
!311 = !DISubroutineType(types: !312)
!312 = !{!304, !304, !304, !304, !305}
!313 = !DISubprogram(name: "vector", scope: !47, file: !36, line: 487, type: !314, scopeLine: 487, flags: DIFlagPublic | DIFlagPrototyped, spFlags: DISPFlagOptimized)
!314 = !DISubroutineType(types: !315)
!315 = !{null, !316}
!316 = !DIDerivedType(tag: DW_TAG_pointer_type, baseType: !47, size: 64, flags: DIFlagArtificial | DIFlagObjectPointer)
!317 = !DISubprogram(name: "vector", scope: !47, file: !36, line: 497, type: !318, scopeLine: 497, flags: DIFlagPublic | DIFlagExplicit | DIFlagPrototyped, spFlags: DISPFlagOptimized)
!318 = !DISubroutineType(types: !319)
!319 = !{null, !316, !320}
!320 = !DIDerivedType(tag: DW_TAG_reference_type, baseType: !321, size: 64)
!321 = !DIDerivedType(tag: DW_TAG_const_type, baseType: !322)
!322 = !DIDerivedType(tag: DW_TAG_typedef, name: "allocator_type", scope: !47, file: !36, line: 426, baseType: !73)
!323 = !DISubprogram(name: "vector", scope: !47, file: !36, line: 510, type: !324, scopeLine: 510, flags: DIFlagPublic | DIFlagExplicit | DIFlagPrototyped, spFlags: DISPFlagOptimized)
!324 = !DISubroutineType(types: !325)
!325 = !{null, !316, !35, !320}
!326 = !DISubprogram(name: "vector", scope: !47, file: !36, line: 522, type: !327, scopeLine: 522, flags: DIFlagPublic | DIFlagPrototyped, spFlags: DISPFlagOptimized)
!327 = !DISubroutineType(types: !328)
!328 = !{null, !316, !35, !329, !320}
!329 = !DIDerivedType(tag: DW_TAG_reference_type, baseType: !330, size: 64)
!330 = !DIDerivedType(tag: DW_TAG_const_type, baseType: !331)
!331 = !DIDerivedType(tag: DW_TAG_typedef, name: "value_type", scope: !47, file: !36, line: 414, baseType: !23)
!332 = !DISubprogram(name: "vector", scope: !47, file: !36, line: 553, type: !333, scopeLine: 553, flags: DIFlagPublic | DIFlagPrototyped, spFlags: DISPFlagOptimized)
!333 = !DISubroutineType(types: !334)
!334 = !{null, !316, !335}
!335 = !DIDerivedType(tag: DW_TAG_reference_type, baseType: !336, size: 64)
!336 = !DIDerivedType(tag: DW_TAG_const_type, baseType: !47)
!337 = !DISubprogram(name: "vector", scope: !47, file: !36, line: 572, type: !338, scopeLine: 572, flags: DIFlagPublic | DIFlagPrototyped, spFlags: DISPFlagOptimized)
!338 = !DISubroutineType(types: !339)
!339 = !{null, !316, !340}
!340 = !DIDerivedType(tag: DW_TAG_rvalue_reference_type, baseType: !47, size: 64)
!341 = !DISubprogram(name: "vector", scope: !47, file: !36, line: 575, type: !342, scopeLine: 575, flags: DIFlagPublic | DIFlagPrototyped, spFlags: DISPFlagOptimized)
!342 = !DISubroutineType(types: !343)
!343 = !{null, !316, !335, !320}
!344 = !DISubprogram(name: "vector", scope: !47, file: !36, line: 585, type: !345, scopeLine: 585, flags: DIFlagPrototyped, spFlags: DISPFlagOptimized)
!345 = !DISubroutineType(types: !346)
!346 = !{null, !316, !340, !320, !268}
!347 = !DISubprogram(name: "vector", scope: !47, file: !36, line: 589, type: !348, scopeLine: 589, flags: DIFlagPrototyped, spFlags: DISPFlagOptimized)
!348 = !DISubroutineType(types: !349)
!349 = !{null, !316, !340, !320, !287}
!350 = !DISubprogram(name: "vector", scope: !47, file: !36, line: 607, type: !351, scopeLine: 607, flags: DIFlagPublic | DIFlagPrototyped, spFlags: DISPFlagOptimized)
!351 = !DISubroutineType(types: !352)
!352 = !{null, !316, !340, !320}
!353 = !DISubprogram(name: "vector", scope: !47, file: !36, line: 625, type: !354, scopeLine: 625, flags: DIFlagPublic | DIFlagPrototyped, spFlags: DISPFlagOptimized)
!354 = !DISubroutineType(types: !355)
!355 = !{null, !316, !356, !320}
!356 = !DICompositeType(tag: DW_TAG_class_type, name: "initializer_list<unsigned long>", scope: !7, file: !357, line: 47, flags: DIFlagFwdDecl, identifier: "_ZTSSt16initializer_listImE")
!357 = !DIFile(filename: "/usr/lib64/gcc/x86_64-pc-linux-gnu/10.2.0/../../../../include/c++/10.2.0/initializer_list", directory: "")
!358 = !DISubprogram(name: "~vector", scope: !47, file: !36, line: 678, type: !314, scopeLine: 678, flags: DIFlagPublic | DIFlagPrototyped, spFlags: DISPFlagOptimized)
!359 = !DISubprogram(name: "operator=", linkageName: "_ZNSt6vectorImSaImEEaSERKS1_", scope: !47, file: !36, line: 695, type: !360, scopeLine: 695, flags: DIFlagPublic | DIFlagPrototyped, spFlags: DISPFlagOptimized)
!360 = !DISubroutineType(types: !361)
!361 = !{!362, !316, !335}
!362 = !DIDerivedType(tag: DW_TAG_reference_type, baseType: !47, size: 64)
!363 = !DISubprogram(name: "operator=", linkageName: "_ZNSt6vectorImSaImEEaSEOS1_", scope: !47, file: !36, line: 709, type: !364, scopeLine: 709, flags: DIFlagPublic | DIFlagPrototyped, spFlags: DISPFlagOptimized)
!364 = !DISubroutineType(types: !365)
!365 = !{!362, !316, !340}
!366 = !DISubprogram(name: "operator=", linkageName: "_ZNSt6vectorImSaImEEaSESt16initializer_listImE", scope: !47, file: !36, line: 730, type: !367, scopeLine: 730, flags: DIFlagPublic | DIFlagPrototyped, spFlags: DISPFlagOptimized)
!367 = !DISubroutineType(types: !368)
!368 = !{!362, !316, !356}
!369 = !DISubprogram(name: "assign", linkageName: "_ZNSt6vectorImSaImEE6assignEmRKm", scope: !47, file: !36, line: 749, type: !370, scopeLine: 749, flags: DIFlagPublic | DIFlagPrototyped, spFlags: DISPFlagOptimized)
!370 = !DISubroutineType(types: !371)
!371 = !{null, !316, !35, !329}
!372 = !DISubprogram(name: "assign", linkageName: "_ZNSt6vectorImSaImEE6assignESt16initializer_listImE", scope: !47, file: !36, line: 794, type: !373, scopeLine: 794, flags: DIFlagPublic | DIFlagPrototyped, spFlags: DISPFlagOptimized)
!373 = !DISubroutineType(types: !374)
!374 = !{null, !316, !356}
!375 = !DISubprogram(name: "begin", linkageName: "_ZNSt6vectorImSaImEE5beginEv", scope: !47, file: !36, line: 811, type: !376, scopeLine: 811, flags: DIFlagPublic | DIFlagPrototyped, spFlags: DISPFlagOptimized)
!376 = !DISubroutineType(types: !377)
!377 = !{!378, !316}
!378 = !DIDerivedType(tag: DW_TAG_typedef, name: "iterator", scope: !47, file: !36, line: 419, baseType: !379)
!379 = distinct !DICompositeType(tag: DW_TAG_class_type, name: "__normal_iterator<unsigned long *, std::vector<unsigned long, std::allocator<unsigned long> > >", scope: !61, file: !380, line: 930, size: 64, flags: DIFlagTypePassByValue | DIFlagNonTrivial, elements: !381, templateParams: !434, identifier: "_ZTSN9__gnu_cxx17__normal_iteratorIPmSt6vectorImSaImEEEE")
!380 = !DIFile(filename: "/usr/lib64/gcc/x86_64-pc-linux-gnu/10.2.0/../../../../include/c++/10.2.0/bits/stl_iterator.h", directory: "")
!381 = !{!382, !383, !387, !392, !403, !408, !412, !415, !416, !417, !423, !426, !429, !430, !431}
!382 = !DIDerivedType(tag: DW_TAG_member, name: "_M_current", scope: !379, file: !380, line: 933, baseType: !41, size: 64, flags: DIFlagProtected)
!383 = !DISubprogram(name: "__normal_iterator", scope: !379, file: !380, line: 949, type: !384, scopeLine: 949, flags: DIFlagPublic | DIFlagPrototyped, spFlags: DISPFlagOptimized)
!384 = !DISubroutineType(types: !385)
!385 = !{null, !386}
!386 = !DIDerivedType(tag: DW_TAG_pointer_type, baseType: !379, size: 64, flags: DIFlagArtificial | DIFlagObjectPointer)
!387 = !DISubprogram(name: "__normal_iterator", scope: !379, file: !380, line: 953, type: !388, scopeLine: 953, flags: DIFlagPublic | DIFlagExplicit | DIFlagPrototyped, spFlags: DISPFlagOptimized)
!388 = !DISubroutineType(types: !389)
!389 = !{null, !386, !390}
!390 = !DIDerivedType(tag: DW_TAG_reference_type, baseType: !391, size: 64)
!391 = !DIDerivedType(tag: DW_TAG_const_type, baseType: !41)
!392 = !DISubprogram(name: "operator*", linkageName: "_ZNK9__gnu_cxx17__normal_iteratorIPmSt6vectorImSaImEEEdeEv", scope: !379, file: !380, line: 968, type: !393, scopeLine: 968, flags: DIFlagPublic | DIFlagPrototyped, spFlags: DISPFlagOptimized)
!393 = !DISubroutineType(types: !394)
!394 = !{!395, !401}
!395 = !DIDerivedType(tag: DW_TAG_typedef, name: "reference", scope: !379, file: !380, line: 942, baseType: !396)
!396 = !DIDerivedType(tag: DW_TAG_typedef, name: "reference", scope: !398, file: !397, line: 216, baseType: !98)
!397 = !DIFile(filename: "/usr/lib64/gcc/x86_64-pc-linux-gnu/10.2.0/../../../../include/c++/10.2.0/bits/stl_iterator_base_types.h", directory: "")
!398 = distinct !DICompositeType(tag: DW_TAG_structure_type, name: "iterator_traits<unsigned long *>", scope: !7, file: !397, line: 210, size: 8, flags: DIFlagTypePassByValue, elements: !25, templateParams: !399, identifier: "_ZTSSt15iterator_traitsIPmE")
!399 = !{!400}
!400 = !DITemplateTypeParameter(name: "_Iterator", type: !41)
!401 = !DIDerivedType(tag: DW_TAG_pointer_type, baseType: !402, size: 64, flags: DIFlagArtificial | DIFlagObjectPointer)
!402 = !DIDerivedType(tag: DW_TAG_const_type, baseType: !379)
!403 = !DISubprogram(name: "operator->", linkageName: "_ZNK9__gnu_cxx17__normal_iteratorIPmSt6vectorImSaImEEEptEv", scope: !379, file: !380, line: 973, type: !404, scopeLine: 973, flags: DIFlagPublic | DIFlagPrototyped, spFlags: DISPFlagOptimized)
!404 = !DISubroutineType(types: !405)
!405 = !{!406, !401}
!406 = !DIDerivedType(tag: DW_TAG_typedef, name: "pointer", scope: !379, file: !380, line: 943, baseType: !407)
!407 = !DIDerivedType(tag: DW_TAG_typedef, name: "pointer", scope: !398, file: !397, line: 215, baseType: !41)
!408 = !DISubprogram(name: "operator++", linkageName: "_ZN9__gnu_cxx17__normal_iteratorIPmSt6vectorImSaImEEEppEv", scope: !379, file: !380, line: 978, type: !409, scopeLine: 978, flags: DIFlagPublic | DIFlagPrototyped, spFlags: DISPFlagOptimized)
!409 = !DISubroutineType(types: !410)
!410 = !{!411, !386}
!411 = !DIDerivedType(tag: DW_TAG_reference_type, baseType: !379, size: 64)
!412 = !DISubprogram(name: "operator++", linkageName: "_ZN9__gnu_cxx17__normal_iteratorIPmSt6vectorImSaImEEEppEi", scope: !379, file: !380, line: 986, type: !413, scopeLine: 986, flags: DIFlagPublic | DIFlagPrototyped, spFlags: DISPFlagOptimized)
!413 = !DISubroutineType(types: !414)
!414 = !{!379, !386, !8}
!415 = !DISubprogram(name: "operator--", linkageName: "_ZN9__gnu_cxx17__normal_iteratorIPmSt6vectorImSaImEEEmmEv", scope: !379, file: !380, line: 992, type: !409, scopeLine: 992, flags: DIFlagPublic | DIFlagPrototyped, spFlags: DISPFlagOptimized)
!416 = !DISubprogram(name: "operator--", linkageName: "_ZN9__gnu_cxx17__normal_iteratorIPmSt6vectorImSaImEEEmmEi", scope: !379, file: !380, line: 1000, type: !413, scopeLine: 1000, flags: DIFlagPublic | DIFlagPrototyped, spFlags: DISPFlagOptimized)
!417 = !DISubprogram(name: "operator[]", linkageName: "_ZNK9__gnu_cxx17__normal_iteratorIPmSt6vectorImSaImEEEixEl", scope: !379, file: !380, line: 1006, type: !418, scopeLine: 1006, flags: DIFlagPublic | DIFlagPrototyped, spFlags: DISPFlagOptimized)
!418 = !DISubroutineType(types: !419)
!419 = !{!395, !401, !420}
!420 = !DIDerivedType(tag: DW_TAG_typedef, name: "difference_type", scope: !379, file: !380, line: 941, baseType: !421)
!421 = !DIDerivedType(tag: DW_TAG_typedef, name: "difference_type", scope: !398, file: !397, line: 214, baseType: !422)
!422 = !DIDerivedType(tag: DW_TAG_typedef, name: "ptrdiff_t", scope: !7, file: !38, line: 261, baseType: !30)
!423 = !DISubprogram(name: "operator+=", linkageName: "_ZN9__gnu_cxx17__normal_iteratorIPmSt6vectorImSaImEEEpLEl", scope: !379, file: !380, line: 1011, type: !424, scopeLine: 1011, flags: DIFlagPublic | DIFlagPrototyped, spFlags: DISPFlagOptimized)
!424 = !DISubroutineType(types: !425)
!425 = !{!411, !386, !420}
!426 = !DISubprogram(name: "operator+", linkageName: "_ZNK9__gnu_cxx17__normal_iteratorIPmSt6vectorImSaImEEEplEl", scope: !379, file: !380, line: 1016, type: !427, scopeLine: 1016, flags: DIFlagPublic | DIFlagPrototyped, spFlags: DISPFlagOptimized)
!427 = !DISubroutineType(types: !428)
!428 = !{!379, !401, !420}
!429 = !DISubprogram(name: "operator-=", linkageName: "_ZN9__gnu_cxx17__normal_iteratorIPmSt6vectorImSaImEEEmIEl", scope: !379, file: !380, line: 1021, type: !424, scopeLine: 1021, flags: DIFlagPublic | DIFlagPrototyped, spFlags: DISPFlagOptimized)
!430 = !DISubprogram(name: "operator-", linkageName: "_ZNK9__gnu_cxx17__normal_iteratorIPmSt6vectorImSaImEEEmiEl", scope: !379, file: !380, line: 1026, type: !427, scopeLine: 1026, flags: DIFlagPublic | DIFlagPrototyped, spFlags: DISPFlagOptimized)
!431 = !DISubprogram(name: "base", linkageName: "_ZNK9__gnu_cxx17__normal_iteratorIPmSt6vectorImSaImEEE4baseEv", scope: !379, file: !380, line: 1031, type: !432, scopeLine: 1031, flags: DIFlagPublic | DIFlagPrototyped, spFlags: DISPFlagOptimized)
!432 = !DISubroutineType(types: !433)
!433 = !{!390, !401}
!434 = !{!400, !435}
!435 = !DITemplateTypeParameter(name: "_Container", type: !47)
!436 = !DISubprogram(name: "begin", linkageName: "_ZNKSt6vectorImSaImEE5beginEv", scope: !47, file: !36, line: 820, type: !437, scopeLine: 820, flags: DIFlagPublic | DIFlagPrototyped, spFlags: DISPFlagOptimized)
!437 = !DISubroutineType(types: !438)
!438 = !{!439, !441}
!439 = !DIDerivedType(tag: DW_TAG_typedef, name: "const_iterator", scope: !47, file: !36, line: 421, baseType: !440)
!440 = !DICompositeType(tag: DW_TAG_class_type, name: "__normal_iterator<const unsigned long *, std::vector<unsigned long, std::allocator<unsigned long> > >", scope: !61, file: !380, line: 930, flags: DIFlagFwdDecl, identifier: "_ZTSN9__gnu_cxx17__normal_iteratorIPKmSt6vectorImSaImEEEE")
!441 = !DIDerivedType(tag: DW_TAG_pointer_type, baseType: !336, size: 64, flags: DIFlagArtificial | DIFlagObjectPointer)
!442 = !DISubprogram(name: "end", linkageName: "_ZNSt6vectorImSaImEE3endEv", scope: !47, file: !36, line: 829, type: !376, scopeLine: 829, flags: DIFlagPublic | DIFlagPrototyped, spFlags: DISPFlagOptimized)
!443 = !DISubprogram(name: "end", linkageName: "_ZNKSt6vectorImSaImEE3endEv", scope: !47, file: !36, line: 838, type: !437, scopeLine: 838, flags: DIFlagPublic | DIFlagPrototyped, spFlags: DISPFlagOptimized)
!444 = !DISubprogram(name: "rbegin", linkageName: "_ZNSt6vectorImSaImEE6rbeginEv", scope: !47, file: !36, line: 847, type: !445, scopeLine: 847, flags: DIFlagPublic | DIFlagPrototyped, spFlags: DISPFlagOptimized)
!445 = !DISubroutineType(types: !446)
!446 = !{!447, !316}
!447 = !DIDerivedType(tag: DW_TAG_typedef, name: "reverse_iterator", scope: !47, file: !36, line: 423, baseType: !448)
!448 = !DICompositeType(tag: DW_TAG_class_type, name: "reverse_iterator<__gnu_cxx::__normal_iterator<unsigned long *, std::vector<unsigned long, std::allocator<unsigned long> > > >", scope: !7, file: !380, line: 125, flags: DIFlagFwdDecl, identifier: "_ZTSSt16reverse_iteratorIN9__gnu_cxx17__normal_iteratorIPmSt6vectorImSaImEEEEE")
!449 = !DISubprogram(name: "rbegin", linkageName: "_ZNKSt6vectorImSaImEE6rbeginEv", scope: !47, file: !36, line: 856, type: !450, scopeLine: 856, flags: DIFlagPublic | DIFlagPrototyped, spFlags: DISPFlagOptimized)
!450 = !DISubroutineType(types: !451)
!451 = !{!452, !441}
!452 = !DIDerivedType(tag: DW_TAG_typedef, name: "const_reverse_iterator", scope: !47, file: !36, line: 422, baseType: !453)
!453 = !DICompositeType(tag: DW_TAG_class_type, name: "reverse_iterator<__gnu_cxx::__normal_iterator<const unsigned long *, std::vector<unsigned long, std::allocator<unsigned long> > > >", scope: !7, file: !380, line: 125, flags: DIFlagFwdDecl, identifier: "_ZTSSt16reverse_iteratorIN9__gnu_cxx17__normal_iteratorIPKmSt6vectorImSaImEEEEE")
!454 = !DISubprogram(name: "rend", linkageName: "_ZNSt6vectorImSaImEE4rendEv", scope: !47, file: !36, line: 865, type: !445, scopeLine: 865, flags: DIFlagPublic | DIFlagPrototyped, spFlags: DISPFlagOptimized)
!455 = !DISubprogram(name: "rend", linkageName: "_ZNKSt6vectorImSaImEE4rendEv", scope: !47, file: !36, line: 874, type: !450, scopeLine: 874, flags: DIFlagPublic | DIFlagPrototyped, spFlags: DISPFlagOptimized)
!456 = !DISubprogram(name: "cbegin", linkageName: "_ZNKSt6vectorImSaImEE6cbeginEv", scope: !47, file: !36, line: 884, type: !437, scopeLine: 884, flags: DIFlagPublic | DIFlagPrototyped, spFlags: DISPFlagOptimized)
!457 = !DISubprogram(name: "cend", linkageName: "_ZNKSt6vectorImSaImEE4cendEv", scope: !47, file: !36, line: 893, type: !437, scopeLine: 893, flags: DIFlagPublic | DIFlagPrototyped, spFlags: DISPFlagOptimized)
!458 = !DISubprogram(name: "crbegin", linkageName: "_ZNKSt6vectorImSaImEE7crbeginEv", scope: !47, file: !36, line: 902, type: !450, scopeLine: 902, flags: DIFlagPublic | DIFlagPrototyped, spFlags: DISPFlagOptimized)
!459 = !DISubprogram(name: "crend", linkageName: "_ZNKSt6vectorImSaImEE5crendEv", scope: !47, file: !36, line: 911, type: !450, scopeLine: 911, flags: DIFlagPublic | DIFlagPrototyped, spFlags: DISPFlagOptimized)
!460 = !DISubprogram(name: "size", linkageName: "_ZNKSt6vectorImSaImEE4sizeEv", scope: !47, file: !36, line: 918, type: !461, scopeLine: 918, flags: DIFlagPublic | DIFlagPrototyped, spFlags: DISPFlagOptimized)
!461 = !DISubroutineType(types: !462)
!462 = !{!35, !441}
!463 = !DISubprogram(name: "max_size", linkageName: "_ZNKSt6vectorImSaImEE8max_sizeEv", scope: !47, file: !36, line: 923, type: !461, scopeLine: 923, flags: DIFlagPublic | DIFlagPrototyped, spFlags: DISPFlagOptimized)
!464 = !DISubprogram(name: "resize", linkageName: "_ZNSt6vectorImSaImEE6resizeEm", scope: !47, file: !36, line: 937, type: !465, scopeLine: 937, flags: DIFlagPublic | DIFlagPrototyped, spFlags: DISPFlagOptimized)
!465 = !DISubroutineType(types: !466)
!466 = !{null, !316, !35}
!467 = !DISubprogram(name: "resize", linkageName: "_ZNSt6vectorImSaImEE6resizeEmRKm", scope: !47, file: !36, line: 957, type: !370, scopeLine: 957, flags: DIFlagPublic | DIFlagPrototyped, spFlags: DISPFlagOptimized)
!468 = !DISubprogram(name: "shrink_to_fit", linkageName: "_ZNSt6vectorImSaImEE13shrink_to_fitEv", scope: !47, file: !36, line: 989, type: !314, scopeLine: 989, flags: DIFlagPublic | DIFlagPrototyped, spFlags: DISPFlagOptimized)
!469 = !DISubprogram(name: "capacity", linkageName: "_ZNKSt6vectorImSaImEE8capacityEv", scope: !47, file: !36, line: 998, type: !461, scopeLine: 998, flags: DIFlagPublic | DIFlagPrototyped, spFlags: DISPFlagOptimized)
!470 = !DISubprogram(name: "empty", linkageName: "_ZNKSt6vectorImSaImEE5emptyEv", scope: !47, file: !36, line: 1007, type: !471, scopeLine: 1007, flags: DIFlagPublic | DIFlagPrototyped, spFlags: DISPFlagOptimized)
!471 = !DISubroutineType(types: !472)
!472 = !{!162, !441}
!473 = !DISubprogram(name: "reserve", linkageName: "_ZNSt6vectorImSaImEE7reserveEm", scope: !47, file: !36, line: 1028, type: !465, scopeLine: 1028, flags: DIFlagPublic | DIFlagPrototyped, spFlags: DISPFlagOptimized)
!474 = !DISubprogram(name: "operator[]", linkageName: "_ZNSt6vectorImSaImEEixEm", scope: !47, file: !36, line: 1043, type: !475, scopeLine: 1043, flags: DIFlagPublic | DIFlagPrototyped, spFlags: DISPFlagOptimized)
!475 = !DISubroutineType(types: !476)
!476 = !{!477, !316, !35}
!477 = !DIDerivedType(tag: DW_TAG_typedef, name: "reference", scope: !47, file: !36, line: 417, baseType: !478)
!478 = !DIDerivedType(tag: DW_TAG_typedef, name: "reference", scope: !60, file: !58, line: 62, baseType: !479)
!479 = !DIDerivedType(tag: DW_TAG_reference_type, baseType: !480, size: 64)
!480 = !DIDerivedType(tag: DW_TAG_typedef, name: "value_type", scope: !60, file: !58, line: 56, baseType: !481)
!481 = !DIDerivedType(tag: DW_TAG_typedef, name: "value_type", scope: !64, file: !65, line: 413, baseType: !23)
!482 = !DISubprogram(name: "operator[]", linkageName: "_ZNKSt6vectorImSaImEEixEm", scope: !47, file: !36, line: 1061, type: !483, scopeLine: 1061, flags: DIFlagPublic | DIFlagPrototyped, spFlags: DISPFlagOptimized)
!483 = !DISubroutineType(types: !484)
!484 = !{!485, !441, !35}
!485 = !DIDerivedType(tag: DW_TAG_typedef, name: "const_reference", scope: !47, file: !36, line: 418, baseType: !486)
!486 = !DIDerivedType(tag: DW_TAG_typedef, name: "const_reference", scope: !60, file: !58, line: 63, baseType: !487)
!487 = !DIDerivedType(tag: DW_TAG_reference_type, baseType: !488, size: 64)
!488 = !DIDerivedType(tag: DW_TAG_const_type, baseType: !480)
!489 = !DISubprogram(name: "_M_range_check", linkageName: "_ZNKSt6vectorImSaImEE14_M_range_checkEm", scope: !47, file: !36, line: 1070, type: !490, scopeLine: 1070, flags: DIFlagProtected | DIFlagPrototyped, spFlags: DISPFlagOptimized)
!490 = !DISubroutineType(types: !491)
!491 = !{null, !441, !35}
!492 = !DISubprogram(name: "at", linkageName: "_ZNSt6vectorImSaImEE2atEm", scope: !47, file: !36, line: 1092, type: !475, scopeLine: 1092, flags: DIFlagPublic | DIFlagPrototyped, spFlags: DISPFlagOptimized)
!493 = !DISubprogram(name: "at", linkageName: "_ZNKSt6vectorImSaImEE2atEm", scope: !47, file: !36, line: 1110, type: !483, scopeLine: 1110, flags: DIFlagPublic | DIFlagPrototyped, spFlags: DISPFlagOptimized)
!494 = !DISubprogram(name: "front", linkageName: "_ZNSt6vectorImSaImEE5frontEv", scope: !47, file: !36, line: 1121, type: !495, scopeLine: 1121, flags: DIFlagPublic | DIFlagPrototyped, spFlags: DISPFlagOptimized)
!495 = !DISubroutineType(types: !496)
!496 = !{!477, !316}
!497 = !DISubprogram(name: "front", linkageName: "_ZNKSt6vectorImSaImEE5frontEv", scope: !47, file: !36, line: 1132, type: !498, scopeLine: 1132, flags: DIFlagPublic | DIFlagPrototyped, spFlags: DISPFlagOptimized)
!498 = !DISubroutineType(types: !499)
!499 = !{!485, !441}
!500 = !DISubprogram(name: "back", linkageName: "_ZNSt6vectorImSaImEE4backEv", scope: !47, file: !36, line: 1143, type: !495, scopeLine: 1143, flags: DIFlagPublic | DIFlagPrototyped, spFlags: DISPFlagOptimized)
!501 = !DISubprogram(name: "back", linkageName: "_ZNKSt6vectorImSaImEE4backEv", scope: !47, file: !36, line: 1154, type: !498, scopeLine: 1154, flags: DIFlagPublic | DIFlagPrototyped, spFlags: DISPFlagOptimized)
!502 = !DISubprogram(name: "data", linkageName: "_ZNSt6vectorImSaImEE4dataEv", scope: !47, file: !36, line: 1168, type: !503, scopeLine: 1168, flags: DIFlagPublic | DIFlagPrototyped, spFlags: DISPFlagOptimized)
!503 = !DISubroutineType(types: !504)
!504 = !{!41, !316}
!505 = !DISubprogram(name: "data", linkageName: "_ZNKSt6vectorImSaImEE4dataEv", scope: !47, file: !36, line: 1172, type: !506, scopeLine: 1172, flags: DIFlagPublic | DIFlagPrototyped, spFlags: DISPFlagOptimized)
!506 = !DISubroutineType(types: !507)
!507 = !{!103, !441}
!508 = !DISubprogram(name: "push_back", linkageName: "_ZNSt6vectorImSaImEE9push_backERKm", scope: !47, file: !36, line: 1187, type: !509, scopeLine: 1187, flags: DIFlagPublic | DIFlagPrototyped, spFlags: DISPFlagOptimized)
!509 = !DISubroutineType(types: !510)
!510 = !{null, !316, !329}
!511 = !DISubprogram(name: "push_back", linkageName: "_ZNSt6vectorImSaImEE9push_backEOm", scope: !47, file: !36, line: 1203, type: !512, scopeLine: 1203, flags: DIFlagPublic | DIFlagPrototyped, spFlags: DISPFlagOptimized)
!512 = !DISubroutineType(types: !513)
!513 = !{null, !316, !514}
!514 = !DIDerivedType(tag: DW_TAG_rvalue_reference_type, baseType: !331, size: 64)
!515 = !DISubprogram(name: "pop_back", linkageName: "_ZNSt6vectorImSaImEE8pop_backEv", scope: !47, file: !36, line: 1225, type: !314, scopeLine: 1225, flags: DIFlagPublic | DIFlagPrototyped, spFlags: DISPFlagOptimized)
!516 = !DISubprogram(name: "insert", linkageName: "_ZNSt6vectorImSaImEE6insertEN9__gnu_cxx17__normal_iteratorIPKmS1_EERS4_", scope: !47, file: !36, line: 1263, type: !517, scopeLine: 1263, flags: DIFlagPublic | DIFlagPrototyped, spFlags: DISPFlagOptimized)
!517 = !DISubroutineType(types: !518)
!518 = !{!378, !316, !439, !329}
!519 = !DISubprogram(name: "insert", linkageName: "_ZNSt6vectorImSaImEE6insertEN9__gnu_cxx17__normal_iteratorIPKmS1_EEOm", scope: !47, file: !36, line: 1293, type: !520, scopeLine: 1293, flags: DIFlagPublic | DIFlagPrototyped, spFlags: DISPFlagOptimized)
!520 = !DISubroutineType(types: !521)
!521 = !{!378, !316, !439, !514}
!522 = !DISubprogram(name: "insert", linkageName: "_ZNSt6vectorImSaImEE6insertEN9__gnu_cxx17__normal_iteratorIPKmS1_EESt16initializer_listImE", scope: !47, file: !36, line: 1310, type: !523, scopeLine: 1310, flags: DIFlagPublic | DIFlagPrototyped, spFlags: DISPFlagOptimized)
!523 = !DISubroutineType(types: !524)
!524 = !{!378, !316, !439, !356}
!525 = !DISubprogram(name: "insert", linkageName: "_ZNSt6vectorImSaImEE6insertEN9__gnu_cxx17__normal_iteratorIPKmS1_EEmRS4_", scope: !47, file: !36, line: 1335, type: !526, scopeLine: 1335, flags: DIFlagPublic | DIFlagPrototyped, spFlags: DISPFlagOptimized)
!526 = !DISubroutineType(types: !527)
!527 = !{!378, !316, !439, !35, !329}
!528 = !DISubprogram(name: "erase", linkageName: "_ZNSt6vectorImSaImEE5eraseEN9__gnu_cxx17__normal_iteratorIPKmS1_EE", scope: !47, file: !36, line: 1430, type: !529, scopeLine: 1430, flags: DIFlagPublic | DIFlagPrototyped, spFlags: DISPFlagOptimized)
!529 = !DISubroutineType(types: !530)
!530 = !{!378, !316, !439}
!531 = !DISubprogram(name: "erase", linkageName: "_ZNSt6vectorImSaImEE5eraseEN9__gnu_cxx17__normal_iteratorIPKmS1_EES6_", scope: !47, file: !36, line: 1457, type: !532, scopeLine: 1457, flags: DIFlagPublic | DIFlagPrototyped, spFlags: DISPFlagOptimized)
!532 = !DISubroutineType(types: !533)
!533 = !{!378, !316, !439, !439}
!534 = !DISubprogram(name: "swap", linkageName: "_ZNSt6vectorImSaImEE4swapERS1_", scope: !47, file: !36, line: 1480, type: !535, scopeLine: 1480, flags: DIFlagPublic | DIFlagPrototyped, spFlags: DISPFlagOptimized)
!535 = !DISubroutineType(types: !536)
!536 = !{null, !316, !362}
!537 = !DISubprogram(name: "clear", linkageName: "_ZNSt6vectorImSaImEE5clearEv", scope: !47, file: !36, line: 1498, type: !314, scopeLine: 1498, flags: DIFlagPublic | DIFlagPrototyped, spFlags: DISPFlagOptimized)
!538 = !DISubprogram(name: "_M_fill_initialize", linkageName: "_ZNSt6vectorImSaImEE18_M_fill_initializeEmRKm", scope: !47, file: !36, line: 1593, type: !370, scopeLine: 1593, flags: DIFlagProtected | DIFlagPrototyped, spFlags: DISPFlagOptimized)
!539 = !DISubprogram(name: "_M_default_initialize", linkageName: "_ZNSt6vectorImSaImEE21_M_default_initializeEm", scope: !47, file: !36, line: 1603, type: !465, scopeLine: 1603, flags: DIFlagProtected | DIFlagPrototyped, spFlags: DISPFlagOptimized)
!540 = !DISubprogram(name: "_M_fill_assign", linkageName: "_ZNSt6vectorImSaImEE14_M_fill_assignEmRKm", scope: !47, file: !36, line: 1645, type: !370, scopeLine: 1645, flags: DIFlagProtected | DIFlagPrototyped, spFlags: DISPFlagOptimized)
!541 = !DISubprogram(name: "_M_fill_insert", linkageName: "_ZNSt6vectorImSaImEE14_M_fill_insertEN9__gnu_cxx17__normal_iteratorIPmS1_EEmRKm", scope: !47, file: !36, line: 1684, type: !542, scopeLine: 1684, flags: DIFlagProtected | DIFlagPrototyped, spFlags: DISPFlagOptimized)
!542 = !DISubroutineType(types: !543)
!543 = !{null, !316, !378, !35, !329}
!544 = !DISubprogram(name: "_M_default_append", linkageName: "_ZNSt6vectorImSaImEE17_M_default_appendEm", scope: !47, file: !36, line: 1689, type: !465, scopeLine: 1689, flags: DIFlagProtected | DIFlagPrototyped, spFlags: DISPFlagOptimized)
!545 = !DISubprogram(name: "_M_shrink_to_fit", linkageName: "_ZNSt6vectorImSaImEE16_M_shrink_to_fitEv", scope: !47, file: !36, line: 1692, type: !546, scopeLine: 1692, flags: DIFlagProtected | DIFlagPrototyped, spFlags: DISPFlagOptimized)
!546 = !DISubroutineType(types: !547)
!547 = !{!162, !316}
!548 = !DISubprogram(name: "_M_insert_rval", linkageName: "_ZNSt6vectorImSaImEE14_M_insert_rvalEN9__gnu_cxx17__normal_iteratorIPKmS1_EEOm", scope: !47, file: !36, line: 1741, type: !520, scopeLine: 1741, flags: DIFlagProtected | DIFlagPrototyped, spFlags: DISPFlagOptimized)
!549 = !DISubprogram(name: "_M_emplace_aux", linkageName: "_ZNSt6vectorImSaImEE14_M_emplace_auxEN9__gnu_cxx17__normal_iteratorIPKmS1_EEOm", scope: !47, file: !36, line: 1750, type: !520, scopeLine: 1750, flags: DIFlagProtected | DIFlagPrototyped, spFlags: DISPFlagOptimized)
!550 = !DISubprogram(name: "_M_check_len", linkageName: "_ZNKSt6vectorImSaImEE12_M_check_lenEmPKc", scope: !47, file: !36, line: 1756, type: !551, scopeLine: 1756, flags: DIFlagProtected | DIFlagPrototyped, spFlags: DISPFlagOptimized)
!551 = !DISubroutineType(types: !552)
!552 = !{!553, !441, !35, !554}
!553 = !DIDerivedType(tag: DW_TAG_typedef, name: "size_type", scope: !47, file: !36, line: 424, baseType: !37)
!554 = !DIDerivedType(tag: DW_TAG_pointer_type, baseType: !555, size: 64)
!555 = !DIDerivedType(tag: DW_TAG_const_type, baseType: !556)
!556 = !DIBasicType(name: "char", size: 8, encoding: DW_ATE_signed_char)
!557 = !DISubprogram(name: "_S_check_init_len", linkageName: "_ZNSt6vectorImSaImEE17_S_check_init_lenEmRKS0_", scope: !47, file: !36, line: 1767, type: !558, scopeLine: 1767, flags: DIFlagProtected | DIFlagPrototyped | DIFlagStaticMember, spFlags: DISPFlagOptimized)
!558 = !DISubroutineType(types: !559)
!559 = !{!553, !35, !320}
!560 = !DISubprogram(name: "_S_max_size", linkageName: "_ZNSt6vectorImSaImEE11_S_max_sizeERKS0_", scope: !47, file: !36, line: 1776, type: !561, scopeLine: 1776, flags: DIFlagProtected | DIFlagPrototyped | DIFlagStaticMember, spFlags: DISPFlagOptimized)
!561 = !DISubroutineType(types: !562)
!562 = !{!553, !563}
!563 = !DIDerivedType(tag: DW_TAG_reference_type, baseType: !564, size: 64)
!564 = !DIDerivedType(tag: DW_TAG_const_type, baseType: !306)
!565 = !DISubprogram(name: "_M_erase_at_end", linkageName: "_ZNSt6vectorImSaImEE15_M_erase_at_endEPm", scope: !47, file: !36, line: 1792, type: !566, scopeLine: 1792, flags: DIFlagProtected | DIFlagPrototyped, spFlags: DISPFlagOptimized)
!566 = !DISubroutineType(types: !567)
!567 = !{null, !316, !304}
!568 = !DISubprogram(name: "_M_erase", linkageName: "_ZNSt6vectorImSaImEE8_M_eraseEN9__gnu_cxx17__normal_iteratorIPmS1_EE", scope: !47, file: !36, line: 1804, type: !569, scopeLine: 1804, flags: DIFlagProtected | DIFlagPrototyped, spFlags: DISPFlagOptimized)
!569 = !DISubroutineType(types: !570)
!570 = !{!378, !316, !378}
!571 = !DISubprogram(name: "_M_erase", linkageName: "_ZNSt6vectorImSaImEE8_M_eraseEN9__gnu_cxx17__normal_iteratorIPmS1_EES5_", scope: !47, file: !36, line: 1807, type: !572, scopeLine: 1807, flags: DIFlagProtected | DIFlagPrototyped, spFlags: DISPFlagOptimized)
!572 = !DISubroutineType(types: !573)
!573 = !{!378, !316, !378, !378}
!574 = !DISubprogram(name: "_M_move_assign", linkageName: "_ZNSt6vectorImSaImEE14_M_move_assignEOS1_St17integral_constantIbLb1EE", scope: !47, file: !36, line: 1815, type: !575, scopeLine: 1815, flags: DIFlagPrototyped, spFlags: DISPFlagOptimized)
!575 = !DISubroutineType(types: !576)
!576 = !{null, !316, !340, !268}
!577 = !DISubprogram(name: "_M_move_assign", linkageName: "_ZNSt6vectorImSaImEE14_M_move_assignEOS1_St17integral_constantIbLb0EE", scope: !47, file: !36, line: 1826, type: !578, scopeLine: 1826, flags: DIFlagPrototyped, spFlags: DISPFlagOptimized)
!578 = !DISubroutineType(types: !579)
!579 = !{null, !316, !340, !287}
!580 = !{!581, !582, !583, !584}
!581 = !DILocalVariable(name: "__first", arg: 1, scope: !46, file: !36, line: 465, type: !304)
!582 = !DILocalVariable(name: "__last", arg: 2, scope: !46, file: !36, line: 465, type: !304)
!583 = !DILocalVariable(name: "__result", arg: 3, scope: !46, file: !36, line: 465, type: !304)
!584 = !DILocalVariable(name: "__alloc", arg: 4, scope: !46, file: !36, line: 466, type: !305)
!585 = !DIDerivedType(tag: DW_TAG_typedef, name: "__bool_constant<_S_use_relocate()>", scope: !7, file: !269, line: 81, baseType: !270)
!586 = !DIDerivedType(tag: DW_TAG_typedef, name: "streamsize", scope: !7, file: !587, line: 98, baseType: !422)
!587 = !DIFile(filename: "/usr/lib64/gcc/x86_64-pc-linux-gnu/10.2.0/../../../../include/c++/10.2.0/bits/postypes.h", directory: "")
!588 = !DIBasicType(name: "unsigned char", size: 8, encoding: DW_ATE_unsigned_char)
!589 = !DICompositeType(tag: DW_TAG_class_type, name: "ios_base", scope: !7, file: !6, line: 228, flags: DIFlagFwdDecl, identifier: "_ZTSSt8ios_base")
!590 = !{!591, !0}
!591 = !DIGlobalVariableExpression(var: !592, expr: !DIExpression())
!592 = distinct !DIGlobalVariable(name: "__ioinit", linkageName: "_ZStL8__ioinit", scope: !7, file: !593, line: 74, type: !594, isLocal: true, isDefinition: true)
!593 = !DIFile(filename: "/usr/lib64/gcc/x86_64-pc-linux-gnu/10.2.0/../../../../include/c++/10.2.0/iostream", directory: "")
!594 = distinct !DICompositeType(tag: DW_TAG_class_type, name: "Init", scope: !589, file: !6, line: 603, size: 8, flags: DIFlagTypePassByReference | DIFlagNonTrivial, elements: !595, identifier: "_ZTSNSt8ios_base4InitE")
!595 = !{!596, !599, !600, !604, !605, !610}
!596 = !DIDerivedType(tag: DW_TAG_member, name: "_S_refcount", scope: !594, file: !6, line: 616, baseType: !597, flags: DIFlagStaticMember)
!597 = !DIDerivedType(tag: DW_TAG_typedef, name: "_Atomic_word", file: !598, line: 32, baseType: !8)
!598 = !DIFile(filename: "/usr/lib64/gcc/x86_64-pc-linux-gnu/10.2.0/../../../../include/c++/10.2.0/x86_64-pc-linux-gnu/bits/atomic_word.h", directory: "")
!599 = !DIDerivedType(tag: DW_TAG_member, name: "_S_synced_with_stdio", scope: !594, file: !6, line: 617, baseType: !162, flags: DIFlagStaticMember)
!600 = !DISubprogram(name: "Init", scope: !594, file: !6, line: 607, type: !601, scopeLine: 607, flags: DIFlagPublic | DIFlagPrototyped, spFlags: DISPFlagOptimized)
!601 = !DISubroutineType(types: !602)
!602 = !{null, !603}
!603 = !DIDerivedType(tag: DW_TAG_pointer_type, baseType: !594, size: 64, flags: DIFlagArtificial | DIFlagObjectPointer)
!604 = !DISubprogram(name: "~Init", scope: !594, file: !6, line: 608, type: !601, scopeLine: 608, flags: DIFlagPublic | DIFlagPrototyped, spFlags: DISPFlagOptimized)
!605 = !DISubprogram(name: "Init", scope: !594, file: !6, line: 611, type: !606, scopeLine: 611, flags: DIFlagPublic | DIFlagPrototyped, spFlags: DISPFlagOptimized)
!606 = !DISubroutineType(types: !607)
!607 = !{null, !603, !608}
!608 = !DIDerivedType(tag: DW_TAG_reference_type, baseType: !609, size: 64)
!609 = !DIDerivedType(tag: DW_TAG_const_type, baseType: !594)
!610 = !DISubprogram(name: "operator=", linkageName: "_ZNSt8ios_base4InitaSERKS0_", scope: !594, file: !6, line: 612, type: !611, scopeLine: 612, flags: DIFlagPublic | DIFlagPrototyped, spFlags: DISPFlagOptimized)
!611 = !DISubroutineType(types: !612)
!612 = !{!613, !603, !608}
!613 = !DIDerivedType(tag: DW_TAG_reference_type, baseType: !594, size: 64)
!614 = !{!615, !633, !636, !641, !702, !710, !714, !721, !725, !729, !731, !733, !737, !744, !748, !754, !760, !762, !766, !770, !774, !778, !789, !791, !795, !799, !803, !805, !810, !814, !818, !820, !822, !826, !835, !839, !843, !847, !849, !855, !857, !864, !869, !873, !877, !881, !885, !889, !891, !893, !897, !901, !905, !907, !911, !915, !917, !919, !923, !928, !933, !938, !939, !940, !941, !942, !943, !944, !945, !946, !947, !948, !1002, !1006, !1010, !1014, !1018, !1021, !1022, !1025, !1027, !1029, !1031, !1034, !1037, !1040, !1043, !1046, !1048, !1052, !1055, !1058, !1061, !1063, !1065, !1067, !1069, !1072, !1075, !1078, !1081, !1084, !1086, !1090, !1094, !1099, !1105, !1107, !1109, !1111, !1113, !1115, !1117, !1119, !1121, !1123, !1125, !1127, !1129, !1131, !1135, !1139, !1145, !1149, !1154, !1156, !1161, !1165, !1169, !1178, !1182, !1186, !1190, !1192, !1196, !1200, !1204, !1208, !1212, !1216, !1220, !1224, !1226, !1230, !1234, !1238, !1244, !1248, !1252, !1254, !1258, !1262, !1268, !1270, !1274, !1278, !1282, !1286, !1290, !1294, !1298, !1299, !1300, !1301, !1303, !1304, !1305, !1306, !1307, !1308, !1309, !1313, !1319, !1324, !1328, !1330, !1332, !1334, !1336, !1343, !1347, !1351, !1355, !1359, !1363, !1368, !1372, !1374, !1378, !1384, !1388, !1393, !1395, !1398, !1402, !1406, !1408, !1410, !1412, !1414, !1418, !1420, !1422, !1426, !1430, !1434, !1438, !1442, !1446, !1448, !1452, !1456, !1460, !1464, !1466, !1468, !1472, !1476, !1477, !1478, !1479, !1480, !1481, !1487, !1490, !1491, !1493, !1495, !1497, !1499, !1503, !1505, !1507, !1509, !1511, !1513, !1515, !1517, !1519, !1523, !1527, !1529, !1533, !1537}
!615 = !DIImportedEntity(tag: DW_TAG_imported_declaration, scope: !7, entity: !616, file: !632, line: 64)
!616 = !DIDerivedType(tag: DW_TAG_typedef, name: "mbstate_t", file: !617, line: 6, baseType: !618)
!617 = !DIFile(filename: "/usr/include/bits/types/mbstate_t.h", directory: "")
!618 = !DIDerivedType(tag: DW_TAG_typedef, name: "__mbstate_t", file: !619, line: 21, baseType: !620)
!619 = !DIFile(filename: "/usr/include/bits/types/__mbstate_t.h", directory: "")
!620 = distinct !DICompositeType(tag: DW_TAG_structure_type, file: !619, line: 13, size: 64, flags: DIFlagTypePassByValue, elements: !621, identifier: "_ZTS11__mbstate_t")
!621 = !{!622, !623}
!622 = !DIDerivedType(tag: DW_TAG_member, name: "__count", scope: !620, file: !619, line: 15, baseType: !8, size: 32)
!623 = !DIDerivedType(tag: DW_TAG_member, name: "__value", scope: !620, file: !619, line: 20, baseType: !624, size: 32, offset: 32)
!624 = distinct !DICompositeType(tag: DW_TAG_union_type, scope: !620, file: !619, line: 16, size: 32, flags: DIFlagTypePassByValue, elements: !625, identifier: "_ZTSN11__mbstate_tUt_E")
!625 = !{!626, !628}
!626 = !DIDerivedType(tag: DW_TAG_member, name: "__wch", scope: !624, file: !619, line: 18, baseType: !627, size: 32)
!627 = !DIBasicType(name: "unsigned int", size: 32, encoding: DW_ATE_unsigned)
!628 = !DIDerivedType(tag: DW_TAG_member, name: "__wchb", scope: !624, file: !619, line: 19, baseType: !629, size: 32)
!629 = !DICompositeType(tag: DW_TAG_array_type, baseType: !556, size: 32, elements: !630)
!630 = !{!631}
!631 = !DISubrange(count: 4)
!632 = !DIFile(filename: "/usr/lib64/gcc/x86_64-pc-linux-gnu/10.2.0/../../../../include/c++/10.2.0/cwchar", directory: "")
!633 = !DIImportedEntity(tag: DW_TAG_imported_declaration, scope: !7, entity: !634, file: !632, line: 141)
!634 = !DIDerivedType(tag: DW_TAG_typedef, name: "wint_t", file: !635, line: 20, baseType: !627)
!635 = !DIFile(filename: "/usr/include/bits/types/wint_t.h", directory: "")
!636 = !DIImportedEntity(tag: DW_TAG_imported_declaration, scope: !7, entity: !637, file: !632, line: 143)
!637 = !DISubprogram(name: "btowc", scope: !638, file: !638, line: 318, type: !639, flags: DIFlagPrototyped, spFlags: DISPFlagOptimized)
!638 = !DIFile(filename: "/usr/include/wchar.h", directory: "")
!639 = !DISubroutineType(types: !640)
!640 = !{!634, !8}
!641 = !DIImportedEntity(tag: DW_TAG_imported_declaration, scope: !7, entity: !642, file: !632, line: 144)
!642 = !DISubprogram(name: "fgetwc", scope: !638, file: !638, line: 729, type: !643, flags: DIFlagPrototyped, spFlags: DISPFlagOptimized)
!643 = !DISubroutineType(types: !644)
!644 = !{!634, !645}
!645 = !DIDerivedType(tag: DW_TAG_pointer_type, baseType: !646, size: 64)
!646 = !DIDerivedType(tag: DW_TAG_typedef, name: "__FILE", file: !647, line: 5, baseType: !648)
!647 = !DIFile(filename: "/usr/include/bits/types/__FILE.h", directory: "")
!648 = distinct !DICompositeType(tag: DW_TAG_structure_type, name: "_IO_FILE", file: !649, line: 49, size: 1728, flags: DIFlagTypePassByValue, elements: !650, identifier: "_ZTS8_IO_FILE")
!649 = !DIFile(filename: "/usr/include/bits/types/struct_FILE.h", directory: "")
!650 = !{!651, !652, !654, !655, !656, !657, !658, !659, !660, !661, !662, !663, !664, !667, !669, !670, !671, !673, !675, !677, !681, !684, !686, !689, !692, !693, !694, !697, !698}
!651 = !DIDerivedType(tag: DW_TAG_member, name: "_flags", scope: !648, file: !649, line: 51, baseType: !8, size: 32)
!652 = !DIDerivedType(tag: DW_TAG_member, name: "_IO_read_ptr", scope: !648, file: !649, line: 54, baseType: !653, size: 64, offset: 64)
!653 = !DIDerivedType(tag: DW_TAG_pointer_type, baseType: !556, size: 64)
!654 = !DIDerivedType(tag: DW_TAG_member, name: "_IO_read_end", scope: !648, file: !649, line: 55, baseType: !653, size: 64, offset: 128)
!655 = !DIDerivedType(tag: DW_TAG_member, name: "_IO_read_base", scope: !648, file: !649, line: 56, baseType: !653, size: 64, offset: 192)
!656 = !DIDerivedType(tag: DW_TAG_member, name: "_IO_write_base", scope: !648, file: !649, line: 57, baseType: !653, size: 64, offset: 256)
!657 = !DIDerivedType(tag: DW_TAG_member, name: "_IO_write_ptr", scope: !648, file: !649, line: 58, baseType: !653, size: 64, offset: 320)
!658 = !DIDerivedType(tag: DW_TAG_member, name: "_IO_write_end", scope: !648, file: !649, line: 59, baseType: !653, size: 64, offset: 384)
!659 = !DIDerivedType(tag: DW_TAG_member, name: "_IO_buf_base", scope: !648, file: !649, line: 60, baseType: !653, size: 64, offset: 448)
!660 = !DIDerivedType(tag: DW_TAG_member, name: "_IO_buf_end", scope: !648, file: !649, line: 61, baseType: !653, size: 64, offset: 512)
!661 = !DIDerivedType(tag: DW_TAG_member, name: "_IO_save_base", scope: !648, file: !649, line: 64, baseType: !653, size: 64, offset: 576)
!662 = !DIDerivedType(tag: DW_TAG_member, name: "_IO_backup_base", scope: !648, file: !649, line: 65, baseType: !653, size: 64, offset: 640)
!663 = !DIDerivedType(tag: DW_TAG_member, name: "_IO_save_end", scope: !648, file: !649, line: 66, baseType: !653, size: 64, offset: 704)
!664 = !DIDerivedType(tag: DW_TAG_member, name: "_markers", scope: !648, file: !649, line: 68, baseType: !665, size: 64, offset: 768)
!665 = !DIDerivedType(tag: DW_TAG_pointer_type, baseType: !666, size: 64)
!666 = !DICompositeType(tag: DW_TAG_structure_type, name: "_IO_marker", file: !649, line: 36, flags: DIFlagFwdDecl, identifier: "_ZTS10_IO_marker")
!667 = !DIDerivedType(tag: DW_TAG_member, name: "_chain", scope: !648, file: !649, line: 70, baseType: !668, size: 64, offset: 832)
!668 = !DIDerivedType(tag: DW_TAG_pointer_type, baseType: !648, size: 64)
!669 = !DIDerivedType(tag: DW_TAG_member, name: "_fileno", scope: !648, file: !649, line: 72, baseType: !8, size: 32, offset: 896)
!670 = !DIDerivedType(tag: DW_TAG_member, name: "_flags2", scope: !648, file: !649, line: 73, baseType: !8, size: 32, offset: 928)
!671 = !DIDerivedType(tag: DW_TAG_member, name: "_old_offset", scope: !648, file: !649, line: 74, baseType: !672, size: 64, offset: 960)
!672 = !DIDerivedType(tag: DW_TAG_typedef, name: "__off_t", file: !29, line: 152, baseType: !30)
!673 = !DIDerivedType(tag: DW_TAG_member, name: "_cur_column", scope: !648, file: !649, line: 77, baseType: !674, size: 16, offset: 1024)
!674 = !DIBasicType(name: "unsigned short", size: 16, encoding: DW_ATE_unsigned)
!675 = !DIDerivedType(tag: DW_TAG_member, name: "_vtable_offset", scope: !648, file: !649, line: 78, baseType: !676, size: 8, offset: 1040)
!676 = !DIBasicType(name: "signed char", size: 8, encoding: DW_ATE_signed_char)
!677 = !DIDerivedType(tag: DW_TAG_member, name: "_shortbuf", scope: !648, file: !649, line: 79, baseType: !678, size: 8, offset: 1048)
!678 = !DICompositeType(tag: DW_TAG_array_type, baseType: !556, size: 8, elements: !679)
!679 = !{!680}
!680 = !DISubrange(count: 1)
!681 = !DIDerivedType(tag: DW_TAG_member, name: "_lock", scope: !648, file: !649, line: 81, baseType: !682, size: 64, offset: 1088)
!682 = !DIDerivedType(tag: DW_TAG_pointer_type, baseType: !683, size: 64)
!683 = !DIDerivedType(tag: DW_TAG_typedef, name: "_IO_lock_t", file: !649, line: 43, baseType: null)
!684 = !DIDerivedType(tag: DW_TAG_member, name: "_offset", scope: !648, file: !649, line: 89, baseType: !685, size: 64, offset: 1152)
!685 = !DIDerivedType(tag: DW_TAG_typedef, name: "__off64_t", file: !29, line: 153, baseType: !30)
!686 = !DIDerivedType(tag: DW_TAG_member, name: "_codecvt", scope: !648, file: !649, line: 91, baseType: !687, size: 64, offset: 1216)
!687 = !DIDerivedType(tag: DW_TAG_pointer_type, baseType: !688, size: 64)
!688 = !DICompositeType(tag: DW_TAG_structure_type, name: "_IO_codecvt", file: !649, line: 37, flags: DIFlagFwdDecl, identifier: "_ZTS11_IO_codecvt")
!689 = !DIDerivedType(tag: DW_TAG_member, name: "_wide_data", scope: !648, file: !649, line: 92, baseType: !690, size: 64, offset: 1280)
!690 = !DIDerivedType(tag: DW_TAG_pointer_type, baseType: !691, size: 64)
!691 = !DICompositeType(tag: DW_TAG_structure_type, name: "_IO_wide_data", file: !649, line: 38, flags: DIFlagFwdDecl, identifier: "_ZTS13_IO_wide_data")
!692 = !DIDerivedType(tag: DW_TAG_member, name: "_freeres_list", scope: !648, file: !649, line: 93, baseType: !668, size: 64, offset: 1344)
!693 = !DIDerivedType(tag: DW_TAG_member, name: "_freeres_buf", scope: !648, file: !649, line: 94, baseType: !18, size: 64, offset: 1408)
!694 = !DIDerivedType(tag: DW_TAG_member, name: "__pad5", scope: !648, file: !649, line: 95, baseType: !695, size: 64, offset: 1472)
!695 = !DIDerivedType(tag: DW_TAG_typedef, name: "size_t", file: !696, line: 46, baseType: !23)
!696 = !DIFile(filename: "OpenRace-env/install/lib/clang/10.0.1/include/stddef.h", directory: "/home/brad/Code")
!697 = !DIDerivedType(tag: DW_TAG_member, name: "_mode", scope: !648, file: !649, line: 96, baseType: !8, size: 32, offset: 1536)
!698 = !DIDerivedType(tag: DW_TAG_member, name: "_unused2", scope: !648, file: !649, line: 98, baseType: !699, size: 160, offset: 1568)
!699 = !DICompositeType(tag: DW_TAG_array_type, baseType: !556, size: 160, elements: !700)
!700 = !{!701}
!701 = !DISubrange(count: 20)
!702 = !DIImportedEntity(tag: DW_TAG_imported_declaration, scope: !7, entity: !703, file: !632, line: 145)
!703 = !DISubprogram(name: "fgetws", scope: !638, file: !638, line: 758, type: !704, flags: DIFlagPrototyped, spFlags: DISPFlagOptimized)
!704 = !DISubroutineType(types: !705)
!705 = !{!706, !708, !8, !709}
!706 = !DIDerivedType(tag: DW_TAG_pointer_type, baseType: !707, size: 64)
!707 = !DIBasicType(name: "wchar_t", size: 32, encoding: DW_ATE_signed)
!708 = !DIDerivedType(tag: DW_TAG_restrict_type, baseType: !706)
!709 = !DIDerivedType(tag: DW_TAG_restrict_type, baseType: !645)
!710 = !DIImportedEntity(tag: DW_TAG_imported_declaration, scope: !7, entity: !711, file: !632, line: 146)
!711 = !DISubprogram(name: "fputwc", scope: !638, file: !638, line: 743, type: !712, flags: DIFlagPrototyped, spFlags: DISPFlagOptimized)
!712 = !DISubroutineType(types: !713)
!713 = !{!634, !707, !645}
!714 = !DIImportedEntity(tag: DW_TAG_imported_declaration, scope: !7, entity: !715, file: !632, line: 147)
!715 = !DISubprogram(name: "fputws", scope: !638, file: !638, line: 765, type: !716, flags: DIFlagPrototyped, spFlags: DISPFlagOptimized)
!716 = !DISubroutineType(types: !717)
!717 = !{!8, !718, !709}
!718 = !DIDerivedType(tag: DW_TAG_restrict_type, baseType: !719)
!719 = !DIDerivedType(tag: DW_TAG_pointer_type, baseType: !720, size: 64)
!720 = !DIDerivedType(tag: DW_TAG_const_type, baseType: !707)
!721 = !DIImportedEntity(tag: DW_TAG_imported_declaration, scope: !7, entity: !722, file: !632, line: 148)
!722 = !DISubprogram(name: "fwide", scope: !638, file: !638, line: 573, type: !723, flags: DIFlagPrototyped, spFlags: DISPFlagOptimized)
!723 = !DISubroutineType(types: !724)
!724 = !{!8, !645, !8}
!725 = !DIImportedEntity(tag: DW_TAG_imported_declaration, scope: !7, entity: !726, file: !632, line: 149)
!726 = !DISubprogram(name: "fwprintf", scope: !638, file: !638, line: 580, type: !727, flags: DIFlagPrototyped, spFlags: DISPFlagOptimized)
!727 = !DISubroutineType(types: !728)
!728 = !{!8, !709, !718, null}
!729 = !DIImportedEntity(tag: DW_TAG_imported_declaration, scope: !7, entity: !730, file: !632, line: 150)
!730 = !DISubprogram(name: "fwscanf", linkageName: "__isoc99_fwscanf", scope: !638, file: !638, line: 642, type: !727, flags: DIFlagPrototyped, spFlags: DISPFlagOptimized)
!731 = !DIImportedEntity(tag: DW_TAG_imported_declaration, scope: !7, entity: !732, file: !632, line: 151)
!732 = !DISubprogram(name: "getwc", scope: !638, file: !638, line: 730, type: !643, flags: DIFlagPrototyped, spFlags: DISPFlagOptimized)
!733 = !DIImportedEntity(tag: DW_TAG_imported_declaration, scope: !7, entity: !734, file: !632, line: 152)
!734 = !DISubprogram(name: "getwchar", scope: !638, file: !638, line: 736, type: !735, flags: DIFlagPrototyped, spFlags: DISPFlagOptimized)
!735 = !DISubroutineType(types: !736)
!736 = !{!634}
!737 = !DIImportedEntity(tag: DW_TAG_imported_declaration, scope: !7, entity: !738, file: !632, line: 153)
!738 = !DISubprogram(name: "mbrlen", scope: !638, file: !638, line: 329, type: !739, flags: DIFlagPrototyped, spFlags: DISPFlagOptimized)
!739 = !DISubroutineType(types: !740)
!740 = !{!695, !741, !695, !742}
!741 = !DIDerivedType(tag: DW_TAG_restrict_type, baseType: !554)
!742 = !DIDerivedType(tag: DW_TAG_restrict_type, baseType: !743)
!743 = !DIDerivedType(tag: DW_TAG_pointer_type, baseType: !616, size: 64)
!744 = !DIImportedEntity(tag: DW_TAG_imported_declaration, scope: !7, entity: !745, file: !632, line: 154)
!745 = !DISubprogram(name: "mbrtowc", scope: !638, file: !638, line: 296, type: !746, flags: DIFlagPrototyped, spFlags: DISPFlagOptimized)
!746 = !DISubroutineType(types: !747)
!747 = !{!695, !708, !741, !695, !742}
!748 = !DIImportedEntity(tag: DW_TAG_imported_declaration, scope: !7, entity: !749, file: !632, line: 155)
!749 = !DISubprogram(name: "mbsinit", scope: !638, file: !638, line: 292, type: !750, flags: DIFlagPrototyped, spFlags: DISPFlagOptimized)
!750 = !DISubroutineType(types: !751)
!751 = !{!8, !752}
!752 = !DIDerivedType(tag: DW_TAG_pointer_type, baseType: !753, size: 64)
!753 = !DIDerivedType(tag: DW_TAG_const_type, baseType: !616)
!754 = !DIImportedEntity(tag: DW_TAG_imported_declaration, scope: !7, entity: !755, file: !632, line: 156)
!755 = !DISubprogram(name: "mbsrtowcs", scope: !638, file: !638, line: 337, type: !756, flags: DIFlagPrototyped, spFlags: DISPFlagOptimized)
!756 = !DISubroutineType(types: !757)
!757 = !{!695, !708, !758, !695, !742}
!758 = !DIDerivedType(tag: DW_TAG_restrict_type, baseType: !759)
!759 = !DIDerivedType(tag: DW_TAG_pointer_type, baseType: !554, size: 64)
!760 = !DIImportedEntity(tag: DW_TAG_imported_declaration, scope: !7, entity: !761, file: !632, line: 157)
!761 = !DISubprogram(name: "putwc", scope: !638, file: !638, line: 744, type: !712, flags: DIFlagPrototyped, spFlags: DISPFlagOptimized)
!762 = !DIImportedEntity(tag: DW_TAG_imported_declaration, scope: !7, entity: !763, file: !632, line: 158)
!763 = !DISubprogram(name: "putwchar", scope: !638, file: !638, line: 750, type: !764, flags: DIFlagPrototyped, spFlags: DISPFlagOptimized)
!764 = !DISubroutineType(types: !765)
!765 = !{!634, !707}
!766 = !DIImportedEntity(tag: DW_TAG_imported_declaration, scope: !7, entity: !767, file: !632, line: 160)
!767 = !DISubprogram(name: "swprintf", scope: !638, file: !638, line: 590, type: !768, flags: DIFlagPrototyped, spFlags: DISPFlagOptimized)
!768 = !DISubroutineType(types: !769)
!769 = !{!8, !708, !695, !718, null}
!770 = !DIImportedEntity(tag: DW_TAG_imported_declaration, scope: !7, entity: !771, file: !632, line: 162)
!771 = !DISubprogram(name: "swscanf", linkageName: "__isoc99_swscanf", scope: !638, file: !638, line: 649, type: !772, flags: DIFlagPrototyped, spFlags: DISPFlagOptimized)
!772 = !DISubroutineType(types: !773)
!773 = !{!8, !718, !718, null}
!774 = !DIImportedEntity(tag: DW_TAG_imported_declaration, scope: !7, entity: !775, file: !632, line: 163)
!775 = !DISubprogram(name: "ungetwc", scope: !638, file: !638, line: 773, type: !776, flags: DIFlagPrototyped, spFlags: DISPFlagOptimized)
!776 = !DISubroutineType(types: !777)
!777 = !{!634, !634, !645}
!778 = !DIImportedEntity(tag: DW_TAG_imported_declaration, scope: !7, entity: !779, file: !632, line: 164)
!779 = !DISubprogram(name: "vfwprintf", scope: !638, file: !638, line: 598, type: !780, flags: DIFlagPrototyped, spFlags: DISPFlagOptimized)
!780 = !DISubroutineType(types: !781)
!781 = !{!8, !709, !718, !782}
!782 = !DIDerivedType(tag: DW_TAG_pointer_type, baseType: !783, size: 64)
!783 = distinct !DICompositeType(tag: DW_TAG_structure_type, name: "__va_list_tag", file: !3, size: 192, flags: DIFlagTypePassByValue, elements: !784, identifier: "_ZTS13__va_list_tag")
!784 = !{!785, !786, !787, !788}
!785 = !DIDerivedType(tag: DW_TAG_member, name: "gp_offset", scope: !783, file: !3, baseType: !627, size: 32)
!786 = !DIDerivedType(tag: DW_TAG_member, name: "fp_offset", scope: !783, file: !3, baseType: !627, size: 32, offset: 32)
!787 = !DIDerivedType(tag: DW_TAG_member, name: "overflow_arg_area", scope: !783, file: !3, baseType: !18, size: 64, offset: 64)
!788 = !DIDerivedType(tag: DW_TAG_member, name: "reg_save_area", scope: !783, file: !3, baseType: !18, size: 64, offset: 128)
!789 = !DIImportedEntity(tag: DW_TAG_imported_declaration, scope: !7, entity: !790, file: !632, line: 166)
!790 = !DISubprogram(name: "vfwscanf", linkageName: "__isoc99_vfwscanf", scope: !638, file: !638, line: 696, type: !780, flags: DIFlagPrototyped, spFlags: DISPFlagOptimized)
!791 = !DIImportedEntity(tag: DW_TAG_imported_declaration, scope: !7, entity: !792, file: !632, line: 169)
!792 = !DISubprogram(name: "vswprintf", scope: !638, file: !638, line: 611, type: !793, flags: DIFlagPrototyped, spFlags: DISPFlagOptimized)
!793 = !DISubroutineType(types: !794)
!794 = !{!8, !708, !695, !718, !782}
!795 = !DIImportedEntity(tag: DW_TAG_imported_declaration, scope: !7, entity: !796, file: !632, line: 172)
!796 = !DISubprogram(name: "vswscanf", linkageName: "__isoc99_vswscanf", scope: !638, file: !638, line: 703, type: !797, flags: DIFlagPrototyped, spFlags: DISPFlagOptimized)
!797 = !DISubroutineType(types: !798)
!798 = !{!8, !718, !718, !782}
!799 = !DIImportedEntity(tag: DW_TAG_imported_declaration, scope: !7, entity: !800, file: !632, line: 174)
!800 = !DISubprogram(name: "vwprintf", scope: !638, file: !638, line: 606, type: !801, flags: DIFlagPrototyped, spFlags: DISPFlagOptimized)
!801 = !DISubroutineType(types: !802)
!802 = !{!8, !718, !782}
!803 = !DIImportedEntity(tag: DW_TAG_imported_declaration, scope: !7, entity: !804, file: !632, line: 176)
!804 = !DISubprogram(name: "vwscanf", linkageName: "__isoc99_vwscanf", scope: !638, file: !638, line: 700, type: !801, flags: DIFlagPrototyped, spFlags: DISPFlagOptimized)
!805 = !DIImportedEntity(tag: DW_TAG_imported_declaration, scope: !7, entity: !806, file: !632, line: 178)
!806 = !DISubprogram(name: "wcrtomb", scope: !638, file: !638, line: 301, type: !807, flags: DIFlagPrototyped, spFlags: DISPFlagOptimized)
!807 = !DISubroutineType(types: !808)
!808 = !{!695, !809, !707, !742}
!809 = !DIDerivedType(tag: DW_TAG_restrict_type, baseType: !653)
!810 = !DIImportedEntity(tag: DW_TAG_imported_declaration, scope: !7, entity: !811, file: !632, line: 179)
!811 = !DISubprogram(name: "wcscat", scope: !638, file: !638, line: 97, type: !812, flags: DIFlagPrototyped, spFlags: DISPFlagOptimized)
!812 = !DISubroutineType(types: !813)
!813 = !{!706, !708, !718}
!814 = !DIImportedEntity(tag: DW_TAG_imported_declaration, scope: !7, entity: !815, file: !632, line: 180)
!815 = !DISubprogram(name: "wcscmp", scope: !638, file: !638, line: 106, type: !816, flags: DIFlagPrototyped, spFlags: DISPFlagOptimized)
!816 = !DISubroutineType(types: !817)
!817 = !{!8, !719, !719}
!818 = !DIImportedEntity(tag: DW_TAG_imported_declaration, scope: !7, entity: !819, file: !632, line: 181)
!819 = !DISubprogram(name: "wcscoll", scope: !638, file: !638, line: 131, type: !816, flags: DIFlagPrototyped, spFlags: DISPFlagOptimized)
!820 = !DIImportedEntity(tag: DW_TAG_imported_declaration, scope: !7, entity: !821, file: !632, line: 182)
!821 = !DISubprogram(name: "wcscpy", scope: !638, file: !638, line: 87, type: !812, flags: DIFlagPrototyped, spFlags: DISPFlagOptimized)
!822 = !DIImportedEntity(tag: DW_TAG_imported_declaration, scope: !7, entity: !823, file: !632, line: 183)
!823 = !DISubprogram(name: "wcscspn", scope: !638, file: !638, line: 187, type: !824, flags: DIFlagPrototyped, spFlags: DISPFlagOptimized)
!824 = !DISubroutineType(types: !825)
!825 = !{!695, !719, !719}
!826 = !DIImportedEntity(tag: DW_TAG_imported_declaration, scope: !7, entity: !827, file: !632, line: 184)
!827 = !DISubprogram(name: "wcsftime", scope: !638, file: !638, line: 837, type: !828, flags: DIFlagPrototyped, spFlags: DISPFlagOptimized)
!828 = !DISubroutineType(types: !829)
!829 = !{!695, !708, !695, !718, !830}
!830 = !DIDerivedType(tag: DW_TAG_restrict_type, baseType: !831)
!831 = !DIDerivedType(tag: DW_TAG_pointer_type, baseType: !832, size: 64)
!832 = !DIDerivedType(tag: DW_TAG_const_type, baseType: !833)
!833 = !DICompositeType(tag: DW_TAG_structure_type, name: "tm", file: !834, line: 7, flags: DIFlagFwdDecl, identifier: "_ZTS2tm")
!834 = !DIFile(filename: "/usr/include/bits/types/struct_tm.h", directory: "")
!835 = !DIImportedEntity(tag: DW_TAG_imported_declaration, scope: !7, entity: !836, file: !632, line: 185)
!836 = !DISubprogram(name: "wcslen", scope: !638, file: !638, line: 222, type: !837, flags: DIFlagPrototyped, spFlags: DISPFlagOptimized)
!837 = !DISubroutineType(types: !838)
!838 = !{!695, !719}
!839 = !DIImportedEntity(tag: DW_TAG_imported_declaration, scope: !7, entity: !840, file: !632, line: 186)
!840 = !DISubprogram(name: "wcsncat", scope: !638, file: !638, line: 101, type: !841, flags: DIFlagPrototyped, spFlags: DISPFlagOptimized)
!841 = !DISubroutineType(types: !842)
!842 = !{!706, !708, !718, !695}
!843 = !DIImportedEntity(tag: DW_TAG_imported_declaration, scope: !7, entity: !844, file: !632, line: 187)
!844 = !DISubprogram(name: "wcsncmp", scope: !638, file: !638, line: 109, type: !845, flags: DIFlagPrototyped, spFlags: DISPFlagOptimized)
!845 = !DISubroutineType(types: !846)
!846 = !{!8, !719, !719, !695}
!847 = !DIImportedEntity(tag: DW_TAG_imported_declaration, scope: !7, entity: !848, file: !632, line: 188)
!848 = !DISubprogram(name: "wcsncpy", scope: !638, file: !638, line: 92, type: !841, flags: DIFlagPrototyped, spFlags: DISPFlagOptimized)
!849 = !DIImportedEntity(tag: DW_TAG_imported_declaration, scope: !7, entity: !850, file: !632, line: 189)
!850 = !DISubprogram(name: "wcsrtombs", scope: !638, file: !638, line: 343, type: !851, flags: DIFlagPrototyped, spFlags: DISPFlagOptimized)
!851 = !DISubroutineType(types: !852)
!852 = !{!695, !809, !853, !695, !742}
!853 = !DIDerivedType(tag: DW_TAG_restrict_type, baseType: !854)
!854 = !DIDerivedType(tag: DW_TAG_pointer_type, baseType: !719, size: 64)
!855 = !DIImportedEntity(tag: DW_TAG_imported_declaration, scope: !7, entity: !856, file: !632, line: 190)
!856 = !DISubprogram(name: "wcsspn", scope: !638, file: !638, line: 191, type: !824, flags: DIFlagPrototyped, spFlags: DISPFlagOptimized)
!857 = !DIImportedEntity(tag: DW_TAG_imported_declaration, scope: !7, entity: !858, file: !632, line: 191)
!858 = !DISubprogram(name: "wcstod", scope: !638, file: !638, line: 377, type: !859, flags: DIFlagPrototyped, spFlags: DISPFlagOptimized)
!859 = !DISubroutineType(types: !860)
!860 = !{!861, !718, !862}
!861 = !DIBasicType(name: "double", size: 64, encoding: DW_ATE_float)
!862 = !DIDerivedType(tag: DW_TAG_restrict_type, baseType: !863)
!863 = !DIDerivedType(tag: DW_TAG_pointer_type, baseType: !706, size: 64)
!864 = !DIImportedEntity(tag: DW_TAG_imported_declaration, scope: !7, entity: !865, file: !632, line: 193)
!865 = !DISubprogram(name: "wcstof", scope: !638, file: !638, line: 382, type: !866, flags: DIFlagPrototyped, spFlags: DISPFlagOptimized)
!866 = !DISubroutineType(types: !867)
!867 = !{!868, !718, !862}
!868 = !DIBasicType(name: "float", size: 32, encoding: DW_ATE_float)
!869 = !DIImportedEntity(tag: DW_TAG_imported_declaration, scope: !7, entity: !870, file: !632, line: 195)
!870 = !DISubprogram(name: "wcstok", scope: !638, file: !638, line: 217, type: !871, flags: DIFlagPrototyped, spFlags: DISPFlagOptimized)
!871 = !DISubroutineType(types: !872)
!872 = !{!706, !708, !718, !862}
!873 = !DIImportedEntity(tag: DW_TAG_imported_declaration, scope: !7, entity: !874, file: !632, line: 196)
!874 = !DISubprogram(name: "wcstol", scope: !638, file: !638, line: 428, type: !875, flags: DIFlagPrototyped, spFlags: DISPFlagOptimized)
!875 = !DISubroutineType(types: !876)
!876 = !{!30, !718, !862, !8}
!877 = !DIImportedEntity(tag: DW_TAG_imported_declaration, scope: !7, entity: !878, file: !632, line: 197)
!878 = !DISubprogram(name: "wcstoul", scope: !638, file: !638, line: 433, type: !879, flags: DIFlagPrototyped, spFlags: DISPFlagOptimized)
!879 = !DISubroutineType(types: !880)
!880 = !{!23, !718, !862, !8}
!881 = !DIImportedEntity(tag: DW_TAG_imported_declaration, scope: !7, entity: !882, file: !632, line: 198)
!882 = !DISubprogram(name: "wcsxfrm", scope: !638, file: !638, line: 135, type: !883, flags: DIFlagPrototyped, spFlags: DISPFlagOptimized)
!883 = !DISubroutineType(types: !884)
!884 = !{!695, !708, !718, !695}
!885 = !DIImportedEntity(tag: DW_TAG_imported_declaration, scope: !7, entity: !886, file: !632, line: 199)
!886 = !DISubprogram(name: "wctob", scope: !638, file: !638, line: 324, type: !887, flags: DIFlagPrototyped, spFlags: DISPFlagOptimized)
!887 = !DISubroutineType(types: !888)
!888 = !{!8, !634}
!889 = !DIImportedEntity(tag: DW_TAG_imported_declaration, scope: !7, entity: !890, file: !632, line: 200)
!890 = !DISubprogram(name: "wmemcmp", scope: !638, file: !638, line: 258, type: !845, flags: DIFlagPrototyped, spFlags: DISPFlagOptimized)
!891 = !DIImportedEntity(tag: DW_TAG_imported_declaration, scope: !7, entity: !892, file: !632, line: 201)
!892 = !DISubprogram(name: "wmemcpy", scope: !638, file: !638, line: 262, type: !841, flags: DIFlagPrototyped, spFlags: DISPFlagOptimized)
!893 = !DIImportedEntity(tag: DW_TAG_imported_declaration, scope: !7, entity: !894, file: !632, line: 202)
!894 = !DISubprogram(name: "wmemmove", scope: !638, file: !638, line: 267, type: !895, flags: DIFlagPrototyped, spFlags: DISPFlagOptimized)
!895 = !DISubroutineType(types: !896)
!896 = !{!706, !706, !719, !695}
!897 = !DIImportedEntity(tag: DW_TAG_imported_declaration, scope: !7, entity: !898, file: !632, line: 203)
!898 = !DISubprogram(name: "wmemset", scope: !638, file: !638, line: 271, type: !899, flags: DIFlagPrototyped, spFlags: DISPFlagOptimized)
!899 = !DISubroutineType(types: !900)
!900 = !{!706, !706, !707, !695}
!901 = !DIImportedEntity(tag: DW_TAG_imported_declaration, scope: !7, entity: !902, file: !632, line: 204)
!902 = !DISubprogram(name: "wprintf", scope: !638, file: !638, line: 587, type: !903, flags: DIFlagPrototyped, spFlags: DISPFlagOptimized)
!903 = !DISubroutineType(types: !904)
!904 = !{!8, !718, null}
!905 = !DIImportedEntity(tag: DW_TAG_imported_declaration, scope: !7, entity: !906, file: !632, line: 205)
!906 = !DISubprogram(name: "wscanf", linkageName: "__isoc99_wscanf", scope: !638, file: !638, line: 646, type: !903, flags: DIFlagPrototyped, spFlags: DISPFlagOptimized)
!907 = !DIImportedEntity(tag: DW_TAG_imported_declaration, scope: !7, entity: !908, file: !632, line: 206)
!908 = !DISubprogram(name: "wcschr", scope: !638, file: !638, line: 164, type: !909, flags: DIFlagPrototyped, spFlags: DISPFlagOptimized)
!909 = !DISubroutineType(types: !910)
!910 = !{!706, !719, !707}
!911 = !DIImportedEntity(tag: DW_TAG_imported_declaration, scope: !7, entity: !912, file: !632, line: 207)
!912 = !DISubprogram(name: "wcspbrk", scope: !638, file: !638, line: 201, type: !913, flags: DIFlagPrototyped, spFlags: DISPFlagOptimized)
!913 = !DISubroutineType(types: !914)
!914 = !{!706, !719, !719}
!915 = !DIImportedEntity(tag: DW_TAG_imported_declaration, scope: !7, entity: !916, file: !632, line: 208)
!916 = !DISubprogram(name: "wcsrchr", scope: !638, file: !638, line: 174, type: !909, flags: DIFlagPrototyped, spFlags: DISPFlagOptimized)
!917 = !DIImportedEntity(tag: DW_TAG_imported_declaration, scope: !7, entity: !918, file: !632, line: 209)
!918 = !DISubprogram(name: "wcsstr", scope: !638, file: !638, line: 212, type: !913, flags: DIFlagPrototyped, spFlags: DISPFlagOptimized)
!919 = !DIImportedEntity(tag: DW_TAG_imported_declaration, scope: !7, entity: !920, file: !632, line: 210)
!920 = !DISubprogram(name: "wmemchr", scope: !638, file: !638, line: 253, type: !921, flags: DIFlagPrototyped, spFlags: DISPFlagOptimized)
!921 = !DISubroutineType(types: !922)
!922 = !{!706, !719, !707, !695}
!923 = !DIImportedEntity(tag: DW_TAG_imported_declaration, scope: !61, entity: !924, file: !632, line: 251)
!924 = !DISubprogram(name: "wcstold", scope: !638, file: !638, line: 384, type: !925, flags: DIFlagPrototyped, spFlags: DISPFlagOptimized)
!925 = !DISubroutineType(types: !926)
!926 = !{!927, !718, !862}
!927 = !DIBasicType(name: "long double", size: 128, encoding: DW_ATE_float)
!928 = !DIImportedEntity(tag: DW_TAG_imported_declaration, scope: !61, entity: !929, file: !632, line: 260)
!929 = !DISubprogram(name: "wcstoll", scope: !638, file: !638, line: 441, type: !930, flags: DIFlagPrototyped, spFlags: DISPFlagOptimized)
!930 = !DISubroutineType(types: !931)
!931 = !{!932, !718, !862, !8}
!932 = !DIBasicType(name: "long long int", size: 64, encoding: DW_ATE_signed)
!933 = !DIImportedEntity(tag: DW_TAG_imported_declaration, scope: !61, entity: !934, file: !632, line: 261)
!934 = !DISubprogram(name: "wcstoull", scope: !638, file: !638, line: 448, type: !935, flags: DIFlagPrototyped, spFlags: DISPFlagOptimized)
!935 = !DISubroutineType(types: !936)
!936 = !{!937, !718, !862, !8}
!937 = !DIBasicType(name: "long long unsigned int", size: 64, encoding: DW_ATE_unsigned)
!938 = !DIImportedEntity(tag: DW_TAG_imported_declaration, scope: !7, entity: !924, file: !632, line: 267)
!939 = !DIImportedEntity(tag: DW_TAG_imported_declaration, scope: !7, entity: !929, file: !632, line: 268)
!940 = !DIImportedEntity(tag: DW_TAG_imported_declaration, scope: !7, entity: !934, file: !632, line: 269)
!941 = !DIImportedEntity(tag: DW_TAG_imported_declaration, scope: !7, entity: !865, file: !632, line: 283)
!942 = !DIImportedEntity(tag: DW_TAG_imported_declaration, scope: !7, entity: !790, file: !632, line: 286)
!943 = !DIImportedEntity(tag: DW_TAG_imported_declaration, scope: !7, entity: !796, file: !632, line: 289)
!944 = !DIImportedEntity(tag: DW_TAG_imported_declaration, scope: !7, entity: !804, file: !632, line: 292)
!945 = !DIImportedEntity(tag: DW_TAG_imported_declaration, scope: !7, entity: !924, file: !632, line: 296)
!946 = !DIImportedEntity(tag: DW_TAG_imported_declaration, scope: !7, entity: !929, file: !632, line: 297)
!947 = !DIImportedEntity(tag: DW_TAG_imported_declaration, scope: !7, entity: !934, file: !632, line: 298)
!948 = !DIImportedEntity(tag: DW_TAG_imported_declaration, scope: !7, entity: !949, file: !950, line: 58)
!949 = distinct !DICompositeType(tag: DW_TAG_class_type, name: "exception_ptr", scope: !951, file: !950, line: 80, size: 64, flags: DIFlagTypePassByReference | DIFlagNonTrivial, elements: !952, identifier: "_ZTSNSt15__exception_ptr13exception_ptrE")
!950 = !DIFile(filename: "/usr/lib64/gcc/x86_64-pc-linux-gnu/10.2.0/../../../../include/c++/10.2.0/bits/exception_ptr.h", directory: "")
!951 = !DINamespace(name: "__exception_ptr", scope: !7)
!952 = !{!953, !954, !958, !961, !962, !967, !968, !972, !977, !981, !985, !988, !989, !992, !995}
!953 = !DIDerivedType(tag: DW_TAG_member, name: "_M_exception_object", scope: !949, file: !950, line: 82, baseType: !18, size: 64)
!954 = !DISubprogram(name: "exception_ptr", scope: !949, file: !950, line: 84, type: !955, scopeLine: 84, flags: DIFlagExplicit | DIFlagPrototyped, spFlags: DISPFlagOptimized)
!955 = !DISubroutineType(types: !956)
!956 = !{null, !957, !18}
!957 = !DIDerivedType(tag: DW_TAG_pointer_type, baseType: !949, size: 64, flags: DIFlagArtificial | DIFlagObjectPointer)
!958 = !DISubprogram(name: "_M_addref", linkageName: "_ZNSt15__exception_ptr13exception_ptr9_M_addrefEv", scope: !949, file: !950, line: 86, type: !959, scopeLine: 86, flags: DIFlagPrototyped, spFlags: DISPFlagOptimized)
!959 = !DISubroutineType(types: !960)
!960 = !{null, !957}
!961 = !DISubprogram(name: "_M_release", linkageName: "_ZNSt15__exception_ptr13exception_ptr10_M_releaseEv", scope: !949, file: !950, line: 87, type: !959, scopeLine: 87, flags: DIFlagPrototyped, spFlags: DISPFlagOptimized)
!962 = !DISubprogram(name: "_M_get", linkageName: "_ZNKSt15__exception_ptr13exception_ptr6_M_getEv", scope: !949, file: !950, line: 89, type: !963, scopeLine: 89, flags: DIFlagPrototyped, spFlags: DISPFlagOptimized)
!963 = !DISubroutineType(types: !964)
!964 = !{!18, !965}
!965 = !DIDerivedType(tag: DW_TAG_pointer_type, baseType: !966, size: 64, flags: DIFlagArtificial | DIFlagObjectPointer)
!966 = !DIDerivedType(tag: DW_TAG_const_type, baseType: !949)
!967 = !DISubprogram(name: "exception_ptr", scope: !949, file: !950, line: 97, type: !959, scopeLine: 97, flags: DIFlagPublic | DIFlagPrototyped, spFlags: DISPFlagOptimized)
!968 = !DISubprogram(name: "exception_ptr", scope: !949, file: !950, line: 99, type: !969, scopeLine: 99, flags: DIFlagPublic | DIFlagPrototyped, spFlags: DISPFlagOptimized)
!969 = !DISubroutineType(types: !970)
!970 = !{null, !957, !971}
!971 = !DIDerivedType(tag: DW_TAG_reference_type, baseType: !966, size: 64)
!972 = !DISubprogram(name: "exception_ptr", scope: !949, file: !950, line: 102, type: !973, scopeLine: 102, flags: DIFlagPublic | DIFlagPrototyped, spFlags: DISPFlagOptimized)
!973 = !DISubroutineType(types: !974)
!974 = !{null, !957, !975}
!975 = !DIDerivedType(tag: DW_TAG_typedef, name: "nullptr_t", scope: !7, file: !38, line: 264, baseType: !976)
!976 = !DIBasicType(tag: DW_TAG_unspecified_type, name: "decltype(nullptr)")
!977 = !DISubprogram(name: "exception_ptr", scope: !949, file: !950, line: 106, type: !978, scopeLine: 106, flags: DIFlagPublic | DIFlagPrototyped, spFlags: DISPFlagOptimized)
!978 = !DISubroutineType(types: !979)
!979 = !{null, !957, !980}
!980 = !DIDerivedType(tag: DW_TAG_rvalue_reference_type, baseType: !949, size: 64)
!981 = !DISubprogram(name: "operator=", linkageName: "_ZNSt15__exception_ptr13exception_ptraSERKS0_", scope: !949, file: !950, line: 119, type: !982, scopeLine: 119, flags: DIFlagPublic | DIFlagPrototyped, spFlags: DISPFlagOptimized)
!982 = !DISubroutineType(types: !983)
!983 = !{!984, !957, !971}
!984 = !DIDerivedType(tag: DW_TAG_reference_type, baseType: !949, size: 64)
!985 = !DISubprogram(name: "operator=", linkageName: "_ZNSt15__exception_ptr13exception_ptraSEOS0_", scope: !949, file: !950, line: 123, type: !986, scopeLine: 123, flags: DIFlagPublic | DIFlagPrototyped, spFlags: DISPFlagOptimized)
!986 = !DISubroutineType(types: !987)
!987 = !{!984, !957, !980}
!988 = !DISubprogram(name: "~exception_ptr", scope: !949, file: !950, line: 130, type: !959, scopeLine: 130, flags: DIFlagPublic | DIFlagPrototyped, spFlags: DISPFlagOptimized)
!989 = !DISubprogram(name: "swap", linkageName: "_ZNSt15__exception_ptr13exception_ptr4swapERS0_", scope: !949, file: !950, line: 133, type: !990, scopeLine: 133, flags: DIFlagPublic | DIFlagPrototyped, spFlags: DISPFlagOptimized)
!990 = !DISubroutineType(types: !991)
!991 = !{null, !957, !984}
!992 = !DISubprogram(name: "operator bool", linkageName: "_ZNKSt15__exception_ptr13exception_ptrcvbEv", scope: !949, file: !950, line: 145, type: !993, scopeLine: 145, flags: DIFlagPublic | DIFlagExplicit | DIFlagPrototyped, spFlags: DISPFlagOptimized)
!993 = !DISubroutineType(types: !994)
!994 = !{!162, !965}
!995 = !DISubprogram(name: "__cxa_exception_type", linkageName: "_ZNKSt15__exception_ptr13exception_ptr20__cxa_exception_typeEv", scope: !949, file: !950, line: 154, type: !996, scopeLine: 154, flags: DIFlagPublic | DIFlagPrototyped, spFlags: DISPFlagOptimized)
!996 = !DISubroutineType(types: !997)
!997 = !{!998, !965}
!998 = !DIDerivedType(tag: DW_TAG_pointer_type, baseType: !999, size: 64)
!999 = !DIDerivedType(tag: DW_TAG_const_type, baseType: !1000)
!1000 = !DICompositeType(tag: DW_TAG_class_type, name: "type_info", scope: !7, file: !1001, line: 88, flags: DIFlagFwdDecl, identifier: "_ZTSSt9type_info")
!1001 = !DIFile(filename: "/usr/lib64/gcc/x86_64-pc-linux-gnu/10.2.0/../../../../include/c++/10.2.0/typeinfo", directory: "")
!1002 = !DIImportedEntity(tag: DW_TAG_imported_declaration, scope: !951, entity: !1003, file: !950, line: 74)
!1003 = !DISubprogram(name: "rethrow_exception", linkageName: "_ZSt17rethrow_exceptionNSt15__exception_ptr13exception_ptrE", scope: !7, file: !950, line: 70, type: !1004, flags: DIFlagPrototyped | DIFlagNoReturn, spFlags: DISPFlagOptimized)
!1004 = !DISubroutineType(types: !1005)
!1005 = !{null, !949}
!1006 = !DIImportedEntity(tag: DW_TAG_imported_module, scope: !1007, entity: !1008, file: !1009, line: 58)
!1007 = !DINamespace(name: "__gnu_debug", scope: null)
!1008 = !DINamespace(name: "__debug", scope: !7)
!1009 = !DIFile(filename: "/usr/lib64/gcc/x86_64-pc-linux-gnu/10.2.0/../../../../include/c++/10.2.0/debug/debug.h", directory: "")
!1010 = !DIImportedEntity(tag: DW_TAG_imported_declaration, scope: !7, entity: !1011, file: !1013, line: 47)
!1011 = !DIDerivedType(tag: DW_TAG_typedef, name: "int8_t", file: !27, line: 24, baseType: !1012)
!1012 = !DIDerivedType(tag: DW_TAG_typedef, name: "__int8_t", file: !29, line: 37, baseType: !676)
!1013 = !DIFile(filename: "/usr/lib64/gcc/x86_64-pc-linux-gnu/10.2.0/../../../../include/c++/10.2.0/cstdint", directory: "")
!1014 = !DIImportedEntity(tag: DW_TAG_imported_declaration, scope: !7, entity: !1015, file: !1013, line: 48)
!1015 = !DIDerivedType(tag: DW_TAG_typedef, name: "int16_t", file: !27, line: 25, baseType: !1016)
!1016 = !DIDerivedType(tag: DW_TAG_typedef, name: "__int16_t", file: !29, line: 39, baseType: !1017)
!1017 = !DIBasicType(name: "short", size: 16, encoding: DW_ATE_signed)
!1018 = !DIImportedEntity(tag: DW_TAG_imported_declaration, scope: !7, entity: !1019, file: !1013, line: 49)
!1019 = !DIDerivedType(tag: DW_TAG_typedef, name: "int32_t", file: !27, line: 26, baseType: !1020)
!1020 = !DIDerivedType(tag: DW_TAG_typedef, name: "__int32_t", file: !29, line: 41, baseType: !8)
!1021 = !DIImportedEntity(tag: DW_TAG_imported_declaration, scope: !7, entity: !26, file: !1013, line: 50)
!1022 = !DIImportedEntity(tag: DW_TAG_imported_declaration, scope: !7, entity: !1023, file: !1013, line: 52)
!1023 = !DIDerivedType(tag: DW_TAG_typedef, name: "int_fast8_t", file: !1024, line: 58, baseType: !676)
!1024 = !DIFile(filename: "/usr/include/stdint.h", directory: "")
!1025 = !DIImportedEntity(tag: DW_TAG_imported_declaration, scope: !7, entity: !1026, file: !1013, line: 53)
!1026 = !DIDerivedType(tag: DW_TAG_typedef, name: "int_fast16_t", file: !1024, line: 60, baseType: !30)
!1027 = !DIImportedEntity(tag: DW_TAG_imported_declaration, scope: !7, entity: !1028, file: !1013, line: 54)
!1028 = !DIDerivedType(tag: DW_TAG_typedef, name: "int_fast32_t", file: !1024, line: 61, baseType: !30)
!1029 = !DIImportedEntity(tag: DW_TAG_imported_declaration, scope: !7, entity: !1030, file: !1013, line: 55)
!1030 = !DIDerivedType(tag: DW_TAG_typedef, name: "int_fast64_t", file: !1024, line: 62, baseType: !30)
!1031 = !DIImportedEntity(tag: DW_TAG_imported_declaration, scope: !7, entity: !1032, file: !1013, line: 57)
!1032 = !DIDerivedType(tag: DW_TAG_typedef, name: "int_least8_t", file: !1024, line: 43, baseType: !1033)
!1033 = !DIDerivedType(tag: DW_TAG_typedef, name: "__int_least8_t", file: !29, line: 52, baseType: !1012)
!1034 = !DIImportedEntity(tag: DW_TAG_imported_declaration, scope: !7, entity: !1035, file: !1013, line: 58)
!1035 = !DIDerivedType(tag: DW_TAG_typedef, name: "int_least16_t", file: !1024, line: 44, baseType: !1036)
!1036 = !DIDerivedType(tag: DW_TAG_typedef, name: "__int_least16_t", file: !29, line: 54, baseType: !1016)
!1037 = !DIImportedEntity(tag: DW_TAG_imported_declaration, scope: !7, entity: !1038, file: !1013, line: 59)
!1038 = !DIDerivedType(tag: DW_TAG_typedef, name: "int_least32_t", file: !1024, line: 45, baseType: !1039)
!1039 = !DIDerivedType(tag: DW_TAG_typedef, name: "__int_least32_t", file: !29, line: 56, baseType: !1020)
!1040 = !DIImportedEntity(tag: DW_TAG_imported_declaration, scope: !7, entity: !1041, file: !1013, line: 60)
!1041 = !DIDerivedType(tag: DW_TAG_typedef, name: "int_least64_t", file: !1024, line: 46, baseType: !1042)
!1042 = !DIDerivedType(tag: DW_TAG_typedef, name: "__int_least64_t", file: !29, line: 58, baseType: !28)
!1043 = !DIImportedEntity(tag: DW_TAG_imported_declaration, scope: !7, entity: !1044, file: !1013, line: 62)
!1044 = !DIDerivedType(tag: DW_TAG_typedef, name: "intmax_t", file: !1024, line: 101, baseType: !1045)
!1045 = !DIDerivedType(tag: DW_TAG_typedef, name: "__intmax_t", file: !29, line: 72, baseType: !30)
!1046 = !DIImportedEntity(tag: DW_TAG_imported_declaration, scope: !7, entity: !1047, file: !1013, line: 63)
!1047 = !DIDerivedType(tag: DW_TAG_typedef, name: "intptr_t", file: !1024, line: 87, baseType: !30)
!1048 = !DIImportedEntity(tag: DW_TAG_imported_declaration, scope: !7, entity: !1049, file: !1013, line: 65)
!1049 = !DIDerivedType(tag: DW_TAG_typedef, name: "uint8_t", file: !1050, line: 24, baseType: !1051)
!1050 = !DIFile(filename: "/usr/include/bits/stdint-uintn.h", directory: "")
!1051 = !DIDerivedType(tag: DW_TAG_typedef, name: "__uint8_t", file: !29, line: 38, baseType: !588)
!1052 = !DIImportedEntity(tag: DW_TAG_imported_declaration, scope: !7, entity: !1053, file: !1013, line: 66)
!1053 = !DIDerivedType(tag: DW_TAG_typedef, name: "uint16_t", file: !1050, line: 25, baseType: !1054)
!1054 = !DIDerivedType(tag: DW_TAG_typedef, name: "__uint16_t", file: !29, line: 40, baseType: !674)
!1055 = !DIImportedEntity(tag: DW_TAG_imported_declaration, scope: !7, entity: !1056, file: !1013, line: 67)
!1056 = !DIDerivedType(tag: DW_TAG_typedef, name: "uint32_t", file: !1050, line: 26, baseType: !1057)
!1057 = !DIDerivedType(tag: DW_TAG_typedef, name: "__uint32_t", file: !29, line: 42, baseType: !627)
!1058 = !DIImportedEntity(tag: DW_TAG_imported_declaration, scope: !7, entity: !1059, file: !1013, line: 68)
!1059 = !DIDerivedType(tag: DW_TAG_typedef, name: "uint64_t", file: !1050, line: 27, baseType: !1060)
!1060 = !DIDerivedType(tag: DW_TAG_typedef, name: "__uint64_t", file: !29, line: 45, baseType: !23)
!1061 = !DIImportedEntity(tag: DW_TAG_imported_declaration, scope: !7, entity: !1062, file: !1013, line: 70)
!1062 = !DIDerivedType(tag: DW_TAG_typedef, name: "uint_fast8_t", file: !1024, line: 71, baseType: !588)
!1063 = !DIImportedEntity(tag: DW_TAG_imported_declaration, scope: !7, entity: !1064, file: !1013, line: 71)
!1064 = !DIDerivedType(tag: DW_TAG_typedef, name: "uint_fast16_t", file: !1024, line: 73, baseType: !23)
!1065 = !DIImportedEntity(tag: DW_TAG_imported_declaration, scope: !7, entity: !1066, file: !1013, line: 72)
!1066 = !DIDerivedType(tag: DW_TAG_typedef, name: "uint_fast32_t", file: !1024, line: 74, baseType: !23)
!1067 = !DIImportedEntity(tag: DW_TAG_imported_declaration, scope: !7, entity: !1068, file: !1013, line: 73)
!1068 = !DIDerivedType(tag: DW_TAG_typedef, name: "uint_fast64_t", file: !1024, line: 75, baseType: !23)
!1069 = !DIImportedEntity(tag: DW_TAG_imported_declaration, scope: !7, entity: !1070, file: !1013, line: 75)
!1070 = !DIDerivedType(tag: DW_TAG_typedef, name: "uint_least8_t", file: !1024, line: 49, baseType: !1071)
!1071 = !DIDerivedType(tag: DW_TAG_typedef, name: "__uint_least8_t", file: !29, line: 53, baseType: !1051)
!1072 = !DIImportedEntity(tag: DW_TAG_imported_declaration, scope: !7, entity: !1073, file: !1013, line: 76)
!1073 = !DIDerivedType(tag: DW_TAG_typedef, name: "uint_least16_t", file: !1024, line: 50, baseType: !1074)
!1074 = !DIDerivedType(tag: DW_TAG_typedef, name: "__uint_least16_t", file: !29, line: 55, baseType: !1054)
!1075 = !DIImportedEntity(tag: DW_TAG_imported_declaration, scope: !7, entity: !1076, file: !1013, line: 77)
!1076 = !DIDerivedType(tag: DW_TAG_typedef, name: "uint_least32_t", file: !1024, line: 51, baseType: !1077)
!1077 = !DIDerivedType(tag: DW_TAG_typedef, name: "__uint_least32_t", file: !29, line: 57, baseType: !1057)
!1078 = !DIImportedEntity(tag: DW_TAG_imported_declaration, scope: !7, entity: !1079, file: !1013, line: 78)
!1079 = !DIDerivedType(tag: DW_TAG_typedef, name: "uint_least64_t", file: !1024, line: 52, baseType: !1080)
!1080 = !DIDerivedType(tag: DW_TAG_typedef, name: "__uint_least64_t", file: !29, line: 59, baseType: !1060)
!1081 = !DIImportedEntity(tag: DW_TAG_imported_declaration, scope: !7, entity: !1082, file: !1013, line: 80)
!1082 = !DIDerivedType(tag: DW_TAG_typedef, name: "uintmax_t", file: !1024, line: 102, baseType: !1083)
!1083 = !DIDerivedType(tag: DW_TAG_typedef, name: "__uintmax_t", file: !29, line: 73, baseType: !23)
!1084 = !DIImportedEntity(tag: DW_TAG_imported_declaration, scope: !7, entity: !1085, file: !1013, line: 81)
!1085 = !DIDerivedType(tag: DW_TAG_typedef, name: "uintptr_t", file: !1024, line: 90, baseType: !23)
!1086 = !DIImportedEntity(tag: DW_TAG_imported_declaration, scope: !7, entity: !1087, file: !1089, line: 53)
!1087 = !DICompositeType(tag: DW_TAG_structure_type, name: "lconv", file: !1088, line: 51, flags: DIFlagFwdDecl, identifier: "_ZTS5lconv")
!1088 = !DIFile(filename: "/usr/include/locale.h", directory: "")
!1089 = !DIFile(filename: "/usr/lib64/gcc/x86_64-pc-linux-gnu/10.2.0/../../../../include/c++/10.2.0/clocale", directory: "")
!1090 = !DIImportedEntity(tag: DW_TAG_imported_declaration, scope: !7, entity: !1091, file: !1089, line: 54)
!1091 = !DISubprogram(name: "setlocale", scope: !1088, file: !1088, line: 122, type: !1092, flags: DIFlagPrototyped, spFlags: DISPFlagOptimized)
!1092 = !DISubroutineType(types: !1093)
!1093 = !{!653, !8, !554}
!1094 = !DIImportedEntity(tag: DW_TAG_imported_declaration, scope: !7, entity: !1095, file: !1089, line: 55)
!1095 = !DISubprogram(name: "localeconv", scope: !1088, file: !1088, line: 125, type: !1096, flags: DIFlagPrototyped, spFlags: DISPFlagOptimized)
!1096 = !DISubroutineType(types: !1097)
!1097 = !{!1098}
!1098 = !DIDerivedType(tag: DW_TAG_pointer_type, baseType: !1087, size: 64)
!1099 = !DIImportedEntity(tag: DW_TAG_imported_declaration, scope: !7, entity: !1100, file: !1104, line: 64)
!1100 = !DISubprogram(name: "isalnum", scope: !1101, file: !1101, line: 108, type: !1102, flags: DIFlagPrototyped, spFlags: DISPFlagOptimized)
!1101 = !DIFile(filename: "/usr/include/ctype.h", directory: "")
!1102 = !DISubroutineType(types: !1103)
!1103 = !{!8, !8}
!1104 = !DIFile(filename: "/usr/lib64/gcc/x86_64-pc-linux-gnu/10.2.0/../../../../include/c++/10.2.0/cctype", directory: "")
!1105 = !DIImportedEntity(tag: DW_TAG_imported_declaration, scope: !7, entity: !1106, file: !1104, line: 65)
!1106 = !DISubprogram(name: "isalpha", scope: !1101, file: !1101, line: 109, type: !1102, flags: DIFlagPrototyped, spFlags: DISPFlagOptimized)
!1107 = !DIImportedEntity(tag: DW_TAG_imported_declaration, scope: !7, entity: !1108, file: !1104, line: 66)
!1108 = !DISubprogram(name: "iscntrl", scope: !1101, file: !1101, line: 110, type: !1102, flags: DIFlagPrototyped, spFlags: DISPFlagOptimized)
!1109 = !DIImportedEntity(tag: DW_TAG_imported_declaration, scope: !7, entity: !1110, file: !1104, line: 67)
!1110 = !DISubprogram(name: "isdigit", scope: !1101, file: !1101, line: 111, type: !1102, flags: DIFlagPrototyped, spFlags: DISPFlagOptimized)
!1111 = !DIImportedEntity(tag: DW_TAG_imported_declaration, scope: !7, entity: !1112, file: !1104, line: 68)
!1112 = !DISubprogram(name: "isgraph", scope: !1101, file: !1101, line: 113, type: !1102, flags: DIFlagPrototyped, spFlags: DISPFlagOptimized)
!1113 = !DIImportedEntity(tag: DW_TAG_imported_declaration, scope: !7, entity: !1114, file: !1104, line: 69)
!1114 = !DISubprogram(name: "islower", scope: !1101, file: !1101, line: 112, type: !1102, flags: DIFlagPrototyped, spFlags: DISPFlagOptimized)
!1115 = !DIImportedEntity(tag: DW_TAG_imported_declaration, scope: !7, entity: !1116, file: !1104, line: 70)
!1116 = !DISubprogram(name: "isprint", scope: !1101, file: !1101, line: 114, type: !1102, flags: DIFlagPrototyped, spFlags: DISPFlagOptimized)
!1117 = !DIImportedEntity(tag: DW_TAG_imported_declaration, scope: !7, entity: !1118, file: !1104, line: 71)
!1118 = !DISubprogram(name: "ispunct", scope: !1101, file: !1101, line: 115, type: !1102, flags: DIFlagPrototyped, spFlags: DISPFlagOptimized)
!1119 = !DIImportedEntity(tag: DW_TAG_imported_declaration, scope: !7, entity: !1120, file: !1104, line: 72)
!1120 = !DISubprogram(name: "isspace", scope: !1101, file: !1101, line: 116, type: !1102, flags: DIFlagPrototyped, spFlags: DISPFlagOptimized)
!1121 = !DIImportedEntity(tag: DW_TAG_imported_declaration, scope: !7, entity: !1122, file: !1104, line: 73)
!1122 = !DISubprogram(name: "isupper", scope: !1101, file: !1101, line: 117, type: !1102, flags: DIFlagPrototyped, spFlags: DISPFlagOptimized)
!1123 = !DIImportedEntity(tag: DW_TAG_imported_declaration, scope: !7, entity: !1124, file: !1104, line: 74)
!1124 = !DISubprogram(name: "isxdigit", scope: !1101, file: !1101, line: 118, type: !1102, flags: DIFlagPrototyped, spFlags: DISPFlagOptimized)
!1125 = !DIImportedEntity(tag: DW_TAG_imported_declaration, scope: !7, entity: !1126, file: !1104, line: 75)
!1126 = !DISubprogram(name: "tolower", scope: !1101, file: !1101, line: 122, type: !1102, flags: DIFlagPrototyped, spFlags: DISPFlagOptimized)
!1127 = !DIImportedEntity(tag: DW_TAG_imported_declaration, scope: !7, entity: !1128, file: !1104, line: 76)
!1128 = !DISubprogram(name: "toupper", scope: !1101, file: !1101, line: 125, type: !1102, flags: DIFlagPrototyped, spFlags: DISPFlagOptimized)
!1129 = !DIImportedEntity(tag: DW_TAG_imported_declaration, scope: !7, entity: !1130, file: !1104, line: 87)
!1130 = !DISubprogram(name: "isblank", scope: !1101, file: !1101, line: 130, type: !1102, flags: DIFlagPrototyped, spFlags: DISPFlagOptimized)
!1131 = !DIImportedEntity(tag: DW_TAG_imported_declaration, scope: !7, entity: !1132, file: !1134, line: 52)
!1132 = !DISubprogram(name: "abs", scope: !1133, file: !1133, line: 840, type: !1102, flags: DIFlagPrototyped, spFlags: DISPFlagOptimized)
!1133 = !DIFile(filename: "/usr/include/stdlib.h", directory: "")
!1134 = !DIFile(filename: "/usr/lib64/gcc/x86_64-pc-linux-gnu/10.2.0/../../../../include/c++/10.2.0/bits/std_abs.h", directory: "")
